
SAME70-LCD-EXT2.elf:     file format elf32-littlearm

Sections:
Idx Name          Size      VMA       LMA       File off  Algn
  0 .text         00010d3c  00400000  00400000  00010000  2**6
                  CONTENTS, ALLOC, LOAD, READONLY, CODE
  1 .ARM.exidx    00000008  00410d3c  00410d3c  00020d3c  2**2
                  CONTENTS, ALLOC, LOAD, READONLY, DATA
  2 .relocate     000009b8  20400000  00410d44  00030000  2**3
                  CONTENTS, ALLOC, LOAD, DATA
  3 .bss          000004cc  204009b8  004116fc  000309b8  2**2
                  ALLOC
  4 .stack        00002004  20400e84  00411bc8  000309b8  2**0
                  ALLOC
  5 .heap         00000200  20402e88  00413bcc  000309b8  2**0
                  ALLOC
  6 .ARM.attributes 0000002e  00000000  00000000  000309b8  2**0
                  CONTENTS, READONLY
  7 .comment      00000059  00000000  00000000  000309e6  2**0
                  CONTENTS, READONLY
  8 .debug_info   00017c8b  00000000  00000000  00030a3f  2**0
                  CONTENTS, READONLY, DEBUGGING
  9 .debug_abbrev 00003298  00000000  00000000  000486ca  2**0
                  CONTENTS, READONLY, DEBUGGING
 10 .debug_loc    00006808  00000000  00000000  0004b962  2**0
                  CONTENTS, READONLY, DEBUGGING
 11 .debug_aranges 00000ba0  00000000  00000000  0005216a  2**0
                  CONTENTS, READONLY, DEBUGGING
 12 .debug_ranges 00000c30  00000000  00000000  00052d0a  2**0
                  CONTENTS, READONLY, DEBUGGING
 13 .debug_macro  00006fe2  00000000  00000000  0005393a  2**0
                  CONTENTS, READONLY, DEBUGGING
 14 .debug_line   0000cb15  00000000  00000000  0005a91c  2**0
                  CONTENTS, READONLY, DEBUGGING
 15 .debug_str    0008d980  00000000  00000000  00067431  2**0
                  CONTENTS, READONLY, DEBUGGING
 16 .debug_frame  00002df4  00000000  00000000  000f4db4  2**2
                  CONTENTS, READONLY, DEBUGGING

Disassembly of section .text:

00400000 <exception_table>:
  400000:	88 2e 40 20 59 15 40 00 57 15 40 00 57 15 40 00     ..@ Y.@.W.@.W.@.
  400010:	57 15 40 00 57 15 40 00 57 15 40 00 00 00 00 00     W.@.W.@.W.@.....
	...
  40002c:	57 15 40 00 57 15 40 00 00 00 00 00 57 15 40 00     W.@.W.@.....W.@.
  40003c:	57 15 40 00 57 15 40 00 57 15 40 00 57 15 40 00     W.@.W.@.W.@.W.@.
  40004c:	57 15 40 00 57 15 40 00 57 15 40 00 57 15 40 00     W.@.W.@.W.@.W.@.
  40005c:	57 15 40 00 57 15 40 00 00 00 00 00 cd 10 40 00     W.@.W.@.......@.
  40006c:	e1 10 40 00 f5 10 40 00 57 15 40 00 57 15 40 00     ..@...@.W.@.W.@.
  40007c:	57 15 40 00 09 11 40 00 1d 11 40 00 57 15 40 00     W.@...@...@.W.@.
  40008c:	57 15 40 00 57 15 40 00 57 15 40 00 57 15 40 00     W.@.W.@.W.@.W.@.
  40009c:	57 15 40 00 57 15 40 00 57 15 40 00 57 15 40 00     W.@.W.@.W.@.W.@.
  4000ac:	57 15 40 00 57 15 40 00 57 15 40 00 57 15 40 00     W.@.W.@.W.@.W.@.
  4000bc:	57 15 40 00 57 15 40 00 57 15 40 00 57 15 40 00     W.@.W.@.W.@.W.@.
  4000cc:	57 15 40 00 00 00 00 00 57 15 40 00 00 00 00 00     W.@.....W.@.....
  4000dc:	57 15 40 00 57 15 40 00 57 15 40 00 57 15 40 00     W.@.W.@.W.@.W.@.
  4000ec:	57 15 40 00 57 15 40 00 57 15 40 00 57 15 40 00     W.@.W.@.W.@.W.@.
  4000fc:	57 15 40 00 57 15 40 00 57 15 40 00 57 15 40 00     W.@.W.@.W.@.W.@.
  40010c:	57 15 40 00 57 15 40 00 00 00 00 00 00 00 00 00     W.@.W.@.........
  40011c:	00 00 00 00 57 15 40 00 57 15 40 00 57 15 40 00     ....W.@.W.@.W.@.
  40012c:	57 15 40 00 57 15 40 00 00 00 00 00 57 15 40 00     W.@.W.@.....W.@.
  40013c:	57 15 40 00                                         W.@.

00400140 <__do_global_dtors_aux>:
  400140:	b510      	push	{r4, lr}
  400142:	4c05      	ldr	r4, [pc, #20]	; (400158 <__do_global_dtors_aux+0x18>)
  400144:	7823      	ldrb	r3, [r4, #0]
  400146:	b933      	cbnz	r3, 400156 <__do_global_dtors_aux+0x16>
  400148:	4b04      	ldr	r3, [pc, #16]	; (40015c <__do_global_dtors_aux+0x1c>)
  40014a:	b113      	cbz	r3, 400152 <__do_global_dtors_aux+0x12>
  40014c:	4804      	ldr	r0, [pc, #16]	; (400160 <__do_global_dtors_aux+0x20>)
  40014e:	f3af 8000 	nop.w
  400152:	2301      	movs	r3, #1
  400154:	7023      	strb	r3, [r4, #0]
  400156:	bd10      	pop	{r4, pc}
  400158:	204009b8 	.word	0x204009b8
  40015c:	00000000 	.word	0x00000000
  400160:	00410d44 	.word	0x00410d44

00400164 <frame_dummy>:
  400164:	4b0c      	ldr	r3, [pc, #48]	; (400198 <frame_dummy+0x34>)
  400166:	b143      	cbz	r3, 40017a <frame_dummy+0x16>
  400168:	480c      	ldr	r0, [pc, #48]	; (40019c <frame_dummy+0x38>)
  40016a:	490d      	ldr	r1, [pc, #52]	; (4001a0 <frame_dummy+0x3c>)
  40016c:	b510      	push	{r4, lr}
  40016e:	f3af 8000 	nop.w
  400172:	480c      	ldr	r0, [pc, #48]	; (4001a4 <frame_dummy+0x40>)
  400174:	6803      	ldr	r3, [r0, #0]
  400176:	b923      	cbnz	r3, 400182 <frame_dummy+0x1e>
  400178:	bd10      	pop	{r4, pc}
  40017a:	480a      	ldr	r0, [pc, #40]	; (4001a4 <frame_dummy+0x40>)
  40017c:	6803      	ldr	r3, [r0, #0]
  40017e:	b933      	cbnz	r3, 40018e <frame_dummy+0x2a>
  400180:	4770      	bx	lr
  400182:	4b09      	ldr	r3, [pc, #36]	; (4001a8 <frame_dummy+0x44>)
  400184:	2b00      	cmp	r3, #0
  400186:	d0f7      	beq.n	400178 <frame_dummy+0x14>
  400188:	e8bd 4010 	ldmia.w	sp!, {r4, lr}
  40018c:	4718      	bx	r3
  40018e:	4b06      	ldr	r3, [pc, #24]	; (4001a8 <frame_dummy+0x44>)
  400190:	2b00      	cmp	r3, #0
  400192:	d0f5      	beq.n	400180 <frame_dummy+0x1c>
  400194:	4718      	bx	r3
  400196:	bf00      	nop
  400198:	00000000 	.word	0x00000000
  40019c:	00410d44 	.word	0x00410d44
  4001a0:	204009bc 	.word	0x204009bc
  4001a4:	00410d44 	.word	0x00410d44
  4001a8:	00000000 	.word	0x00000000

004001ac <sysclk_init>:
	pmc_disable_udpck();
}
#endif // CONFIG_USBCLK_SOURCE

void sysclk_init(void)
{
  4001ac:	b510      	push	{r4, lr}
	struct pll_config pllcfg;

	/* Set flash wait state to max in case the below clock switching. */
	system_init_flash(CHIP_FREQ_CPU_MAX);
  4001ae:	4810      	ldr	r0, [pc, #64]	; (4001f0 <sysclk_init+0x44>)
  4001b0:	4b10      	ldr	r3, [pc, #64]	; (4001f4 <sysclk_init+0x48>)
  4001b2:	4798      	blx	r3
		pmc_switch_mainck_to_fastrc(CKGR_MOR_MOSCRCF_12_MHz);
		break;


	case OSC_MAINCK_XTAL:
		pmc_switch_mainck_to_xtal(PMC_OSC_XTAL,
  4001b4:	213e      	movs	r1, #62	; 0x3e
  4001b6:	2000      	movs	r0, #0
  4001b8:	4b0f      	ldr	r3, [pc, #60]	; (4001f8 <sysclk_init+0x4c>)
  4001ba:	4798      	blx	r3
	case OSC_MAINCK_4M_RC:
	case OSC_MAINCK_8M_RC:
	case OSC_MAINCK_12M_RC:
	case OSC_MAINCK_XTAL:
	case OSC_MAINCK_BYPASS:
		return pmc_osc_is_ready_mainck();
  4001bc:	4c0f      	ldr	r4, [pc, #60]	; (4001fc <sysclk_init+0x50>)
  4001be:	47a0      	blx	r4
 *
 * \param id A number identifying the oscillator to wait for.
 */
static inline void osc_wait_ready(uint8_t id)
{
	while (!osc_is_ready(id)) {
  4001c0:	2800      	cmp	r0, #0
  4001c2:	d0fc      	beq.n	4001be <sysclk_init+0x12>
static inline void pll_enable(const struct pll_config *p_cfg, uint32_t ul_pll_id)
{
	Assert(ul_pll_id < NR_PLLS);

	if (ul_pll_id == PLLA_ID) {
		pmc_disable_pllack(); // Always stop PLL first!
  4001c4:	4b0e      	ldr	r3, [pc, #56]	; (400200 <sysclk_init+0x54>)
  4001c6:	4798      	blx	r3
		PMC->CKGR_PLLAR = CKGR_PLLAR_ONE | p_cfg->ctrl;
  4001c8:	4a0e      	ldr	r2, [pc, #56]	; (400204 <sysclk_init+0x58>)
  4001ca:	4b0f      	ldr	r3, [pc, #60]	; (400208 <sysclk_init+0x5c>)
  4001cc:	629a      	str	r2, [r3, #40]	; 0x28
static inline uint32_t pll_is_locked(uint32_t ul_pll_id)
{
	Assert(ul_pll_id < NR_PLLS);

	if (ul_pll_id == PLLA_ID) {
	return pmc_is_locked_pllack();
  4001ce:	4c0f      	ldr	r4, [pc, #60]	; (40020c <sysclk_init+0x60>)
  4001d0:	47a0      	blx	r4
 */
static inline int pll_wait_for_lock(unsigned int pll_id)
{
	Assert(pll_id < NR_PLLS);

	while (!pll_is_locked(pll_id)) {
  4001d2:	2800      	cmp	r0, #0
  4001d4:	d0fc      	beq.n	4001d0 <sysclk_init+0x24>
	else if (CONFIG_SYSCLK_SOURCE == SYSCLK_SRC_PLLACK) {
		pll_enable_source(CONFIG_PLL0_SOURCE);
		pll_config_defaults(&pllcfg, 0);
		pll_enable(&pllcfg, 0);
		pll_wait_for_lock(0);
		pmc_mck_set_division(CONFIG_SYSCLK_DIV);
  4001d6:	2002      	movs	r0, #2
  4001d8:	4b0d      	ldr	r3, [pc, #52]	; (400210 <sysclk_init+0x64>)
  4001da:	4798      	blx	r3
		pmc_switch_mck_to_pllack(CONFIG_SYSCLK_PRES);
  4001dc:	2000      	movs	r0, #0
  4001de:	4b0d      	ldr	r3, [pc, #52]	; (400214 <sysclk_init+0x68>)
  4001e0:	4798      	blx	r3
		pll_wait_for_lock(1);
		pmc_mck_set_division(CONFIG_SYSCLK_DIV);
		pmc_switch_mck_to_upllck(CONFIG_SYSCLK_PRES);
	}
	/* Update the SystemFrequency variable */
	SystemCoreClockUpdate();
  4001e2:	4b0d      	ldr	r3, [pc, #52]	; (400218 <sysclk_init+0x6c>)
  4001e4:	4798      	blx	r3

	/* Set a flash wait state depending on the new cpu frequency */
	system_init_flash(sysclk_get_cpu_hz());
  4001e6:	4802      	ldr	r0, [pc, #8]	; (4001f0 <sysclk_init+0x44>)
  4001e8:	4b02      	ldr	r3, [pc, #8]	; (4001f4 <sysclk_init+0x48>)
  4001ea:	4798      	blx	r3
  4001ec:	bd10      	pop	{r4, pc}
  4001ee:	bf00      	nop
  4001f0:	11e1a300 	.word	0x11e1a300
  4001f4:	0040172d 	.word	0x0040172d
  4001f8:	004011cd 	.word	0x004011cd
  4001fc:	00401221 	.word	0x00401221
  400200:	00401231 	.word	0x00401231
  400204:	20183f01 	.word	0x20183f01
  400208:	400e0600 	.word	0x400e0600
  40020c:	00401241 	.word	0x00401241
  400210:	00401131 	.word	0x00401131
  400214:	00401169 	.word	0x00401169
  400218:	00401621 	.word	0x00401621

0040021c <spi_master_init>:
 *
 * \param p_spi  Base address of the SPI instance.
 *
 */
void spi_master_init(Spi *p_spi)
{
  40021c:	b510      	push	{r4, lr}
  40021e:	4604      	mov	r4, r0
#if SAMG55
	flexcom_enable(BOARD_FLEXCOM_SPI);
	flexcom_set_opmode(BOARD_FLEXCOM_SPI, FLEXCOM_SPI);
#else
	spi_enable_clock(p_spi);
  400220:	4b10      	ldr	r3, [pc, #64]	; (400264 <spi_master_init+0x48>)
  400222:	4798      	blx	r3
 *
 * \param p_spi Pointer to an SPI instance.
 */
static inline void spi_reset(Spi *p_spi)
{
	p_spi->SPI_CR = SPI_CR_SWRST;
  400224:	2380      	movs	r3, #128	; 0x80
  400226:	6023      	str	r3, [r4, #0]
 *
 * \param p_spi Pointer to an SPI instance.
 */
static inline void spi_set_master_mode(Spi *p_spi)
{
	p_spi->SPI_MR |= SPI_MR_MSTR;
  400228:	6863      	ldr	r3, [r4, #4]
  40022a:	f043 0301 	orr.w	r3, r3, #1
  40022e:	6063      	str	r3, [r4, #4]
 *
 * \param p_spi Pointer to an SPI instance.
 */
static inline void spi_disable_mode_fault_detect(Spi *p_spi)
{
	p_spi->SPI_MR |= SPI_MR_MODFDIS;
  400230:	6863      	ldr	r3, [r4, #4]
  400232:	f043 0310 	orr.w	r3, r3, #16
  400236:	6063      	str	r3, [r4, #4]
 *
 * \param p_spi Pointer to an SPI instance.
 */
static inline void spi_disable_loopback(Spi *p_spi)
{
	p_spi->SPI_MR &= (~SPI_MR_LLB);
  400238:	6863      	ldr	r3, [r4, #4]
  40023a:	f023 0380 	bic.w	r3, r3, #128	; 0x80
  40023e:	6063      	str	r3, [r4, #4]
#endif
	spi_reset(p_spi);
	spi_set_master_mode(p_spi);
	spi_disable_mode_fault_detect(p_spi);
	spi_disable_loopback(p_spi);
	spi_set_peripheral_chip_select_value(p_spi, DEFAULT_CHIP_ID);
  400240:	2100      	movs	r1, #0
  400242:	4620      	mov	r0, r4
  400244:	4b08      	ldr	r3, [pc, #32]	; (400268 <spi_master_init+0x4c>)
  400246:	4798      	blx	r3
	p_spi->SPI_MR &= (~SPI_MR_PS);
  400248:	6863      	ldr	r3, [r4, #4]
  40024a:	f023 0302 	bic.w	r3, r3, #2
  40024e:	6063      	str	r3, [r4, #4]
	p_spi->SPI_MR &= (~SPI_MR_PCSDEC);
  400250:	6863      	ldr	r3, [r4, #4]
  400252:	f023 0304 	bic.w	r3, r3, #4
  400256:	6063      	str	r3, [r4, #4]
	spi_set_fixed_peripheral_select(p_spi);
	spi_disable_peripheral_select_decode(p_spi);
	spi_set_delay_between_chip_select(p_spi, CONFIG_SPI_MASTER_DELAY_BCS);
  400258:	2100      	movs	r1, #0
  40025a:	4620      	mov	r0, r4
  40025c:	4b03      	ldr	r3, [pc, #12]	; (40026c <spi_master_init+0x50>)
  40025e:	4798      	blx	r3
  400260:	bd10      	pop	{r4, pc}
  400262:	bf00      	nop
  400264:	004012a5 	.word	0x004012a5
  400268:	004012d1 	.word	0x004012d1
  40026c:	004012e7 	.word	0x004012e7

00400270 <spi_master_setup_device>:
 * \param baud_rate Baud rate for communication with slave device in Hz.
 * \param sel_id    Board specific select id.
 */
void spi_master_setup_device(Spi *p_spi, struct spi_device *device,
		spi_flags_t flags, uint32_t baud_rate, board_spi_select_id_t sel_id)
{
  400270:	e92d 41f0 	stmdb	sp!, {r4, r5, r6, r7, r8, lr}
  400274:	4604      	mov	r4, r0
  400276:	460d      	mov	r5, r1
  400278:	4616      	mov	r6, r2
#if (SAM4L)
    int16_t baud_div = spi_calc_baudrate_div(baud_rate, sysclk_get_pba_hz());
#else
	int16_t baud_div = spi_calc_baudrate_div(baud_rate, sysclk_get_peripheral_hz());
  40027a:	4915      	ldr	r1, [pc, #84]	; (4002d0 <spi_master_setup_device+0x60>)
  40027c:	4618      	mov	r0, r3
  40027e:	4b15      	ldr	r3, [pc, #84]	; (4002d4 <spi_master_setup_device+0x64>)
  400280:	4798      	blx	r3
  400282:	4607      	mov	r7, r0
	/* avoid Cppcheck Warning */
	UNUSED(sel_id);
	if (-1 == baud_div) {
		Assert(0 == "Failed to find baudrate divider");
	}
	spi_set_transfer_delay(p_spi, device->id, CONFIG_SPI_MASTER_DELAY_BS,
  400284:	2301      	movs	r3, #1
  400286:	461a      	mov	r2, r3
  400288:	6829      	ldr	r1, [r5, #0]
  40028a:	4620      	mov	r0, r4
  40028c:	f8df 805c 	ldr.w	r8, [pc, #92]	; 4002ec <spi_master_setup_device+0x7c>
  400290:	47c0      	blx	r8
			CONFIG_SPI_MASTER_DELAY_BCT);
	spi_set_bits_per_transfer(p_spi, device->id,
  400292:	2200      	movs	r2, #0
  400294:	6829      	ldr	r1, [r5, #0]
  400296:	4620      	mov	r0, r4
  400298:	4b0f      	ldr	r3, [pc, #60]	; (4002d8 <spi_master_setup_device+0x68>)
  40029a:	4798      	blx	r3
			CONFIG_SPI_MASTER_BITS_PER_TRANSFER);
	spi_set_baudrate_div(p_spi, device->id, baud_div);
  40029c:	b2fa      	uxtb	r2, r7
  40029e:	6829      	ldr	r1, [r5, #0]
  4002a0:	4620      	mov	r0, r4
  4002a2:	4b0e      	ldr	r3, [pc, #56]	; (4002dc <spi_master_setup_device+0x6c>)
  4002a4:	4798      	blx	r3
	spi_configure_cs_behavior(p_spi, device->id, SPI_CS_KEEP_LOW);
  4002a6:	2208      	movs	r2, #8
  4002a8:	6829      	ldr	r1, [r5, #0]
  4002aa:	4620      	mov	r0, r4
  4002ac:	4b0c      	ldr	r3, [pc, #48]	; (4002e0 <spi_master_setup_device+0x70>)
  4002ae:	4798      	blx	r3
	spi_set_clock_polarity(p_spi, device->id, flags >> 1);
  4002b0:	0872      	lsrs	r2, r6, #1
  4002b2:	6829      	ldr	r1, [r5, #0]
  4002b4:	4620      	mov	r0, r4
  4002b6:	4b0b      	ldr	r3, [pc, #44]	; (4002e4 <spi_master_setup_device+0x74>)
  4002b8:	4798      	blx	r3
	spi_set_clock_phase(p_spi, device->id, ((flags & 0x1) ^ 0x1));
  4002ba:	f086 0201 	eor.w	r2, r6, #1
  4002be:	f002 0201 	and.w	r2, r2, #1
  4002c2:	6829      	ldr	r1, [r5, #0]
  4002c4:	4620      	mov	r0, r4
  4002c6:	4b08      	ldr	r3, [pc, #32]	; (4002e8 <spi_master_setup_device+0x78>)
  4002c8:	4798      	blx	r3
  4002ca:	e8bd 81f0 	ldmia.w	sp!, {r4, r5, r6, r7, r8, pc}
  4002ce:	bf00      	nop
  4002d0:	08f0d180 	.word	0x08f0d180
  4002d4:	004013c3 	.word	0x004013c3
  4002d8:	004013af 	.word	0x004013af
  4002dc:	004013d9 	.word	0x004013d9
  4002e0:	00401369 	.word	0x00401369
  4002e4:	0040132d 	.word	0x0040132d
  4002e8:	0040134b 	.word	0x0040134b
  4002ec:	00401401 	.word	0x00401401

004002f0 <spi_select_device>:
 * \param p_spi   Base address of the SPI instance.
 * \param device  SPI device.
 *
 */
void spi_select_device(Spi *p_spi, struct spi_device *device)
{
  4002f0:	b508      	push	{r3, lr}
	if (p_spi->SPI_MR & SPI_MR_PCSDEC) {
  4002f2:	6843      	ldr	r3, [r0, #4]
	if (spi_get_peripheral_select_decode_setting(p_spi)) {
  4002f4:	f013 0f04 	tst.w	r3, #4
  4002f8:	d006      	beq.n	400308 <spi_select_device+0x18>
		if (device->id < MAX_NUM_WITH_DECODER) {
  4002fa:	6809      	ldr	r1, [r1, #0]
  4002fc:	290f      	cmp	r1, #15
  4002fe:	d900      	bls.n	400302 <spi_select_device+0x12>
  400300:	bd08      	pop	{r3, pc}
			spi_set_peripheral_chip_select_value(p_spi, device->id);
  400302:	4b06      	ldr	r3, [pc, #24]	; (40031c <spi_select_device+0x2c>)
  400304:	4798      	blx	r3
  400306:	bd08      	pop	{r3, pc}
		}
	} else {
		if (device->id < MAX_NUM_WITHOUT_DECODER) {
  400308:	6809      	ldr	r1, [r1, #0]
  40030a:	2903      	cmp	r1, #3
  40030c:	d8f8      	bhi.n	400300 <spi_select_device+0x10>
			spi_set_peripheral_chip_select_value(p_spi, (~(1 << device->id)));
  40030e:	2301      	movs	r3, #1
  400310:	fa03 f101 	lsl.w	r1, r3, r1
  400314:	43c9      	mvns	r1, r1
  400316:	4b01      	ldr	r3, [pc, #4]	; (40031c <spi_select_device+0x2c>)
  400318:	4798      	blx	r3
		}
	}
}
  40031a:	e7f1      	b.n	400300 <spi_select_device+0x10>
  40031c:	004012d1 	.word	0x004012d1

00400320 <spi_write_packet>:
{
	uint32_t timeout = SPI_TIMEOUT;
	uint32_t i = 0;
	uint8_t val;

	while (len) {
  400320:	b11a      	cbz	r2, 40032a <spi_write_packet+0xa>
{
  400322:	b410      	push	{r4}
  400324:	460c      	mov	r4, r1
  400326:	4411      	add	r1, r2
  400328:	e006      	b.n	400338 <spi_write_packet+0x18>
		spi_write_single(p_spi, val);
		i++;
		len--;
	}

	return STATUS_OK;
  40032a:	2000      	movs	r0, #0
  40032c:	4770      	bx	lr
		val = data[i];
  40032e:	f814 3b01 	ldrb.w	r3, [r4], #1
 * \param data The data byte to be loaded
 *
 */
static inline void spi_put(Spi *p_spi, uint16_t data)
{
	p_spi->SPI_TDR = SPI_TDR_TD(data);
  400332:	60c3      	str	r3, [r0, #12]
	while (len) {
  400334:	42a1      	cmp	r1, r4
  400336:	d00c      	beq.n	400352 <spi_write_packet+0x32>
{
  400338:	f643 2399 	movw	r3, #15001	; 0x3a99
 * \retval 1 if transmissions are complete.
 * \retval 0 if transmissions are not complete.
 */
static inline uint32_t spi_is_tx_ready(Spi *p_spi)
{
	if (p_spi->SPI_SR & SPI_SR_TDRE) {
  40033c:	6902      	ldr	r2, [r0, #16]
		while (!spi_is_tx_ready(p_spi)) {
  40033e:	f012 0f02 	tst.w	r2, #2
  400342:	d1f4      	bne.n	40032e <spi_write_packet+0xe>
			if (!timeout--) {
  400344:	3b01      	subs	r3, #1
  400346:	d1f9      	bne.n	40033c <spi_write_packet+0x1c>
				return ERR_TIMEOUT;
  400348:	f06f 0002 	mvn.w	r0, #2
}
  40034c:	f85d 4b04 	ldr.w	r4, [sp], #4
  400350:	4770      	bx	lr
	return STATUS_OK;
  400352:	2000      	movs	r0, #0
  400354:	e7fa      	b.n	40034c <spi_write_packet+0x2c>

00400356 <spi_read_packet>:
{
	uint32_t timeout = SPI_TIMEOUT;
	uint8_t val;
	uint32_t i = 0;

	while (len) {
  400356:	b13a      	cbz	r2, 400368 <spi_read_packet+0x12>
{
  400358:	b470      	push	{r4, r5, r6}
  40035a:	4615      	mov	r5, r2
  40035c:	460c      	mov	r4, r1
  40035e:	440d      	add	r5, r1
	p_spi->SPI_TDR = SPI_TDR_TD(data);
  400360:	26ff      	movs	r6, #255	; 0xff
 *
 * \return 1 if the SPI Receiver is ready, otherwise 0.
 */
static inline uint32_t spi_is_rx_ready(Spi *p_spi)
{
	if ((p_spi->SPI_SR & (SPI_SR_RDRF | SPI_SR_TXEMPTY))
  400362:	f240 2101 	movw	r1, #513	; 0x201
  400366:	e012      	b.n	40038e <spi_read_packet+0x38>
		data[i] = val;
		i++;
		len--;
	}

	return STATUS_OK;
  400368:	2000      	movs	r0, #0
  40036a:	4770      	bx	lr
	p_spi->SPI_TDR = SPI_TDR_TD(data);
  40036c:	60c6      	str	r6, [r0, #12]
		while (!spi_is_rx_ready(p_spi)) {
  40036e:	f643 2399 	movw	r3, #15001	; 0x3a99
	if ((p_spi->SPI_SR & (SPI_SR_RDRF | SPI_SR_TXEMPTY))
  400372:	6902      	ldr	r2, [r0, #16]
  400374:	ea31 0202 	bics.w	r2, r1, r2
  400378:	d004      	beq.n	400384 <spi_read_packet+0x2e>
			if (!timeout--) {
  40037a:	3b01      	subs	r3, #1
  40037c:	d1f9      	bne.n	400372 <spi_read_packet+0x1c>
				return ERR_TIMEOUT;
  40037e:	f06f 0002 	mvn.w	r0, #2
  400382:	e00e      	b.n	4003a2 <spi_read_packet+0x4c>
	return (p_spi->SPI_RDR & SPI_RDR_RD_Msk);
  400384:	6883      	ldr	r3, [r0, #8]
 * \param data      Data to read.
 *
 */
static inline void spi_read_single(Spi *p_spi, uint8_t *data)
{
	*data = (uint8_t)spi_get(p_spi);
  400386:	f804 3b01 	strb.w	r3, [r4], #1
	while (len) {
  40038a:	42a5      	cmp	r5, r4
  40038c:	d00b      	beq.n	4003a6 <spi_read_packet+0x50>
{
  40038e:	f643 2399 	movw	r3, #15001	; 0x3a99
	if (p_spi->SPI_SR & SPI_SR_TDRE) {
  400392:	6902      	ldr	r2, [r0, #16]
		while (!spi_is_tx_ready(p_spi)) {
  400394:	f012 0f02 	tst.w	r2, #2
  400398:	d1e8      	bne.n	40036c <spi_read_packet+0x16>
			if (!timeout--) {
  40039a:	3b01      	subs	r3, #1
  40039c:	d1f9      	bne.n	400392 <spi_read_packet+0x3c>
				return ERR_TIMEOUT;
  40039e:	f06f 0002 	mvn.w	r0, #2
}
  4003a2:	bc70      	pop	{r4, r5, r6}
  4003a4:	4770      	bx	lr
	return STATUS_OK;
  4003a6:	2000      	movs	r0, #0
  4003a8:	e7fb      	b.n	4003a2 <spi_read_packet+0x4c>
	...

004003ac <_read>:
int __attribute__((weak))
_read (int file, char * ptr, int len); // Remove GCC compiler warning

int __attribute__((weak))
_read (int file, char * ptr, int len)
{
  4003ac:	e92d 41f0 	stmdb	sp!, {r4, r5, r6, r7, r8, lr}
	int nChars = 0;

	if (file != 0) {
  4003b0:	b980      	cbnz	r0, 4003d4 <_read+0x28>
  4003b2:	460c      	mov	r4, r1
  4003b4:	4690      	mov	r8, r2
		return -1;
	}

	for (; len > 0; --len) {
  4003b6:	2a00      	cmp	r2, #0
  4003b8:	dd0f      	ble.n	4003da <_read+0x2e>
  4003ba:	188f      	adds	r7, r1, r2
		ptr_get(stdio_base, ptr);
  4003bc:	4e08      	ldr	r6, [pc, #32]	; (4003e0 <_read+0x34>)
  4003be:	4d09      	ldr	r5, [pc, #36]	; (4003e4 <_read+0x38>)
  4003c0:	6830      	ldr	r0, [r6, #0]
  4003c2:	4621      	mov	r1, r4
  4003c4:	682b      	ldr	r3, [r5, #0]
  4003c6:	4798      	blx	r3
		ptr++;
  4003c8:	3401      	adds	r4, #1
	for (; len > 0; --len) {
  4003ca:	42bc      	cmp	r4, r7
  4003cc:	d1f8      	bne.n	4003c0 <_read+0x14>
		nChars++;
	}
	return nChars;
}
  4003ce:	4640      	mov	r0, r8
  4003d0:	e8bd 81f0 	ldmia.w	sp!, {r4, r5, r6, r7, r8, pc}
		return -1;
  4003d4:	f04f 38ff 	mov.w	r8, #4294967295
  4003d8:	e7f9      	b.n	4003ce <_read+0x22>
	for (; len > 0; --len) {
  4003da:	4680      	mov	r8, r0
  4003dc:	e7f7      	b.n	4003ce <_read+0x22>
  4003de:	bf00      	nop
  4003e0:	20400e48 	.word	0x20400e48
  4003e4:	20400e40 	.word	0x20400e40

004003e8 <_write>:
int __attribute__((weak))
_write (int file, const char *ptr, int len)
{
	int nChars = 0;

	if ((file != 1) && (file != 2) && (file!=3)) {
  4003e8:	3801      	subs	r0, #1
  4003ea:	2802      	cmp	r0, #2
  4003ec:	d815      	bhi.n	40041a <_write+0x32>
{
  4003ee:	e92d 41f0 	stmdb	sp!, {r4, r5, r6, r7, r8, lr}
  4003f2:	460e      	mov	r6, r1
  4003f4:	4614      	mov	r4, r2
		return -1;
	}

	for (; len != 0; --len) {
  4003f6:	b19a      	cbz	r2, 400420 <_write+0x38>
  4003f8:	460d      	mov	r5, r1
		if (ptr_put(stdio_base, *ptr++) < 0) {
  4003fa:	f8df 8038 	ldr.w	r8, [pc, #56]	; 400434 <_write+0x4c>
  4003fe:	4f0c      	ldr	r7, [pc, #48]	; (400430 <_write+0x48>)
  400400:	f8d8 0000 	ldr.w	r0, [r8]
  400404:	f815 1b01 	ldrb.w	r1, [r5], #1
  400408:	683b      	ldr	r3, [r7, #0]
  40040a:	4798      	blx	r3
  40040c:	2800      	cmp	r0, #0
  40040e:	db0a      	blt.n	400426 <_write+0x3e>
  400410:	1ba8      	subs	r0, r5, r6
	for (; len != 0; --len) {
  400412:	3c01      	subs	r4, #1
  400414:	d1f4      	bne.n	400400 <_write+0x18>
  400416:	e8bd 81f0 	ldmia.w	sp!, {r4, r5, r6, r7, r8, pc}
		return -1;
  40041a:	f04f 30ff 	mov.w	r0, #4294967295
  40041e:	4770      	bx	lr
	for (; len != 0; --len) {
  400420:	4610      	mov	r0, r2
  400422:	e8bd 81f0 	ldmia.w	sp!, {r4, r5, r6, r7, r8, pc}
			return -1;
  400426:	f04f 30ff 	mov.w	r0, #4294967295
		}
		++nChars;
	}
	return nChars;
}
  40042a:	e8bd 81f0 	ldmia.w	sp!, {r4, r5, r6, r7, r8, pc}
  40042e:	bf00      	nop
  400430:	20400e44 	.word	0x20400e44
  400434:	20400e48 	.word	0x20400e48

00400438 <board_init>:
	__ISB();
}
#endif

void board_init(void)
{
  400438:	e92d 41f0 	stmdb	sp!, {r4, r5, r6, r7, r8, lr}
#ifndef CONF_BOARD_KEEP_WATCHDOG_AT_INIT
	/* Disable the watchdog */
	WDT->WDT_MR = WDT_MR_WDDIS;
  40043c:	f44f 4200 	mov.w	r2, #32768	; 0x8000
  400440:	4b9e      	ldr	r3, [pc, #632]	; (4006bc <board_init+0x284>)
  400442:	605a      	str	r2, [r3, #4]
    This function acts as a special kind of Data Memory Barrier.
    It completes when all explicit memory accesses before this instruction complete.
 */
__attribute__( ( always_inline ) ) __STATIC_INLINE void __DSB(void)
{
  __ASM volatile ("dsb");
  400444:	f3bf 8f4f 	dsb	sy
  __ASM volatile ("isb");
  400448:	f3bf 8f6f 	isb	sy
__STATIC_INLINE void SCB_EnableICache(void)
{
  #if (__ICACHE_PRESENT == 1)
    __DSB();
    __ISB();
    SCB->ICIALLU = 0;                       // invalidate I-Cache
  40044c:	4b9c      	ldr	r3, [pc, #624]	; (4006c0 <board_init+0x288>)
  40044e:	2200      	movs	r2, #0
  400450:	f8c3 2250 	str.w	r2, [r3, #592]	; 0x250
    SCB->CCR |=  SCB_CCR_IC_Msk;            // enable I-Cache
  400454:	695a      	ldr	r2, [r3, #20]
  400456:	f442 3200 	orr.w	r2, r2, #131072	; 0x20000
  40045a:	615a      	str	r2, [r3, #20]
  __ASM volatile ("dsb");
  40045c:	f3bf 8f4f 	dsb	sy
  __ASM volatile ("isb");
  400460:	f3bf 8f6f 	isb	sy
{
  #if (__DCACHE_PRESENT == 1)
    uint32_t ccsidr, sshift, wshift, sw;
    uint32_t sets, ways;

    ccsidr  = SCB->CCSIDR;
  400464:	f8d3 7080 	ldr.w	r7, [r3, #128]	; 0x80
    sets    = CCSIDR_SETS(ccsidr);
  400468:	f3c7 364e 	ubfx	r6, r7, #13, #15
    sshift  = CCSIDR_LSSHIFT(ccsidr) + 4;
  40046c:	f007 0007 	and.w	r0, r7, #7
  400470:	3004      	adds	r0, #4
    ways    = CCSIDR_WAYS(ccsidr);
  400472:	f3c7 07c9 	ubfx	r7, r7, #3, #10
 */
__attribute__( ( always_inline ) ) __STATIC_INLINE uint8_t __CLZ(uint32_t value)
{
  uint32_t result;

  __ASM volatile ("clz %0, %1" : "=r" (result) : "r" (value) );
  400476:	fab7 fe87 	clz	lr, r7
    wshift  = __CLZ(ways) & 0x1f;
  40047a:	f00e 0e1f 	and.w	lr, lr, #31
  __ASM volatile ("dsb");
  40047e:	f3bf 8f4f 	dsb	sy
  400482:	f04f 34ff 	mov.w	r4, #4294967295
  400486:	fa04 fc00 	lsl.w	ip, r4, r0
  40048a:	fa06 f000 	lsl.w	r0, r6, r0
  40048e:	fa04 f40e 	lsl.w	r4, r4, lr
  400492:	fa07 fe0e 	lsl.w	lr, r7, lr

    do {                                    // invalidate D-Cache
         int32_t tmpways = ways;
         do {
              sw = ((tmpways << wshift) | (sets << sshift));
              SCB->DCISW = sw;
  400496:	461d      	mov	r5, r3
         int32_t tmpways = ways;
  400498:	463a      	mov	r2, r7
  40049a:	4673      	mov	r3, lr
              sw = ((tmpways << wshift) | (sets << sshift));
  40049c:	ea40 0103 	orr.w	r1, r0, r3
              SCB->DCISW = sw;
  4004a0:	f8c5 1260 	str.w	r1, [r5, #608]	; 0x260
            } while(tmpways--);
  4004a4:	3a01      	subs	r2, #1
  4004a6:	4423      	add	r3, r4
  4004a8:	f1b2 3fff 	cmp.w	r2, #4294967295
  4004ac:	d1f6      	bne.n	40049c <board_init+0x64>
        } while(sets--);
  4004ae:	3e01      	subs	r6, #1
  4004b0:	4460      	add	r0, ip
  4004b2:	f1b6 3fff 	cmp.w	r6, #4294967295
  4004b6:	d1ef      	bne.n	400498 <board_init+0x60>
  4004b8:	f3bf 8f4f 	dsb	sy
    __DSB();

    SCB->CCR |=  SCB_CCR_DC_Msk;            // enable D-Cache
  4004bc:	4b80      	ldr	r3, [pc, #512]	; (4006c0 <board_init+0x288>)
  4004be:	695a      	ldr	r2, [r3, #20]
  4004c0:	f442 3280 	orr.w	r2, r2, #65536	; 0x10000
  4004c4:	615a      	str	r2, [r3, #20]
  4004c6:	f3bf 8f4f 	dsb	sy
  __ASM volatile ("isb");
  4004ca:	f3bf 8f6f 	isb	sy
		*dst++ = *src++;
	}
#endif
#else
	/* TCM Configuration */
	EFC->EEFC_FCR = (EEFC_FCR_FKEY_PASSWD | EEFC_FCR_FCMD_CGPB 
  4004ce:	4a7d      	ldr	r2, [pc, #500]	; (4006c4 <board_init+0x28c>)
  4004d0:	497d      	ldr	r1, [pc, #500]	; (4006c8 <board_init+0x290>)
  4004d2:	6051      	str	r1, [r2, #4]
					| EEFC_FCR_FARG(8));
	EFC->EEFC_FCR = (EEFC_FCR_FKEY_PASSWD | EEFC_FCR_FCMD_CGPB 
  4004d4:	f5a1 7180 	sub.w	r1, r1, #256	; 0x100
  4004d8:	6051      	str	r1, [r2, #4]
  __ASM volatile ("dsb");
  4004da:	f3bf 8f4f 	dsb	sy
  __ASM volatile ("isb");
  4004de:	f3bf 8f6f 	isb	sy
	SCB->ITCMCR &= ~(uint32_t)(1UL);
  4004e2:	f8d3 2290 	ldr.w	r2, [r3, #656]	; 0x290
  4004e6:	f022 0201 	bic.w	r2, r2, #1
  4004ea:	f8c3 2290 	str.w	r2, [r3, #656]	; 0x290
	SCB->DTCMCR &= ~(uint32_t)SCB_DTCMCR_EN_Msk;
  4004ee:	f8d3 2294 	ldr.w	r2, [r3, #660]	; 0x294
  4004f2:	f022 0201 	bic.w	r2, r2, #1
  4004f6:	f8c3 2294 	str.w	r2, [r3, #660]	; 0x294
  __ASM volatile ("dsb");
  4004fa:	f3bf 8f4f 	dsb	sy
  __ASM volatile ("isb");
  4004fe:	f3bf 8f6f 	isb	sy
 *
 * \param ul_id Id (number) of the peripheral clock.
 */
static inline void sysclk_enable_peripheral_clock(uint32_t ul_id)
{
	pmc_enable_periph_clk(ul_id);
  400502:	200a      	movs	r0, #10
  400504:	4c71      	ldr	r4, [pc, #452]	; (4006cc <board_init+0x294>)
  400506:	47a0      	blx	r4
  400508:	200b      	movs	r0, #11
  40050a:	47a0      	blx	r4
  40050c:	200c      	movs	r0, #12
  40050e:	47a0      	blx	r4
  400510:	2010      	movs	r0, #16
  400512:	47a0      	blx	r4
  400514:	2011      	movs	r0, #17
  400516:	47a0      	blx	r4
		enum ioport_direction dir)
{
	Pio *base = arch_ioport_pin_to_base(pin);

	if (dir == IOPORT_DIR_OUTPUT) {
		base->PIO_OER = arch_ioport_pin_to_mask(pin);
  400518:	4e6d      	ldr	r6, [pc, #436]	; (4006d0 <board_init+0x298>)
  40051a:	f44f 7880 	mov.w	r8, #256	; 0x100
  40051e:	f8c6 8010 	str.w	r8, [r6, #16]
	} else if (dir == IOPORT_DIR_INPUT) {
		base->PIO_ODR = arch_ioport_pin_to_mask(pin);
	}

	base->PIO_OWER = arch_ioport_pin_to_mask(pin);
  400522:	f8c6 80a0 	str.w	r8, [r6, #160]	; 0xa0
		bool level)
{
	Pio *base = arch_ioport_pin_to_base(pin);

	if (level) {
		base->PIO_SODR = arch_ioport_pin_to_mask(pin);
  400526:	f8c6 8030 	str.w	r8, [r6, #48]	; 0x30
		base->PIO_ODR = arch_ioport_pin_to_mask(pin);
  40052a:	4c6a      	ldr	r4, [pc, #424]	; (4006d4 <board_init+0x29c>)
  40052c:	f44f 6500 	mov.w	r5, #2048	; 0x800
  400530:	6165      	str	r5, [r4, #20]
	base->PIO_OWER = arch_ioport_pin_to_mask(pin);
  400532:	f8c4 50a0 	str.w	r5, [r4, #160]	; 0xa0
		base->PIO_PUER = mask;
  400536:	6665      	str	r5, [r4, #100]	; 0x64
		base->PIO_PPDDR = mask;
  400538:	f8c4 5090 	str.w	r5, [r4, #144]	; 0x90
		base->PIO_MDDR = mask;
  40053c:	6565      	str	r5, [r4, #84]	; 0x54
		base->PIO_IFER = mask;
  40053e:	6225      	str	r5, [r4, #32]
		base->PIO_IFSCER = mask;
  400540:	f8c4 5084 	str.w	r5, [r4, #132]	; 0x84
		base->PIO_ABCDSR[0] &= ~mask;
  400544:	6f23      	ldr	r3, [r4, #112]	; 0x70
  400546:	f423 6300 	bic.w	r3, r3, #2048	; 0x800
  40054a:	6723      	str	r3, [r4, #112]	; 0x70
		base->PIO_ABCDSR[1] &= ~mask;
  40054c:	6f63      	ldr	r3, [r4, #116]	; 0x74
  40054e:	f423 6300 	bic.w	r3, r3, #2048	; 0x800
  400552:	6763      	str	r3, [r4, #116]	; 0x74
	case IOPORT_SENSE_FALLING:
		base->PIO_ESR = mask;
		base->PIO_FELLSR = mask;
		break;
	case IOPORT_SENSE_RISING:
		base->PIO_ESR = mask;
  400554:	f8c4 50c0 	str.w	r5, [r4, #192]	; 0xc0
		base->PIO_REHLSR = mask;
  400558:	f8c4 50d4 	str.w	r5, [r4, #212]	; 0xd4
		break;
	default:
		base->PIO_AIMDR = mask;
		return;
	}
	base->PIO_AIMER = mask;
  40055c:	f8c4 50b0 	str.w	r5, [r4, #176]	; 0xb0
		base->PIO_PUDR = mask;
  400560:	f44f 1300 	mov.w	r3, #2097152	; 0x200000
  400564:	6623      	str	r3, [r4, #96]	; 0x60
		base->PIO_PPDDR = mask;
  400566:	f8c4 3090 	str.w	r3, [r4, #144]	; 0x90
		base->PIO_MDDR = mask;
  40056a:	6563      	str	r3, [r4, #84]	; 0x54
		base->PIO_IFDR = mask;
  40056c:	6263      	str	r3, [r4, #36]	; 0x24
		base->PIO_IFSCDR = mask;
  40056e:	f8c4 3080 	str.w	r3, [r4, #128]	; 0x80
		base->PIO_ABCDSR[0] &= ~mask;
  400572:	6f22      	ldr	r2, [r4, #112]	; 0x70
  400574:	f422 1200 	bic.w	r2, r2, #2097152	; 0x200000
  400578:	6722      	str	r2, [r4, #112]	; 0x70
		base->PIO_ABCDSR[1] &= ~mask;
  40057a:	6f62      	ldr	r2, [r4, #116]	; 0x74
  40057c:	f422 1200 	bic.w	r2, r2, #2097152	; 0x200000
  400580:	6762      	str	r2, [r4, #116]	; 0x74
	arch_ioport_port_to_base(port)->PIO_PDR = mask;
  400582:	6063      	str	r3, [r4, #4]
			GPIO_PUSH_BUTTON_1_SENSE);

#ifdef CONF_BOARD_UART_CONSOLE
	/* Configure UART pins */
	ioport_set_pin_peripheral_mode(USART1_RXD_GPIO, USART1_RXD_FLAGS);
	MATRIX->CCFG_SYSIO |= CCFG_SYSIO_SYSIO4;
  400584:	4a54      	ldr	r2, [pc, #336]	; (4006d8 <board_init+0x2a0>)
  400586:	f8d2 3114 	ldr.w	r3, [r2, #276]	; 0x114
  40058a:	f043 0310 	orr.w	r3, r3, #16
  40058e:	f8c2 3114 	str.w	r3, [r2, #276]	; 0x114
		base->PIO_PUDR = mask;
  400592:	f502 22b2 	add.w	r2, r2, #364544	; 0x59000
  400596:	2310      	movs	r3, #16
  400598:	6613      	str	r3, [r2, #96]	; 0x60
		base->PIO_PPDDR = mask;
  40059a:	f8c2 3090 	str.w	r3, [r2, #144]	; 0x90
		base->PIO_MDDR = mask;
  40059e:	6553      	str	r3, [r2, #84]	; 0x54
		base->PIO_IFDR = mask;
  4005a0:	6253      	str	r3, [r2, #36]	; 0x24
		base->PIO_IFSCDR = mask;
  4005a2:	f8c2 3080 	str.w	r3, [r2, #128]	; 0x80
		base->PIO_ABCDSR[0] |= mask;
  4005a6:	6f11      	ldr	r1, [r2, #112]	; 0x70
  4005a8:	4319      	orrs	r1, r3
  4005aa:	6711      	str	r1, [r2, #112]	; 0x70
		base->PIO_ABCDSR[1] |= mask;
  4005ac:	6f51      	ldr	r1, [r2, #116]	; 0x74
  4005ae:	4319      	orrs	r1, r3
  4005b0:	6751      	str	r1, [r2, #116]	; 0x74
	arch_ioport_port_to_base(port)->PIO_PDR = mask;
  4005b2:	6053      	str	r3, [r2, #4]
		base->PIO_PUDR = mask;
  4005b4:	2208      	movs	r2, #8
  4005b6:	6622      	str	r2, [r4, #96]	; 0x60
		base->PIO_PPDDR = mask;
  4005b8:	f8c4 2090 	str.w	r2, [r4, #144]	; 0x90
		base->PIO_MDDR = mask;
  4005bc:	6562      	str	r2, [r4, #84]	; 0x54
		base->PIO_IFDR = mask;
  4005be:	6262      	str	r2, [r4, #36]	; 0x24
		base->PIO_IFSCDR = mask;
  4005c0:	f8c4 2080 	str.w	r2, [r4, #128]	; 0x80
		base->PIO_ABCDSR[0] &= ~mask;
  4005c4:	6f21      	ldr	r1, [r4, #112]	; 0x70
  4005c6:	f021 0108 	bic.w	r1, r1, #8
  4005ca:	6721      	str	r1, [r4, #112]	; 0x70
		base->PIO_ABCDSR[1] &= ~mask;
  4005cc:	6f61      	ldr	r1, [r4, #116]	; 0x74
  4005ce:	f021 0108 	bic.w	r1, r1, #8
  4005d2:	6761      	str	r1, [r4, #116]	; 0x74
	arch_ioport_port_to_base(port)->PIO_PDR = mask;
  4005d4:	6062      	str	r2, [r4, #4]
		base->PIO_PUDR = mask;
  4005d6:	6623      	str	r3, [r4, #96]	; 0x60
		base->PIO_PPDDR = mask;
  4005d8:	f8c4 3090 	str.w	r3, [r4, #144]	; 0x90
		base->PIO_MDDR = mask;
  4005dc:	6563      	str	r3, [r4, #84]	; 0x54
		base->PIO_IFDR = mask;
  4005de:	6263      	str	r3, [r4, #36]	; 0x24
		base->PIO_IFSCDR = mask;
  4005e0:	f8c4 3080 	str.w	r3, [r4, #128]	; 0x80
		base->PIO_ABCDSR[0] &= ~mask;
  4005e4:	6f22      	ldr	r2, [r4, #112]	; 0x70
  4005e6:	f022 0210 	bic.w	r2, r2, #16
  4005ea:	6722      	str	r2, [r4, #112]	; 0x70
		base->PIO_ABCDSR[1] &= ~mask;
  4005ec:	6f62      	ldr	r2, [r4, #116]	; 0x74
  4005ee:	f022 0210 	bic.w	r2, r2, #16
  4005f2:	6762      	str	r2, [r4, #116]	; 0x74
	arch_ioport_port_to_base(port)->PIO_PDR = mask;
  4005f4:	6063      	str	r3, [r4, #4]
	ioport_set_pin_mode(SD_MMC_0_CD_GPIO, SD_MMC_0_CD_FLAGS);
#endif

#ifdef CONF_BOARD_ILI9488
	/**LCD pin configure on EBI*/
	pio_configure(PIN_EBI_RESET_PIO, PIN_EBI_RESET_TYPE, PIN_EBI_RESET_MASK, PIN_EBI_RESET_ATTRI);
  4005f6:	2300      	movs	r3, #0
  4005f8:	f44f 5200 	mov.w	r2, #8192	; 0x2000
  4005fc:	f04f 5160 	mov.w	r1, #939524096	; 0x38000000
  400600:	4630      	mov	r0, r6
  400602:	4f36      	ldr	r7, [pc, #216]	; (4006dc <board_init+0x2a4>)
  400604:	47b8      	blx	r7
	pio_configure(PIN_EBI_CDS_PIO, PIN_EBI_CDS_TYPE, PIN_EBI_CDS_MASK, PIN_EBI_CDS_ATTRI);
  400606:	2300      	movs	r3, #0
  400608:	f04f 4280 	mov.w	r2, #1073741824	; 0x40000000
  40060c:	f04f 5160 	mov.w	r1, #939524096	; 0x38000000
  400610:	4630      	mov	r0, r6
  400612:	47b8      	blx	r7
	pio_configure(PIN_EBI_DATAL_PIO, PIN_EBI_DATAL_TYPE, PIN_EBI_DATAL_MASK, PIN_EBI_DATAL_ATTRI);
  400614:	2301      	movs	r3, #1
  400616:	22ff      	movs	r2, #255	; 0xff
  400618:	f04f 6100 	mov.w	r1, #134217728	; 0x8000000
  40061c:	4630      	mov	r0, r6
  40061e:	47b8      	blx	r7
	pio_configure(PIN_EBI_DATAH_0_PIO, PIN_EBI_DATAH_0_TYPE, PIN_EBI_DATAH_0_MASK, PIN_EBI_DATAH_0_ATTRI);
  400620:	2301      	movs	r3, #1
  400622:	223f      	movs	r2, #63	; 0x3f
  400624:	f04f 6100 	mov.w	r1, #134217728	; 0x8000000
  400628:	482d      	ldr	r0, [pc, #180]	; (4006e0 <board_init+0x2a8>)
  40062a:	47b8      	blx	r7
	pio_configure(PIN_EBI_DATAH_1_PIO, PIN_EBI_DATAH_1_TYPE, PIN_EBI_DATAH_1_MASK, PIN_EBI_DATAH_1_ATTRI);
  40062c:	2301      	movs	r3, #1
  40062e:	f44f 32c0 	mov.w	r2, #98304	; 0x18000
  400632:	f04f 6100 	mov.w	r1, #134217728	; 0x8000000
  400636:	4620      	mov	r0, r4
  400638:	47b8      	blx	r7
	pio_configure(PIN_EBI_NWE_PIO, PIN_EBI_NWE_TYPE, PIN_EBI_NWE_MASK, PIN_EBI_NWE_ATTRI);
  40063a:	2301      	movs	r3, #1
  40063c:	4642      	mov	r2, r8
  40063e:	f04f 6100 	mov.w	r1, #134217728	; 0x8000000
  400642:	4630      	mov	r0, r6
  400644:	47b8      	blx	r7
	pio_configure(PIN_EBI_NRD_PIO, PIN_EBI_NRD_TYPE, PIN_EBI_NRD_MASK, PIN_EBI_NRD_ATTRI);
  400646:	2301      	movs	r3, #1
  400648:	462a      	mov	r2, r5
  40064a:	f04f 6100 	mov.w	r1, #134217728	; 0x8000000
  40064e:	4630      	mov	r0, r6
  400650:	47b8      	blx	r7
	pio_configure(PIN_EBI_CS_PIO, PIN_EBI_CS_TYPE, PIN_EBI_CS_MASK, PIN_EBI_CS_ATTRI);
  400652:	2301      	movs	r3, #1
  400654:	f44f 2200 	mov.w	r2, #524288	; 0x80000
  400658:	f04f 6100 	mov.w	r1, #134217728	; 0x8000000
  40065c:	4821      	ldr	r0, [pc, #132]	; (4006e4 <board_init+0x2ac>)
  40065e:	47b8      	blx	r7
	pio_configure(PIN_EBI_BACKLIGHT_PIO, PIN_EBI_BACKLIGHT_TYPE, PIN_EBI_BACKLIGHT_MASK, PIN_EBI_BACKLIGHT_ATTRI);
  400660:	2300      	movs	r3, #0
  400662:	f44f 7200 	mov.w	r2, #512	; 0x200
  400666:	f04f 5180 	mov.w	r1, #268435456	; 0x10000000
  40066a:	4630      	mov	r0, r6
  40066c:	47b8      	blx	r7
	pio_set(PIN_EBI_BACKLIGHT_PIO, PIN_EBI_BACKLIGHT_MASK);
  40066e:	f44f 7100 	mov.w	r1, #512	; 0x200
  400672:	4630      	mov	r0, r6
  400674:	4b1c      	ldr	r3, [pc, #112]	; (4006e8 <board_init+0x2b0>)
  400676:	4798      	blx	r3
	MATRIX->CCFG_SMCNFCS = CCFG_SMCNFCS_SDRAMEN;
#endif

#ifdef CONF_BOARD_ILI9488
	/**LCD pin configure on SPI*/
	pio_configure_pin(LCD_SPI_MISO_PIO, LCD_SPI_MISO_FLAGS);
  400678:	f04f 5180 	mov.w	r1, #268435456	; 0x10000000
  40067c:	2074      	movs	r0, #116	; 0x74
  40067e:	4c1b      	ldr	r4, [pc, #108]	; (4006ec <board_init+0x2b4>)
  400680:	47a0      	blx	r4
	pio_configure_pin(LCD_SPI_MOSI_PIO, LCD_SPI_MOSI_FLAGS);
  400682:	f04f 5180 	mov.w	r1, #268435456	; 0x10000000
  400686:	2075      	movs	r0, #117	; 0x75
  400688:	47a0      	blx	r4
	pio_configure_pin(LCD_SPI_SPCK_PIO, LCD_SPI_SPCK_FLAGS);
  40068a:	f04f 5180 	mov.w	r1, #268435456	; 0x10000000
  40068e:	2076      	movs	r0, #118	; 0x76
  400690:	47a0      	blx	r4
	pio_configure_pin(LCD_SPI_NPCS_PIO, LCD_SPI_NPCS_FLAGS);
  400692:	f04f 5180 	mov.w	r1, #268435456	; 0x10000000
  400696:	207b      	movs	r0, #123	; 0x7b
  400698:	47a0      	blx	r4
	pio_configure_pin(LCD_SPI_RESET_PIO, LCD_SPI_RESET_FLAGS);
  40069a:	f04f 5160 	mov.w	r1, #939524096	; 0x38000000
  40069e:	2018      	movs	r0, #24
  4006a0:	47a0      	blx	r4
	pio_configure_pin(LCD_SPI_CDS_PIO, LCD_SPI_CDS_FLAGS);
  4006a2:	f04f 5160 	mov.w	r1, #939524096	; 0x38000000
  4006a6:	2006      	movs	r0, #6
  4006a8:	47a0      	blx	r4
	pio_configure_pin(LCD_SPI_BACKLIGHT_PIO, LCD_SPI_BACKLIGHT_FLAGS);
  4006aa:	f04f 5160 	mov.w	r1, #939524096	; 0x38000000
  4006ae:	2053      	movs	r0, #83	; 0x53
  4006b0:	47a0      	blx	r4
	pio_set_pin_high(LCD_SPI_BACKLIGHT_PIO);
  4006b2:	2053      	movs	r0, #83	; 0x53
  4006b4:	4b0e      	ldr	r3, [pc, #56]	; (4006f0 <board_init+0x2b8>)
  4006b6:	4798      	blx	r3
  4006b8:	e8bd 81f0 	ldmia.w	sp!, {r4, r5, r6, r7, r8, pc}
  4006bc:	400e1850 	.word	0x400e1850
  4006c0:	e000ed00 	.word	0xe000ed00
  4006c4:	400e0c00 	.word	0x400e0c00
  4006c8:	5a00080c 	.word	0x5a00080c
  4006cc:	00401251 	.word	0x00401251
  4006d0:	400e1200 	.word	0x400e1200
  4006d4:	400e0e00 	.word	0x400e0e00
  4006d8:	40088000 	.word	0x40088000
  4006dc:	00400e7d 	.word	0x00400e7d
  4006e0:	400e1600 	.word	0x400e1600
  4006e4:	400e1400 	.word	0x400e1400
  4006e8:	00400d89 	.word	0x00400d89
  4006ec:	00400f4d 	.word	0x00400f4d
  4006f0:	00400f15 	.word	0x00400f15

004006f4 <ili9488_check_box_coordinates>:
 * \param p_ul_x2 X coordinate of lower-right corner on LCD.
 * \param p_ul_y2 Y coordinate of lower-right corner on LCD.
 */
static void ili9488_check_box_coordinates(uint32_t *p_ul_x1, uint32_t *p_ul_y1,
		uint32_t *p_ul_x2, uint32_t *p_ul_y2)
{
  4006f4:	b430      	push	{r4, r5}
	uint32_t dw;

	if (*p_ul_x1 >= ILI9488_LCD_WIDTH) {
  4006f6:	6804      	ldr	r4, [r0, #0]
  4006f8:	f5b4 7fa0 	cmp.w	r4, #320	; 0x140
  4006fc:	d302      	bcc.n	400704 <ili9488_check_box_coordinates+0x10>
		*p_ul_x1 = ILI9488_LCD_WIDTH - 1;
  4006fe:	f240 143f 	movw	r4, #319	; 0x13f
  400702:	6004      	str	r4, [r0, #0]
	}

	if (*p_ul_x2 >= ILI9488_LCD_WIDTH) {
  400704:	6814      	ldr	r4, [r2, #0]
  400706:	f5b4 7fa0 	cmp.w	r4, #320	; 0x140
  40070a:	d302      	bcc.n	400712 <ili9488_check_box_coordinates+0x1e>
		*p_ul_x2 = ILI9488_LCD_WIDTH - 1;
  40070c:	f240 143f 	movw	r4, #319	; 0x13f
  400710:	6014      	str	r4, [r2, #0]
	}

	if (*p_ul_y1 >= ILI9488_LCD_HEIGHT) {
  400712:	680c      	ldr	r4, [r1, #0]
  400714:	f5b4 7ff0 	cmp.w	r4, #480	; 0x1e0
  400718:	d302      	bcc.n	400720 <ili9488_check_box_coordinates+0x2c>
		*p_ul_y1 = ILI9488_LCD_HEIGHT - 1;
  40071a:	f240 14df 	movw	r4, #479	; 0x1df
  40071e:	600c      	str	r4, [r1, #0]
	}

	if (*p_ul_y2 >= ILI9488_LCD_HEIGHT) {
  400720:	681c      	ldr	r4, [r3, #0]
  400722:	f5b4 7ff0 	cmp.w	r4, #480	; 0x1e0
  400726:	d302      	bcc.n	40072e <ili9488_check_box_coordinates+0x3a>
		*p_ul_y2 = ILI9488_LCD_HEIGHT - 1;
  400728:	f240 14df 	movw	r4, #479	; 0x1df
  40072c:	601c      	str	r4, [r3, #0]
	}

	if (*p_ul_x1 > *p_ul_x2) {
  40072e:	6804      	ldr	r4, [r0, #0]
  400730:	6815      	ldr	r5, [r2, #0]
  400732:	42ac      	cmp	r4, r5
  400734:	d901      	bls.n	40073a <ili9488_check_box_coordinates+0x46>
		dw = *p_ul_x1;
		*p_ul_x1 = *p_ul_x2;
  400736:	6005      	str	r5, [r0, #0]
		*p_ul_x2 = dw;
  400738:	6014      	str	r4, [r2, #0]
	}

	if (*p_ul_y1 > *p_ul_y2) {
  40073a:	680a      	ldr	r2, [r1, #0]
  40073c:	6818      	ldr	r0, [r3, #0]
  40073e:	4282      	cmp	r2, r0
  400740:	d901      	bls.n	400746 <ili9488_check_box_coordinates+0x52>
		dw = *p_ul_y1;
		*p_ul_y1 = *p_ul_y2;
  400742:	6008      	str	r0, [r1, #0]
		*p_ul_y2 = dw;
  400744:	601a      	str	r2, [r3, #0]
	}
}
  400746:	bc30      	pop	{r4, r5}
  400748:	4770      	bx	lr
	...

0040074c <ili9488_write_ram_prepare>:
{
  40074c:	b510      	push	{r4, lr}
  40074e:	b082      	sub	sp, #8
	pio_set_pin_low(LCD_SPI_CDS_PIO);
  400750:	2006      	movs	r0, #6
  400752:	4b0a      	ldr	r3, [pc, #40]	; (40077c <ili9488_write_ram_prepare+0x30>)
  400754:	4798      	blx	r3
	spi_write(BOARD_ILI9488_SPI, ILI9488_CMD_MEMORY_WRITE, BOARD_ILI9488_SPI_NPCS, 0);
  400756:	2300      	movs	r3, #0
  400758:	2203      	movs	r2, #3
  40075a:	212c      	movs	r1, #44	; 0x2c
  40075c:	4808      	ldr	r0, [pc, #32]	; (400780 <ili9488_write_ram_prepare+0x34>)
  40075e:	4c09      	ldr	r4, [pc, #36]	; (400784 <ili9488_write_ram_prepare+0x38>)
  400760:	47a0      	blx	r4
	for(i = 0; i < 0xFF; i++);
  400762:	2300      	movs	r3, #0
  400764:	9301      	str	r3, [sp, #4]
  400766:	9b01      	ldr	r3, [sp, #4]
  400768:	2bfe      	cmp	r3, #254	; 0xfe
  40076a:	d805      	bhi.n	400778 <ili9488_write_ram_prepare+0x2c>
  40076c:	9b01      	ldr	r3, [sp, #4]
  40076e:	3301      	adds	r3, #1
  400770:	9301      	str	r3, [sp, #4]
  400772:	9b01      	ldr	r3, [sp, #4]
  400774:	2bfe      	cmp	r3, #254	; 0xfe
  400776:	d9f9      	bls.n	40076c <ili9488_write_ram_prepare+0x20>
}
  400778:	b002      	add	sp, #8
  40077a:	bd10      	pop	{r4, pc}
  40077c:	00400f31 	.word	0x00400f31
  400780:	40008000 	.word	0x40008000
  400784:	004012f9 	.word	0x004012f9

00400788 <ili9488_write_register>:
{
  400788:	b570      	push	{r4, r5, r6, lr}
  40078a:	b082      	sub	sp, #8
  40078c:	4605      	mov	r5, r0
  40078e:	460e      	mov	r6, r1
  400790:	4614      	mov	r4, r2
	pio_set_pin_low(LCD_SPI_CDS_PIO);
  400792:	2006      	movs	r0, #6
  400794:	4b14      	ldr	r3, [pc, #80]	; (4007e8 <ili9488_write_register+0x60>)
  400796:	4798      	blx	r3
	spi_write(BOARD_ILI9488_SPI, uc_reg, BOARD_ILI9488_SPI_NPCS, 0);
  400798:	2300      	movs	r3, #0
  40079a:	2203      	movs	r2, #3
  40079c:	4629      	mov	r1, r5
  40079e:	4813      	ldr	r0, [pc, #76]	; (4007ec <ili9488_write_register+0x64>)
  4007a0:	4d13      	ldr	r5, [pc, #76]	; (4007f0 <ili9488_write_register+0x68>)
  4007a2:	47a8      	blx	r5
	for(i = 0; i < 0xFF; i++);
  4007a4:	2300      	movs	r3, #0
  4007a6:	9301      	str	r3, [sp, #4]
  4007a8:	9b01      	ldr	r3, [sp, #4]
  4007aa:	2bfe      	cmp	r3, #254	; 0xfe
  4007ac:	d805      	bhi.n	4007ba <ili9488_write_register+0x32>
  4007ae:	9b01      	ldr	r3, [sp, #4]
  4007b0:	3301      	adds	r3, #1
  4007b2:	9301      	str	r3, [sp, #4]
  4007b4:	9b01      	ldr	r3, [sp, #4]
  4007b6:	2bfe      	cmp	r3, #254	; 0xfe
  4007b8:	d9f9      	bls.n	4007ae <ili9488_write_register+0x26>
	if(size > 0) {
  4007ba:	b90c      	cbnz	r4, 4007c0 <ili9488_write_register+0x38>
}
  4007bc:	b002      	add	sp, #8
  4007be:	bd70      	pop	{r4, r5, r6, pc}
		pio_set_pin_high(LCD_SPI_CDS_PIO);
  4007c0:	2006      	movs	r0, #6
  4007c2:	4b0c      	ldr	r3, [pc, #48]	; (4007f4 <ili9488_write_register+0x6c>)
  4007c4:	4798      	blx	r3
		spi_write_packet(BOARD_ILI9488_SPI, us_data, size);
  4007c6:	4622      	mov	r2, r4
  4007c8:	4631      	mov	r1, r6
  4007ca:	4808      	ldr	r0, [pc, #32]	; (4007ec <ili9488_write_register+0x64>)
  4007cc:	4b0a      	ldr	r3, [pc, #40]	; (4007f8 <ili9488_write_register+0x70>)
  4007ce:	4798      	blx	r3
		for(i = 0; i < 0x5F; i++);
  4007d0:	2300      	movs	r3, #0
  4007d2:	9301      	str	r3, [sp, #4]
  4007d4:	9b01      	ldr	r3, [sp, #4]
  4007d6:	2b5e      	cmp	r3, #94	; 0x5e
  4007d8:	d8f0      	bhi.n	4007bc <ili9488_write_register+0x34>
  4007da:	9b01      	ldr	r3, [sp, #4]
  4007dc:	3301      	adds	r3, #1
  4007de:	9301      	str	r3, [sp, #4]
  4007e0:	9b01      	ldr	r3, [sp, #4]
  4007e2:	2b5e      	cmp	r3, #94	; 0x5e
  4007e4:	d9f9      	bls.n	4007da <ili9488_write_register+0x52>
  4007e6:	e7e9      	b.n	4007bc <ili9488_write_register+0x34>
  4007e8:	00400f31 	.word	0x00400f31
  4007ec:	40008000 	.word	0x40008000
  4007f0:	004012f9 	.word	0x004012f9
  4007f4:	00400f15 	.word	0x00400f15
  4007f8:	00400321 	.word	0x00400321

004007fc <ili9488_write_ram_buffer>:
{
  4007fc:	b530      	push	{r4, r5, lr}
  4007fe:	b083      	sub	sp, #12
  400800:	4604      	mov	r4, r0
  400802:	460d      	mov	r5, r1
	pio_set_pin_high(LCD_SPI_CDS_PIO);
  400804:	2006      	movs	r0, #6
  400806:	4b0a      	ldr	r3, [pc, #40]	; (400830 <ili9488_write_ram_buffer+0x34>)
  400808:	4798      	blx	r3
	spi_write_packet(BOARD_ILI9488_SPI, p_ul_buf, ul_size);
  40080a:	462a      	mov	r2, r5
  40080c:	4621      	mov	r1, r4
  40080e:	4809      	ldr	r0, [pc, #36]	; (400834 <ili9488_write_ram_buffer+0x38>)
  400810:	4b09      	ldr	r3, [pc, #36]	; (400838 <ili9488_write_ram_buffer+0x3c>)
  400812:	4798      	blx	r3
	for(i = 0; i < 0xFF; i++);
  400814:	2300      	movs	r3, #0
  400816:	9301      	str	r3, [sp, #4]
  400818:	9b01      	ldr	r3, [sp, #4]
  40081a:	2bfe      	cmp	r3, #254	; 0xfe
  40081c:	d805      	bhi.n	40082a <ili9488_write_ram_buffer+0x2e>
  40081e:	9b01      	ldr	r3, [sp, #4]
  400820:	3301      	adds	r3, #1
  400822:	9301      	str	r3, [sp, #4]
  400824:	9b01      	ldr	r3, [sp, #4]
  400826:	2bfe      	cmp	r3, #254	; 0xfe
  400828:	d9f9      	bls.n	40081e <ili9488_write_ram_buffer+0x22>
}
  40082a:	b003      	add	sp, #12
  40082c:	bd30      	pop	{r4, r5, pc}
  40082e:	bf00      	nop
  400830:	00400f15 	.word	0x00400f15
  400834:	40008000 	.word	0x40008000
  400838:	00400321 	.word	0x00400321

0040083c <ili9488_delay>:
	for(i = 0; i < ul_ms; i++) {
  40083c:	4601      	mov	r1, r0
  40083e:	b130      	cbz	r0, 40084e <ili9488_delay+0x12>
  400840:	4a03      	ldr	r2, [pc, #12]	; (400850 <ili9488_delay+0x14>)
{
  400842:	4b04      	ldr	r3, [pc, #16]	; (400854 <ili9488_delay+0x18>)
		for(i = 0; i < 100000; i++) {
  400844:	3b01      	subs	r3, #1
  400846:	d1fd      	bne.n	400844 <ili9488_delay+0x8>
	for(i = 0; i < ul_ms; i++) {
  400848:	4291      	cmp	r1, r2
  40084a:	d8fa      	bhi.n	400842 <ili9488_delay+0x6>
  40084c:	4770      	bx	lr
  40084e:	4770      	bx	lr
  400850:	000186a1 	.word	0x000186a1
  400854:	000186a0 	.word	0x000186a0

00400858 <ili9488_set_display_direction>:
 * \brief ILI9488 configure landscape.
 *
 * \Param LandscaprMode Landscape Mode.
 */
void ili9488_set_display_direction(enum ili9488_display_direction direction )
{
  400858:	b500      	push	{lr}
  40085a:	b083      	sub	sp, #12
	ili9488_color_t value;
	if(direction) {
  40085c:	b958      	cbnz	r0, 400876 <ili9488_set_display_direction+0x1e>
		value = 0xE8;
	} else {
		value = 0x48;
  40085e:	2348      	movs	r3, #72	; 0x48
  400860:	f88d 3007 	strb.w	r3, [sp, #7]
	}
	ili9488_write_register(ILI9488_CMD_MEMORY_ACCESS_CONTROL, &value, 1);
  400864:	2201      	movs	r2, #1
  400866:	f10d 0107 	add.w	r1, sp, #7
  40086a:	2036      	movs	r0, #54	; 0x36
  40086c:	4b04      	ldr	r3, [pc, #16]	; (400880 <ili9488_set_display_direction+0x28>)
  40086e:	4798      	blx	r3
}
  400870:	b003      	add	sp, #12
  400872:	f85d fb04 	ldr.w	pc, [sp], #4
		value = 0xE8;
  400876:	23e8      	movs	r3, #232	; 0xe8
  400878:	f88d 3007 	strb.w	r3, [sp, #7]
  40087c:	e7f2      	b.n	400864 <ili9488_set_display_direction+0xc>
  40087e:	bf00      	nop
  400880:	00400789 	.word	0x00400789

00400884 <ili9488_set_window>:
 * \Param y start position.
 * \Param width  Width of window.
 * \Param height Height of window.
 */
void ili9488_set_window(uint16_t x, uint16_t y, uint16_t width, uint16_t height )
{
  400884:	b510      	push	{r4, lr}
  400886:	b084      	sub	sp, #16
	uint32_t cnt = 0;
	ili9488_color_t buf[4];

	cnt = sizeof(buf)/sizeof(ili9488_color_t);

	col_start  =  x ;
  400888:	f8ad 000e 	strh.w	r0, [sp, #14]
	col_end    =  width + x - 1;
  40088c:	3a01      	subs	r2, #1
  40088e:	4402      	add	r2, r0
  400890:	f8ad 200c 	strh.w	r2, [sp, #12]

	row_start = y ;
  400894:	f8ad 100a 	strh.w	r1, [sp, #10]
	row_end   = height + y - 1;
  400898:	3b01      	subs	r3, #1
  40089a:	4419      	add	r1, r3
  40089c:	f8ad 1008 	strh.w	r1, [sp, #8]

	buf[0] = get_8b_to_16b(col_start);
  4008a0:	0a03      	lsrs	r3, r0, #8
  4008a2:	f88d 3004 	strb.w	r3, [sp, #4]
	buf[1] = get_0b_to_8b(col_start);
  4008a6:	f88d 0005 	strb.w	r0, [sp, #5]
	buf[2] = get_8b_to_16b(col_end);
  4008aa:	f3c2 2307 	ubfx	r3, r2, #8, #8
  4008ae:	f88d 3006 	strb.w	r3, [sp, #6]
	buf[3] = get_0b_to_8b(col_end);
  4008b2:	f88d 2007 	strb.w	r2, [sp, #7]
	ili9488_write_register(ILI9488_CMD_COLUMN_ADDRESS_SET, buf, cnt);
  4008b6:	2204      	movs	r2, #4
  4008b8:	eb0d 0102 	add.w	r1, sp, r2
  4008bc:	202a      	movs	r0, #42	; 0x2a
  4008be:	4c10      	ldr	r4, [pc, #64]	; (400900 <ili9488_set_window+0x7c>)
  4008c0:	47a0      	blx	r4
	ili9488_write_register(ILI9488_CMD_NOP, 0, 0);
  4008c2:	2200      	movs	r2, #0
  4008c4:	4611      	mov	r1, r2
  4008c6:	4610      	mov	r0, r2
  4008c8:	47a0      	blx	r4

	/* Set Horizontal Address End Position */
	buf[0] = get_8b_to_16b(row_start);
  4008ca:	f89d 300b 	ldrb.w	r3, [sp, #11]
  4008ce:	f88d 3004 	strb.w	r3, [sp, #4]
	buf[1] = get_0b_to_8b(row_start);
  4008d2:	f89d 300a 	ldrb.w	r3, [sp, #10]
  4008d6:	f88d 3005 	strb.w	r3, [sp, #5]
	buf[2] = get_8b_to_16b(row_end);
  4008da:	f89d 3009 	ldrb.w	r3, [sp, #9]
  4008de:	f88d 3006 	strb.w	r3, [sp, #6]
	buf[3] = get_0b_to_8b(row_end);
  4008e2:	f89d 3008 	ldrb.w	r3, [sp, #8]
  4008e6:	f88d 3007 	strb.w	r3, [sp, #7]
	ili9488_write_register(ILI9488_CMD_PAGE_ADDRESS_SET, buf, cnt);
  4008ea:	2204      	movs	r2, #4
  4008ec:	eb0d 0102 	add.w	r1, sp, r2
  4008f0:	202b      	movs	r0, #43	; 0x2b
  4008f2:	47a0      	blx	r4
	ili9488_write_register(ILI9488_CMD_NOP, 0, 0);
  4008f4:	2200      	movs	r2, #0
  4008f6:	4611      	mov	r1, r2
  4008f8:	4610      	mov	r0, r2
  4008fa:	47a0      	blx	r4
}
  4008fc:	b004      	add	sp, #16
  4008fe:	bd10      	pop	{r4, pc}
  400900:	00400789 	.word	0x00400789

00400904 <ili9488_display_on>:

/**
 * \brief Turn on the LCD.
 */
void ili9488_display_on(void)
{
  400904:	b508      	push	{r3, lr}
	ili9488_write_register(ILI9488_CMD_DISPLAY_ON, 0, 0);
  400906:	2200      	movs	r2, #0
  400908:	4611      	mov	r1, r2
  40090a:	2029      	movs	r0, #41	; 0x29
  40090c:	4b01      	ldr	r3, [pc, #4]	; (400914 <ili9488_display_on+0x10>)
  40090e:	4798      	blx	r3
  400910:	bd08      	pop	{r3, pc}
  400912:	bf00      	nop
  400914:	00400789 	.word	0x00400789

00400918 <ili9488_set_foreground_color>:
 * \brief Set foreground color.
 *
 * \param ul_color foreground color.
 */
void ili9488_set_foreground_color(uint32_t ul_color)
{
  400918:	b410      	push	{r4}
		g_ul_pixel_cache[i] = ul_color;
	}
#endif
#ifdef ILI9488_SPIMODE
	for (i = 0; i < LCD_DATA_CACHE_SIZE * LCD_DATA_COLOR_UNIT; ) {
		g_ul_pixel_cache[i++] = ul_color>>16;
  40091a:	f3c0 4407 	ubfx	r4, r0, #16, #8
		g_ul_pixel_cache[i++] = ul_color>>8;
  40091e:	f3c0 2107 	ubfx	r1, r0, #8, #8
  400922:	4b06      	ldr	r3, [pc, #24]	; (40093c <ili9488_set_foreground_color+0x24>)
  400924:	f503 7270 	add.w	r2, r3, #960	; 0x3c0
		g_ul_pixel_cache[i++] = ul_color>>16;
  400928:	701c      	strb	r4, [r3, #0]
		g_ul_pixel_cache[i++] = ul_color>>8;
  40092a:	7059      	strb	r1, [r3, #1]
		g_ul_pixel_cache[i++] = ul_color&0xFF;
  40092c:	7098      	strb	r0, [r3, #2]
  40092e:	3303      	adds	r3, #3
	for (i = 0; i < LCD_DATA_CACHE_SIZE * LCD_DATA_COLOR_UNIT; ) {
  400930:	4293      	cmp	r3, r2
  400932:	d1f9      	bne.n	400928 <ili9488_set_foreground_color+0x10>
	}
#endif
}
  400934:	f85d 4b04 	ldr.w	r4, [sp], #4
  400938:	4770      	bx	lr
  40093a:	bf00      	nop
  40093c:	204009d4 	.word	0x204009d4

00400940 <ili9488_set_cursor_position>:
 *
 * \param x X coordinate of upper-left corner on LCD.
 * \param y Y coordinate of upper-left corner on LCD.
 */
void ili9488_set_cursor_position(uint16_t x, uint16_t y)
{
  400940:	b510      	push	{r4, lr}
  400942:	b084      	sub	sp, #16
  400944:	f8ad 0006 	strh.w	r0, [sp, #6]
  400948:	f8ad 1004 	strh.w	r1, [sp, #4]
	uint32_t cnt = 0;

	ili9488_color_t buf[4];
	cnt = sizeof(buf)/sizeof(ili9488_color_t);

	buf[0] = get_8b_to_16b(x);
  40094c:	0a03      	lsrs	r3, r0, #8
  40094e:	f88d 300c 	strb.w	r3, [sp, #12]
	buf[1] = get_0b_to_8b(x);
  400952:	b2c0      	uxtb	r0, r0
  400954:	f88d 000d 	strb.w	r0, [sp, #13]
	buf[2] = get_8b_to_16b(x);
  400958:	f88d 300e 	strb.w	r3, [sp, #14]
	buf[3] = get_0b_to_8b(x);
  40095c:	f88d 000f 	strb.w	r0, [sp, #15]
	ili9488_write_register(ILI9488_CMD_COLUMN_ADDRESS_SET, buf, cnt);
  400960:	2204      	movs	r2, #4
  400962:	a903      	add	r1, sp, #12
  400964:	202a      	movs	r0, #42	; 0x2a
  400966:	4c0e      	ldr	r4, [pc, #56]	; (4009a0 <ili9488_set_cursor_position+0x60>)
  400968:	47a0      	blx	r4
	ili9488_write_register(ILI9488_CMD_NOP, 0, 0);
  40096a:	2200      	movs	r2, #0
  40096c:	4611      	mov	r1, r2
  40096e:	4610      	mov	r0, r2
  400970:	47a0      	blx	r4


	/* Set Horizontal Address End Position */
	buf[0] = get_8b_to_16b(y);
  400972:	f89d 2005 	ldrb.w	r2, [sp, #5]
  400976:	f88d 200c 	strb.w	r2, [sp, #12]
	buf[1] = get_0b_to_8b(y);
  40097a:	f89d 3004 	ldrb.w	r3, [sp, #4]
  40097e:	f88d 300d 	strb.w	r3, [sp, #13]
	buf[2] = get_8b_to_16b(y);
  400982:	f88d 200e 	strb.w	r2, [sp, #14]
	buf[3] = get_0b_to_8b(y);
  400986:	f88d 300f 	strb.w	r3, [sp, #15]
	ili9488_write_register(ILI9488_CMD_PAGE_ADDRESS_SET, buf, cnt);
  40098a:	2204      	movs	r2, #4
  40098c:	a903      	add	r1, sp, #12
  40098e:	202b      	movs	r0, #43	; 0x2b
  400990:	47a0      	blx	r4
	ili9488_write_register(ILI9488_CMD_NOP, 0, 0);
  400992:	2200      	movs	r2, #0
  400994:	4611      	mov	r1, r2
  400996:	4610      	mov	r0, r2
  400998:	47a0      	blx	r4
}
  40099a:	b004      	add	sp, #16
  40099c:	bd10      	pop	{r4, pc}
  40099e:	bf00      	nop
  4009a0:	00400789 	.word	0x00400789

004009a4 <ili9488_init>:
{
  4009a4:	e92d 43f0 	stmdb	sp!, {r4, r5, r6, r7, r8, r9, lr}
  4009a8:	b087      	sub	sp, #28
  4009aa:	4681      	mov	r9, r0
	struct spi_device ILI9488_SPI_DEVICE = {
  4009ac:	2703      	movs	r7, #3
  4009ae:	ae06      	add	r6, sp, #24
  4009b0:	f846 7d08 	str.w	r7, [r6, #-8]!
	spi_master_init(BOARD_ILI9488_SPI);
  4009b4:	4d5d      	ldr	r5, [pc, #372]	; (400b2c <ili9488_init+0x188>)
  4009b6:	4628      	mov	r0, r5
  4009b8:	4b5d      	ldr	r3, [pc, #372]	; (400b30 <ili9488_init+0x18c>)
  4009ba:	4798      	blx	r3
	spi_master_setup_device(BOARD_ILI9488_SPI, &ILI9488_SPI_DEVICE, SPI_MODE_3, ILI9488_SPI_BAUDRATE, 0);
  4009bc:	2400      	movs	r4, #0
  4009be:	9400      	str	r4, [sp, #0]
  4009c0:	4b5c      	ldr	r3, [pc, #368]	; (400b34 <ili9488_init+0x190>)
  4009c2:	463a      	mov	r2, r7
  4009c4:	4631      	mov	r1, r6
  4009c6:	4628      	mov	r0, r5
  4009c8:	f8df 8198 	ldr.w	r8, [pc, #408]	; 400b64 <ili9488_init+0x1c0>
  4009cc:	47c0      	blx	r8
	spi_configure_cs_behavior(BOARD_ILI9488_SPI, BOARD_ILI9488_SPI_NPCS, SPI_CS_RISE_NO_TX);
  4009ce:	4622      	mov	r2, r4
  4009d0:	4639      	mov	r1, r7
  4009d2:	4628      	mov	r0, r5
  4009d4:	4b58      	ldr	r3, [pc, #352]	; (400b38 <ili9488_init+0x194>)
  4009d6:	4798      	blx	r3
	spi_select_device(BOARD_ILI9488_SPI, &ILI9488_SPI_DEVICE);
  4009d8:	4631      	mov	r1, r6
  4009da:	4628      	mov	r0, r5
  4009dc:	4b57      	ldr	r3, [pc, #348]	; (400b3c <ili9488_init+0x198>)
  4009de:	4798      	blx	r3
	p_spi->SPI_CR = SPI_CR_SPIEN;
  4009e0:	2001      	movs	r0, #1
  4009e2:	6028      	str	r0, [r5, #0]
 * \param p_spi Pointer to an SPI instance.
 * \param ul_sources Interrupts to be enabled.
 */
static inline void spi_enable_interrupt(Spi *p_spi, uint32_t ul_sources)
{
	p_spi->SPI_IER = ul_sources;
  4009e4:	6168      	str	r0, [r5, #20]
	ili9488_write_register(ILI9488_CMD_SOFTWARE_RESET, 0x0000, 0);
  4009e6:	4622      	mov	r2, r4
  4009e8:	4621      	mov	r1, r4
  4009ea:	4e55      	ldr	r6, [pc, #340]	; (400b40 <ili9488_init+0x19c>)
  4009ec:	47b0      	blx	r6
	ili9488_delay(200);
  4009ee:	20c8      	movs	r0, #200	; 0xc8
  4009f0:	4d54      	ldr	r5, [pc, #336]	; (400b44 <ili9488_init+0x1a0>)
  4009f2:	47a8      	blx	r5
	ili9488_write_register(ILI9488_CMD_SLEEP_OUT, 0x0000, 0);
  4009f4:	4622      	mov	r2, r4
  4009f6:	4621      	mov	r1, r4
  4009f8:	2011      	movs	r0, #17
  4009fa:	47b0      	blx	r6
	ili9488_delay(200);
  4009fc:	20c8      	movs	r0, #200	; 0xc8
  4009fe:	47a8      	blx	r5
	reg = 0x81;
  400a00:	2381      	movs	r3, #129	; 0x81
  400a02:	f88d 300a 	strb.w	r3, [sp, #10]
	param = 0x0;
  400a06:	f88d 400b 	strb.w	r4, [sp, #11]
  400a0a:	2610      	movs	r6, #16
		ili9488_write_register(ILI9488_CMD_SPI_READ_SETTINGS, &reg, 1);
  400a0c:	f04f 0801 	mov.w	r8, #1
  400a10:	4f4b      	ldr	r7, [pc, #300]	; (400b40 <ili9488_init+0x19c>)
		for(j = 0; j < 0xFF; j++);
  400a12:	4625      	mov	r5, r4
		ili9488_write_register(ILI9488_CMD_SPI_READ_SETTINGS, &reg, 1);
  400a14:	4642      	mov	r2, r8
  400a16:	f10d 010a 	add.w	r1, sp, #10
  400a1a:	20fb      	movs	r0, #251	; 0xfb
  400a1c:	47b8      	blx	r7
		reg++;
  400a1e:	f89d 300a 	ldrb.w	r3, [sp, #10]
  400a22:	3301      	adds	r3, #1
  400a24:	f88d 300a 	strb.w	r3, [sp, #10]
		for(j = 0; j < 0xFF; j++);
  400a28:	9503      	str	r5, [sp, #12]
  400a2a:	9b03      	ldr	r3, [sp, #12]
  400a2c:	2bfe      	cmp	r3, #254	; 0xfe
  400a2e:	d805      	bhi.n	400a3c <ili9488_init+0x98>
  400a30:	9b03      	ldr	r3, [sp, #12]
  400a32:	3301      	adds	r3, #1
  400a34:	9303      	str	r3, [sp, #12]
  400a36:	9b03      	ldr	r3, [sp, #12]
  400a38:	2bfe      	cmp	r3, #254	; 0xfe
  400a3a:	d9f9      	bls.n	400a30 <ili9488_init+0x8c>
		ili9488_write_register(ILI9488_CMD_READ_ID4, 0, 0);
  400a3c:	462a      	mov	r2, r5
  400a3e:	4629      	mov	r1, r5
  400a40:	20d3      	movs	r0, #211	; 0xd3
  400a42:	47b8      	blx	r7
			pio_set_pin_high(LCD_SPI_CDS_PIO);
  400a44:	2006      	movs	r0, #6
  400a46:	4b40      	ldr	r3, [pc, #256]	; (400b48 <ili9488_init+0x1a4>)
  400a48:	4798      	blx	r3
			spi_read_packet(BOARD_ILI9488_SPI, &chipidBuf, 1);
  400a4a:	4642      	mov	r2, r8
  400a4c:	f10d 0109 	add.w	r1, sp, #9
  400a50:	4836      	ldr	r0, [pc, #216]	; (400b2c <ili9488_init+0x188>)
  400a52:	4b3e      	ldr	r3, [pc, #248]	; (400b4c <ili9488_init+0x1a8>)
  400a54:	4798      	blx	r3
			for(j = 0; j < 0xFF; j++);
  400a56:	9503      	str	r5, [sp, #12]
  400a58:	9b03      	ldr	r3, [sp, #12]
  400a5a:	2bfe      	cmp	r3, #254	; 0xfe
  400a5c:	d805      	bhi.n	400a6a <ili9488_init+0xc6>
  400a5e:	9b03      	ldr	r3, [sp, #12]
  400a60:	3301      	adds	r3, #1
  400a62:	9303      	str	r3, [sp, #12]
  400a64:	9b03      	ldr	r3, [sp, #12]
  400a66:	2bfe      	cmp	r3, #254	; 0xfe
  400a68:	d9f9      	bls.n	400a5e <ili9488_init+0xba>
		chipid |= (chipidBuf & 0xFF) << ((i - 1) << 3);
  400a6a:	f89d 3009 	ldrb.w	r3, [sp, #9]
  400a6e:	40b3      	lsls	r3, r6
  400a70:	431c      	orrs	r4, r3
		ili9488_write_register(ILI9488_CMD_SPI_READ_SETTINGS, &param, 1);
  400a72:	4642      	mov	r2, r8
  400a74:	f10d 010b 	add.w	r1, sp, #11
  400a78:	20fb      	movs	r0, #251	; 0xfb
  400a7a:	47b8      	blx	r7
		for(j = 0; j < 0xFFF; j++);
  400a7c:	9503      	str	r5, [sp, #12]
  400a7e:	9a03      	ldr	r2, [sp, #12]
  400a80:	f640 73fe 	movw	r3, #4094	; 0xffe
  400a84:	429a      	cmp	r2, r3
  400a86:	d806      	bhi.n	400a96 <ili9488_init+0xf2>
  400a88:	461a      	mov	r2, r3
  400a8a:	9b03      	ldr	r3, [sp, #12]
  400a8c:	3301      	adds	r3, #1
  400a8e:	9303      	str	r3, [sp, #12]
  400a90:	9b03      	ldr	r3, [sp, #12]
  400a92:	4293      	cmp	r3, r2
  400a94:	d9f9      	bls.n	400a8a <ili9488_init+0xe6>
  400a96:	3e08      	subs	r6, #8
	for (i = 3; i > 0; i--) {
  400a98:	f116 0f08 	cmn.w	r6, #8
  400a9c:	d1ba      	bne.n	400a14 <ili9488_init+0x70>
	if (chipid != ILI9488_DEVICE_CODE) {
  400a9e:	f249 4388 	movw	r3, #38024	; 0x9488
  400aa2:	429c      	cmp	r4, r3
  400aa4:	d003      	beq.n	400aae <ili9488_init+0x10a>
		return 1;
  400aa6:	2001      	movs	r0, #1
}
  400aa8:	b007      	add	sp, #28
  400aaa:	e8bd 83f0 	ldmia.w	sp!, {r4, r5, r6, r7, r8, r9, pc}
	param = 0x48;
  400aae:	ad06      	add	r5, sp, #24
  400ab0:	2348      	movs	r3, #72	; 0x48
  400ab2:	f805 3d01 	strb.w	r3, [r5, #-1]!
	ili9488_write_register(ILI9488_CMD_MEMORY_ACCESS_CONTROL, &param, 1);
  400ab6:	2201      	movs	r2, #1
  400ab8:	4629      	mov	r1, r5
  400aba:	2036      	movs	r0, #54	; 0x36
  400abc:	4e20      	ldr	r6, [pc, #128]	; (400b40 <ili9488_init+0x19c>)
  400abe:	47b0      	blx	r6
	ili9488_delay(100);
  400ac0:	2064      	movs	r0, #100	; 0x64
  400ac2:	4c20      	ldr	r4, [pc, #128]	; (400b44 <ili9488_init+0x1a0>)
  400ac4:	47a0      	blx	r4
	param = 0x04;
  400ac6:	2304      	movs	r3, #4
  400ac8:	f88d 3017 	strb.w	r3, [sp, #23]
	ili9488_write_register(ILI9488_CMD_CABC_CONTROL_9, &param, 1);
  400acc:	2201      	movs	r2, #1
  400ace:	4629      	mov	r1, r5
  400ad0:	20cf      	movs	r0, #207	; 0xcf
  400ad2:	47b0      	blx	r6
	ili9488_delay(100);
  400ad4:	2064      	movs	r0, #100	; 0x64
  400ad6:	47a0      	blx	r4
	param = 0x06;
  400ad8:	2306      	movs	r3, #6
  400ada:	f88d 3017 	strb.w	r3, [sp, #23]
	ili9488_write_register(ILI9488_CMD_COLMOD_PIXEL_FORMAT_SET, &param, 1);
  400ade:	2201      	movs	r2, #1
  400ae0:	4629      	mov	r1, r5
  400ae2:	203a      	movs	r0, #58	; 0x3a
  400ae4:	47b0      	blx	r6
	ili9488_delay(100);
  400ae6:	2064      	movs	r0, #100	; 0x64
  400ae8:	47a0      	blx	r4
	ili9488_write_register(ILI9488_CMD_NORMAL_DISP_MODE_ON, 0, 0);
  400aea:	2200      	movs	r2, #0
  400aec:	4611      	mov	r1, r2
  400aee:	2013      	movs	r0, #19
  400af0:	47b0      	blx	r6
	ili9488_delay(100);
  400af2:	2064      	movs	r0, #100	; 0x64
  400af4:	47a0      	blx	r4
	ili9488_display_on();
  400af6:	4b16      	ldr	r3, [pc, #88]	; (400b50 <ili9488_init+0x1ac>)
  400af8:	4798      	blx	r3
	ili9488_delay(100);
  400afa:	2064      	movs	r0, #100	; 0x64
  400afc:	47a0      	blx	r4
	ili9488_set_display_direction(LANDSCAPE);
  400afe:	2000      	movs	r0, #0
  400b00:	4b14      	ldr	r3, [pc, #80]	; (400b54 <ili9488_init+0x1b0>)
  400b02:	4798      	blx	r3
	ili9488_delay(100);
  400b04:	2064      	movs	r0, #100	; 0x64
  400b06:	47a0      	blx	r4
	ili9488_set_window(0, 0,p_opt->ul_width,p_opt->ul_height);
  400b08:	f8b9 3004 	ldrh.w	r3, [r9, #4]
  400b0c:	f8b9 2000 	ldrh.w	r2, [r9]
  400b10:	2100      	movs	r1, #0
  400b12:	4608      	mov	r0, r1
  400b14:	4c10      	ldr	r4, [pc, #64]	; (400b58 <ili9488_init+0x1b4>)
  400b16:	47a0      	blx	r4
	ili9488_set_foreground_color(p_opt->foreground_color);
  400b18:	f8d9 0008 	ldr.w	r0, [r9, #8]
  400b1c:	4b0f      	ldr	r3, [pc, #60]	; (400b5c <ili9488_init+0x1b8>)
  400b1e:	4798      	blx	r3
	ili9488_set_cursor_position(0, 0);
  400b20:	2100      	movs	r1, #0
  400b22:	4608      	mov	r0, r1
  400b24:	4b0e      	ldr	r3, [pc, #56]	; (400b60 <ili9488_init+0x1bc>)
  400b26:	4798      	blx	r3
	return 0;
  400b28:	2000      	movs	r0, #0
  400b2a:	e7bd      	b.n	400aa8 <ili9488_init+0x104>
  400b2c:	40008000 	.word	0x40008000
  400b30:	0040021d 	.word	0x0040021d
  400b34:	01312d00 	.word	0x01312d00
  400b38:	00401369 	.word	0x00401369
  400b3c:	004002f1 	.word	0x004002f1
  400b40:	00400789 	.word	0x00400789
  400b44:	0040083d 	.word	0x0040083d
  400b48:	00400f15 	.word	0x00400f15
  400b4c:	00400357 	.word	0x00400357
  400b50:	00400905 	.word	0x00400905
  400b54:	00400859 	.word	0x00400859
  400b58:	00400885 	.word	0x00400885
  400b5c:	00400919 	.word	0x00400919
  400b60:	00400941 	.word	0x00400941
  400b64:	00400271 	.word	0x00400271

00400b68 <ili9488_draw_pixel>:
 *
 * \return 0 if succeeds, otherwise fails.
 */
uint32_t ili9488_draw_pixel(uint32_t ul_x, uint32_t ul_y)
{
	if ((ul_x >= ILI9488_LCD_WIDTH) || (ul_y >= ILI9488_LCD_HEIGHT)) {
  400b68:	f5b0 7fa0 	cmp.w	r0, #320	; 0x140
  400b6c:	d20f      	bcs.n	400b8e <ili9488_draw_pixel+0x26>
  400b6e:	f5b1 7ff0 	cmp.w	r1, #480	; 0x1e0
  400b72:	d20c      	bcs.n	400b8e <ili9488_draw_pixel+0x26>
{
  400b74:	b508      	push	{r3, lr}
		return 1;
	}

	/* Set cursor */
	ili9488_set_cursor_position(ul_x, ul_y);
  400b76:	b289      	uxth	r1, r1
  400b78:	b280      	uxth	r0, r0
  400b7a:	4b06      	ldr	r3, [pc, #24]	; (400b94 <ili9488_draw_pixel+0x2c>)
  400b7c:	4798      	blx	r3

	/* Prepare to write in GRAM */
	ili9488_write_ram_prepare();
  400b7e:	4b06      	ldr	r3, [pc, #24]	; (400b98 <ili9488_draw_pixel+0x30>)
  400b80:	4798      	blx	r3
	ili9488_write_ram_buffer(g_ul_pixel_cache, LCD_DATA_COLOR_UNIT);
  400b82:	2103      	movs	r1, #3
  400b84:	4805      	ldr	r0, [pc, #20]	; (400b9c <ili9488_draw_pixel+0x34>)
  400b86:	4b06      	ldr	r3, [pc, #24]	; (400ba0 <ili9488_draw_pixel+0x38>)
  400b88:	4798      	blx	r3
	return 0;
  400b8a:	2000      	movs	r0, #0
  400b8c:	bd08      	pop	{r3, pc}
		return 1;
  400b8e:	2001      	movs	r0, #1
  400b90:	4770      	bx	lr
  400b92:	bf00      	nop
  400b94:	00400941 	.word	0x00400941
  400b98:	0040074d 	.word	0x0040074d
  400b9c:	204009d4 	.word	0x204009d4
  400ba0:	004007fd 	.word	0x004007fd

00400ba4 <ili9488_draw_filled_rectangle>:
 * \param ul_x2 X coordinate of lower-right corner on LCD.
 * \param ul_y2 Y coordinate of lower-right corner on LCD.
 */
void ili9488_draw_filled_rectangle(uint32_t ul_x1, uint32_t ul_y1,
		uint32_t ul_x2, uint32_t ul_y2)
{
  400ba4:	e92d 41f0 	stmdb	sp!, {r4, r5, r6, r7, r8, lr}
  400ba8:	b084      	sub	sp, #16
  400baa:	9003      	str	r0, [sp, #12]
  400bac:	9102      	str	r1, [sp, #8]
  400bae:	9201      	str	r2, [sp, #4]
  400bb0:	aa04      	add	r2, sp, #16
  400bb2:	f842 3d10 	str.w	r3, [r2, #-16]!
	uint32_t size, blocks;

	/* Swap coordinates if necessary */
	ili9488_check_box_coordinates(&ul_x1, &ul_y1, &ul_x2, &ul_y2);
  400bb6:	4613      	mov	r3, r2
  400bb8:	aa01      	add	r2, sp, #4
  400bba:	a902      	add	r1, sp, #8
  400bbc:	a803      	add	r0, sp, #12
  400bbe:	4c22      	ldr	r4, [pc, #136]	; (400c48 <ili9488_draw_filled_rectangle+0xa4>)
  400bc0:	47a0      	blx	r4

	/* Determine the refresh window area */
	ili9488_set_window(ul_x1, ul_y1, (ul_x2 - ul_x1) + 1, (ul_y2 - ul_y1) + 1);
  400bc2:	f8bd 000c 	ldrh.w	r0, [sp, #12]
  400bc6:	f8bd 1008 	ldrh.w	r1, [sp, #8]
  400bca:	9b00      	ldr	r3, [sp, #0]
  400bcc:	3301      	adds	r3, #1
  400bce:	1a5b      	subs	r3, r3, r1
  400bd0:	9a01      	ldr	r2, [sp, #4]
  400bd2:	3201      	adds	r2, #1
  400bd4:	1a12      	subs	r2, r2, r0
  400bd6:	b29b      	uxth	r3, r3
  400bd8:	b292      	uxth	r2, r2
  400bda:	4c1c      	ldr	r4, [pc, #112]	; (400c4c <ili9488_draw_filled_rectangle+0xa8>)
  400bdc:	47a0      	blx	r4

	/* Prepare to write in GRAM */
	ili9488_write_ram_prepare();
  400bde:	4b1c      	ldr	r3, [pc, #112]	; (400c50 <ili9488_draw_filled_rectangle+0xac>)
  400be0:	4798      	blx	r3

	size = (ul_x2 - ul_x1 + 1) * (ul_y2 - ul_y1 + 1);
  400be2:	9903      	ldr	r1, [sp, #12]
  400be4:	9d01      	ldr	r5, [sp, #4]
  400be6:	1a69      	subs	r1, r5, r1
  400be8:	9d00      	ldr	r5, [sp, #0]
  400bea:	3501      	adds	r5, #1
  400bec:	9b02      	ldr	r3, [sp, #8]
  400bee:	1aed      	subs	r5, r5, r3
  400bf0:	fb01 5505 	mla	r5, r1, r5, r5
	/* Send pixels blocks => one SPI IT / block */
	blocks = size / LCD_DATA_CACHE_SIZE;
  400bf4:	4b17      	ldr	r3, [pc, #92]	; (400c54 <ili9488_draw_filled_rectangle+0xb0>)
  400bf6:	fba3 2305 	umull	r2, r3, r3, r5
  400bfa:	0a1b      	lsrs	r3, r3, #8
	while (blocks--) {
  400bfc:	b163      	cbz	r3, 400c18 <ili9488_draw_filled_rectangle+0x74>
  400bfe:	1e5c      	subs	r4, r3, #1
		ili9488_write_ram_buffer(g_ul_pixel_cache, LCD_DATA_CACHE_SIZE * LCD_DATA_COLOR_UNIT);
  400c00:	f8df 8058 	ldr.w	r8, [pc, #88]	; 400c5c <ili9488_draw_filled_rectangle+0xb8>
  400c04:	f44f 7770 	mov.w	r7, #960	; 0x3c0
  400c08:	4e13      	ldr	r6, [pc, #76]	; (400c58 <ili9488_draw_filled_rectangle+0xb4>)
  400c0a:	4639      	mov	r1, r7
  400c0c:	4640      	mov	r0, r8
  400c0e:	47b0      	blx	r6
	while (blocks--) {
  400c10:	3c01      	subs	r4, #1
  400c12:	f1b4 3fff 	cmp.w	r4, #4294967295
  400c16:	d1f8      	bne.n	400c0a <ili9488_draw_filled_rectangle+0x66>
	}

	/* Send remaining pixels */
	ili9488_write_ram_buffer(g_ul_pixel_cache, (size % LCD_DATA_CACHE_SIZE) * LCD_DATA_COLOR_UNIT);
  400c18:	490e      	ldr	r1, [pc, #56]	; (400c54 <ili9488_draw_filled_rectangle+0xb0>)
  400c1a:	fba1 3105 	umull	r3, r1, r1, r5
  400c1e:	0a09      	lsrs	r1, r1, #8
  400c20:	eb01 0181 	add.w	r1, r1, r1, lsl #2
  400c24:	eba5 1181 	sub.w	r1, r5, r1, lsl #6
  400c28:	eb01 0141 	add.w	r1, r1, r1, lsl #1
  400c2c:	480b      	ldr	r0, [pc, #44]	; (400c5c <ili9488_draw_filled_rectangle+0xb8>)
  400c2e:	4b0a      	ldr	r3, [pc, #40]	; (400c58 <ili9488_draw_filled_rectangle+0xb4>)
  400c30:	4798      	blx	r3

	/* Reset the refresh window area */
	ili9488_set_window(0, 0, ILI9488_LCD_WIDTH, ILI9488_LCD_HEIGHT);
  400c32:	f44f 73f0 	mov.w	r3, #480	; 0x1e0
  400c36:	f44f 72a0 	mov.w	r2, #320	; 0x140
  400c3a:	2100      	movs	r1, #0
  400c3c:	4608      	mov	r0, r1
  400c3e:	4c03      	ldr	r4, [pc, #12]	; (400c4c <ili9488_draw_filled_rectangle+0xa8>)
  400c40:	47a0      	blx	r4

}
  400c42:	b004      	add	sp, #16
  400c44:	e8bd 81f0 	ldmia.w	sp!, {r4, r5, r6, r7, r8, pc}
  400c48:	004006f5 	.word	0x004006f5
  400c4c:	00400885 	.word	0x00400885
  400c50:	0040074d 	.word	0x0040074d
  400c54:	cccccccd 	.word	0xcccccccd
  400c58:	004007fd 	.word	0x004007fd
  400c5c:	204009d4 	.word	0x204009d4

00400c60 <ili9488_draw_string>:
 * \param ul_x X coordinate of string top-left corner.
 * \param ul_y Y coordinate of string top-left corner.
 * \param p_str String to display.
 */
void ili9488_draw_string(uint32_t ul_x, uint32_t ul_y, const uint8_t *p_str)
{
  400c60:	e92d 4ff0 	stmdb	sp!, {r4, r5, r6, r7, r8, r9, sl, fp, lr}
  400c64:	b085      	sub	sp, #20
  400c66:	9003      	str	r0, [sp, #12]
  400c68:	9202      	str	r2, [sp, #8]
	uint32_t xorg = ul_x;

	while (*p_str != 0) {
  400c6a:	7813      	ldrb	r3, [r2, #0]
  400c6c:	2b00      	cmp	r3, #0
  400c6e:	d048      	beq.n	400d02 <ili9488_draw_string+0xa2>
  400c70:	468b      	mov	fp, r1
  400c72:	9001      	str	r0, [sp, #4]
				ili9488_draw_pixel(ul_x + col, ul_y + row);
  400c74:	f8df 8094 	ldr.w	r8, [pc, #148]	; 400d0c <ili9488_draw_string+0xac>
  400c78:	e033      	b.n	400ce2 <ili9488_draw_string+0x82>
		/* If newline, jump to the next line (font height + 2) */
		if (*p_str == '\n') {
			ul_y += gfont.height + 2;
  400c7a:	f10b 0b10 	add.w	fp, fp, #16
			ul_x = xorg;
  400c7e:	9b03      	ldr	r3, [sp, #12]
  400c80:	9301      	str	r3, [sp, #4]
  400c82:	e029      	b.n	400cd8 <ili9488_draw_string+0x78>
  400c84:	3c01      	subs	r4, #1
		for (row = 0; row < 8; row++) {
  400c86:	f1b4 3fff 	cmp.w	r4, #4294967295
  400c8a:	d009      	beq.n	400ca0 <ili9488_draw_string+0x40>
			if ((p_uc_charset10x14[offset0] >> (7 - row)) & 0x1) {
  400c8c:	782b      	ldrb	r3, [r5, #0]
  400c8e:	4123      	asrs	r3, r4
  400c90:	f013 0f01 	tst.w	r3, #1
  400c94:	d0f6      	beq.n	400c84 <ili9488_draw_string+0x24>
				ili9488_draw_pixel(ul_x + col, ul_y + row);
  400c96:	ebaa 0104 	sub.w	r1, sl, r4
  400c9a:	4630      	mov	r0, r6
  400c9c:	47c0      	blx	r8
  400c9e:	e7f1      	b.n	400c84 <ili9488_draw_string+0x24>
		for (row = 0; row < 8; row++) {
  400ca0:	2407      	movs	r4, #7
				ili9488_draw_pixel(ul_x + col, ul_y + row + 8);
  400ca2:	f10b 090f 	add.w	r9, fp, #15
  400ca6:	e002      	b.n	400cae <ili9488_draw_string+0x4e>
  400ca8:	3c01      	subs	r4, #1
		for (row = 0; row < 6; row++) {
  400caa:	2c01      	cmp	r4, #1
  400cac:	d009      	beq.n	400cc2 <ili9488_draw_string+0x62>
			if ((p_uc_charset10x14[offset1] >> (7 - row)) & 0x1) {
  400cae:	787b      	ldrb	r3, [r7, #1]
  400cb0:	4123      	asrs	r3, r4
  400cb2:	f013 0f01 	tst.w	r3, #1
  400cb6:	d0f7      	beq.n	400ca8 <ili9488_draw_string+0x48>
				ili9488_draw_pixel(ul_x + col, ul_y + row + 8);
  400cb8:	eba9 0104 	sub.w	r1, r9, r4
  400cbc:	4630      	mov	r0, r6
  400cbe:	47c0      	blx	r8
  400cc0:	e7f2      	b.n	400ca8 <ili9488_draw_string+0x48>
  400cc2:	3502      	adds	r5, #2
  400cc4:	3601      	adds	r6, #1
	for (col = 0; col < 10; col++) {
  400cc6:	9b00      	ldr	r3, [sp, #0]
  400cc8:	42b3      	cmp	r3, r6
  400cca:	d002      	beq.n	400cd2 <ili9488_draw_string+0x72>
	offset = ((uint32_t)uc_c - 0x20) * 20;
  400ccc:	2407      	movs	r4, #7
  400cce:	462f      	mov	r7, r5
  400cd0:	e7dc      	b.n	400c8c <ili9488_draw_string+0x2c>
		} else {
			/* Draw the character and place cursor right after (font width + 2) */
			ili9488_draw_char(ul_x, ul_y, *p_str);
			ul_x += gfont.width + 2;
  400cd2:	9b01      	ldr	r3, [sp, #4]
  400cd4:	330c      	adds	r3, #12
  400cd6:	9301      	str	r3, [sp, #4]
	while (*p_str != 0) {
  400cd8:	9a02      	ldr	r2, [sp, #8]
  400cda:	f812 3f01 	ldrb.w	r3, [r2, #1]!
  400cde:	9202      	str	r2, [sp, #8]
  400ce0:	b17b      	cbz	r3, 400d02 <ili9488_draw_string+0xa2>
		if (*p_str == '\n') {
  400ce2:	2b0a      	cmp	r3, #10
  400ce4:	d0c9      	beq.n	400c7a <ili9488_draw_string+0x1a>
	offset = ((uint32_t)uc_c - 0x20) * 20;
  400ce6:	eb03 0383 	add.w	r3, r3, r3, lsl #2
  400cea:	4d07      	ldr	r5, [pc, #28]	; (400d08 <ili9488_draw_string+0xa8>)
  400cec:	eb05 0383 	add.w	r3, r5, r3, lsl #2
  400cf0:	f5a3 7520 	sub.w	r5, r3, #640	; 0x280
  400cf4:	9e01      	ldr	r6, [sp, #4]
  400cf6:	4633      	mov	r3, r6
  400cf8:	330a      	adds	r3, #10
  400cfa:	9300      	str	r3, [sp, #0]
				ili9488_draw_pixel(ul_x + col, ul_y + row);
  400cfc:	f10b 0a07 	add.w	sl, fp, #7
  400d00:	e7e4      	b.n	400ccc <ili9488_draw_string+0x6c>
		}
		p_str++;
	}
}
  400d02:	b005      	add	sp, #20
  400d04:	e8bd 8ff0 	ldmia.w	sp!, {r4, r5, r6, r7, r8, r9, sl, fp, pc}
  400d08:	00407f84 	.word	0x00407f84
  400d0c:	00400b69 	.word	0x00400b69

00400d10 <ili9488_draw_pixmap>:
 * \param ul_height height of the picture.
 * \param p_ul_pixmap pixmap of the image.
 */
void ili9488_draw_pixmap(uint32_t ul_x, uint32_t ul_y, uint32_t ul_width,
		uint32_t ul_height, const ili9488_color_t *p_ul_pixmap)
{
  400d10:	b510      	push	{r4, lr}
  400d12:	b084      	sub	sp, #16
	uint32_t size;
	uint32_t dwX1, dwY1, dwX2, dwY2;
	dwX1 = ul_x;
  400d14:	9003      	str	r0, [sp, #12]
	dwY1 = ul_y;
  400d16:	9102      	str	r1, [sp, #8]
	dwX2 = ul_x + ul_width - 1;
  400d18:	3a01      	subs	r2, #1
  400d1a:	4410      	add	r0, r2
  400d1c:	9001      	str	r0, [sp, #4]
	dwY2 = ul_y + ul_height - 1;
  400d1e:	3b01      	subs	r3, #1
  400d20:	4419      	add	r1, r3
  400d22:	ab04      	add	r3, sp, #16
  400d24:	f843 1d10 	str.w	r1, [r3, #-16]!

	/* Swap coordinates if necessary */
	ili9488_check_box_coordinates(&dwX1, &dwY1, &dwX2, &dwY2);
  400d28:	aa01      	add	r2, sp, #4
  400d2a:	a902      	add	r1, sp, #8
  400d2c:	a803      	add	r0, sp, #12
  400d2e:	4c13      	ldr	r4, [pc, #76]	; (400d7c <ili9488_draw_pixmap+0x6c>)
  400d30:	47a0      	blx	r4

	/* Determine the refresh window area */
	ili9488_set_window(dwX1, dwY1, (dwX2 - dwX1 + 1), (dwY2 - dwY1 + 1));
  400d32:	f8bd 000c 	ldrh.w	r0, [sp, #12]
  400d36:	f8bd 1008 	ldrh.w	r1, [sp, #8]
  400d3a:	9b00      	ldr	r3, [sp, #0]
  400d3c:	3301      	adds	r3, #1
  400d3e:	1a5b      	subs	r3, r3, r1
  400d40:	9a01      	ldr	r2, [sp, #4]
  400d42:	3201      	adds	r2, #1
  400d44:	1a12      	subs	r2, r2, r0
  400d46:	b29b      	uxth	r3, r3
  400d48:	b292      	uxth	r2, r2
  400d4a:	4c0d      	ldr	r4, [pc, #52]	; (400d80 <ili9488_draw_pixmap+0x70>)
  400d4c:	47a0      	blx	r4

	size = (dwX2 - dwX1) * (dwY2 - dwY1);
  400d4e:	9903      	ldr	r1, [sp, #12]
  400d50:	9a01      	ldr	r2, [sp, #4]
  400d52:	1a51      	subs	r1, r2, r1
  400d54:	9a02      	ldr	r2, [sp, #8]
  400d56:	9b00      	ldr	r3, [sp, #0]
  400d58:	1a9a      	subs	r2, r3, r2
  400d5a:	fb02 f201 	mul.w	r2, r2, r1

	ili9488_write_register(ILI9488_CMD_MEMORY_WRITE, p_ul_pixmap, size * LCD_DATA_COLOR_UNIT);
  400d5e:	eb02 0242 	add.w	r2, r2, r2, lsl #1
  400d62:	9906      	ldr	r1, [sp, #24]
  400d64:	202c      	movs	r0, #44	; 0x2c
  400d66:	4b07      	ldr	r3, [pc, #28]	; (400d84 <ili9488_draw_pixmap+0x74>)
  400d68:	4798      	blx	r3

	/* Reset the refresh window area */
	ili9488_set_window(0, 0, ILI9488_LCD_WIDTH, ILI9488_LCD_HEIGHT);
  400d6a:	f44f 73f0 	mov.w	r3, #480	; 0x1e0
  400d6e:	f44f 72a0 	mov.w	r2, #320	; 0x140
  400d72:	2100      	movs	r1, #0
  400d74:	4608      	mov	r0, r1
  400d76:	47a0      	blx	r4
}
  400d78:	b004      	add	sp, #16
  400d7a:	bd10      	pop	{r4, pc}
  400d7c:	004006f5 	.word	0x004006f5
  400d80:	00400885 	.word	0x00400885
  400d84:	00400789 	.word	0x00400789

00400d88 <pio_set>:
 * \param p_pio Pointer to a PIO instance.
 * \param ul_mask Bitmask of one or more pin(s) to configure.
 */
void pio_set(Pio *p_pio, const uint32_t ul_mask)
{
	p_pio->PIO_SODR = ul_mask;
  400d88:	6301      	str	r1, [r0, #48]	; 0x30
  400d8a:	4770      	bx	lr

00400d8c <pio_set_peripheral>:
		const uint32_t ul_mask)
{
	uint32_t ul_sr;

	/* Disable interrupts on the pin(s) */
	p_pio->PIO_IDR = ul_mask;
  400d8c:	6442      	str	r2, [r0, #68]	; 0x44

#if (SAM3S || SAM3N || SAM4S || SAM4E || SAM4N || SAM4C || SAMG || SAM4CP || SAM4CM || SAMV71 || SAMV70 || SAME70 || SAMS70)
	switch (ul_type) {
  400d8e:	f1b1 5fc0 	cmp.w	r1, #402653184	; 0x18000000
  400d92:	d03a      	beq.n	400e0a <pio_set_peripheral+0x7e>
  400d94:	d813      	bhi.n	400dbe <pio_set_peripheral+0x32>
  400d96:	f1b1 6f00 	cmp.w	r1, #134217728	; 0x8000000
  400d9a:	d025      	beq.n	400de8 <pio_set_peripheral+0x5c>
  400d9c:	f1b1 5f80 	cmp.w	r1, #268435456	; 0x10000000
  400da0:	d10a      	bne.n	400db8 <pio_set_peripheral+0x2c>

		ul_sr = p_pio->PIO_ABCDSR[1];
		p_pio->PIO_ABCDSR[1] &= (~ul_mask & ul_sr);
		break;
	case PIO_PERIPH_B:
		ul_sr = p_pio->PIO_ABCDSR[0];
  400da2:	6f03      	ldr	r3, [r0, #112]	; 0x70
		p_pio->PIO_ABCDSR[0] = (ul_mask | ul_sr);
  400da4:	4313      	orrs	r3, r2
  400da6:	6703      	str	r3, [r0, #112]	; 0x70

		ul_sr = p_pio->PIO_ABCDSR[1];
  400da8:	6f43      	ldr	r3, [r0, #116]	; 0x74
		p_pio->PIO_ABCDSR[1] &= (~ul_mask & ul_sr);
  400daa:	6f41      	ldr	r1, [r0, #116]	; 0x74
  400dac:	400b      	ands	r3, r1
  400dae:	ea23 0302 	bic.w	r3, r3, r2
  400db2:	6743      	str	r3, [r0, #116]	; 0x74
#else
#error "Unsupported device"
#endif

	/* Remove the pins from under the control of PIO */
	p_pio->PIO_PDR = ul_mask;
  400db4:	6042      	str	r2, [r0, #4]
  400db6:	4770      	bx	lr
	switch (ul_type) {
  400db8:	2900      	cmp	r1, #0
  400dba:	d1fb      	bne.n	400db4 <pio_set_peripheral+0x28>
  400dbc:	4770      	bx	lr
  400dbe:	f1b1 5f20 	cmp.w	r1, #671088640	; 0x28000000
  400dc2:	d021      	beq.n	400e08 <pio_set_peripheral+0x7c>
  400dc4:	d809      	bhi.n	400dda <pio_set_peripheral+0x4e>
  400dc6:	f1b1 5f00 	cmp.w	r1, #536870912	; 0x20000000
  400dca:	d1f3      	bne.n	400db4 <pio_set_peripheral+0x28>
		ul_sr = p_pio->PIO_ABCDSR[0];
  400dcc:	6f03      	ldr	r3, [r0, #112]	; 0x70
		p_pio->PIO_ABCDSR[0] = (ul_mask | ul_sr);
  400dce:	4313      	orrs	r3, r2
  400dd0:	6703      	str	r3, [r0, #112]	; 0x70
		ul_sr = p_pio->PIO_ABCDSR[1];
  400dd2:	6f43      	ldr	r3, [r0, #116]	; 0x74
		p_pio->PIO_ABCDSR[1] = (ul_mask | ul_sr);
  400dd4:	4313      	orrs	r3, r2
  400dd6:	6743      	str	r3, [r0, #116]	; 0x74
		break;
  400dd8:	e7ec      	b.n	400db4 <pio_set_peripheral+0x28>
	switch (ul_type) {
  400dda:	f1b1 5f40 	cmp.w	r1, #805306368	; 0x30000000
  400dde:	d013      	beq.n	400e08 <pio_set_peripheral+0x7c>
  400de0:	f1b1 5f60 	cmp.w	r1, #939524096	; 0x38000000
  400de4:	d010      	beq.n	400e08 <pio_set_peripheral+0x7c>
  400de6:	e7e5      	b.n	400db4 <pio_set_peripheral+0x28>
{
  400de8:	b410      	push	{r4}
		ul_sr = p_pio->PIO_ABCDSR[0];
  400dea:	6f01      	ldr	r1, [r0, #112]	; 0x70
		p_pio->PIO_ABCDSR[0] &= (~ul_mask & ul_sr);
  400dec:	6f04      	ldr	r4, [r0, #112]	; 0x70
  400dee:	43d3      	mvns	r3, r2
  400df0:	4021      	ands	r1, r4
  400df2:	461c      	mov	r4, r3
  400df4:	4019      	ands	r1, r3
  400df6:	6701      	str	r1, [r0, #112]	; 0x70
		ul_sr = p_pio->PIO_ABCDSR[1];
  400df8:	6f43      	ldr	r3, [r0, #116]	; 0x74
		p_pio->PIO_ABCDSR[1] &= (~ul_mask & ul_sr);
  400dfa:	6f41      	ldr	r1, [r0, #116]	; 0x74
  400dfc:	400b      	ands	r3, r1
  400dfe:	4023      	ands	r3, r4
  400e00:	6743      	str	r3, [r0, #116]	; 0x74
	p_pio->PIO_PDR = ul_mask;
  400e02:	6042      	str	r2, [r0, #4]
}
  400e04:	f85d 4b04 	ldr.w	r4, [sp], #4
  400e08:	4770      	bx	lr
		ul_sr = p_pio->PIO_ABCDSR[0];
  400e0a:	6f03      	ldr	r3, [r0, #112]	; 0x70
		p_pio->PIO_ABCDSR[0] &= (~ul_mask & ul_sr);
  400e0c:	6f01      	ldr	r1, [r0, #112]	; 0x70
  400e0e:	400b      	ands	r3, r1
  400e10:	ea23 0302 	bic.w	r3, r3, r2
  400e14:	6703      	str	r3, [r0, #112]	; 0x70
		ul_sr = p_pio->PIO_ABCDSR[1];
  400e16:	6f43      	ldr	r3, [r0, #116]	; 0x74
		p_pio->PIO_ABCDSR[1] = (ul_mask | ul_sr);
  400e18:	4313      	orrs	r3, r2
  400e1a:	6743      	str	r3, [r0, #116]	; 0x74
		break;
  400e1c:	e7ca      	b.n	400db4 <pio_set_peripheral+0x28>

00400e1e <pio_set_input>:
 * \param p_pio Pointer to a PIO instance.
 * \param ul_mask Interrupt sources bit map.
 */
void pio_disable_interrupt(Pio *p_pio, const uint32_t ul_mask)
{
	p_pio->PIO_IDR = ul_mask;
  400e1e:	6441      	str	r1, [r0, #68]	; 0x44
	if (ul_pull_up_enable) {
  400e20:	f012 0f01 	tst.w	r2, #1
  400e24:	d10d      	bne.n	400e42 <pio_set_input+0x24>
		p_pio->PIO_PUDR = ul_mask;
  400e26:	6601      	str	r1, [r0, #96]	; 0x60
	if (ul_attribute & (PIO_DEGLITCH | PIO_DEBOUNCE)) {
  400e28:	f012 0f0a 	tst.w	r2, #10
  400e2c:	d00b      	beq.n	400e46 <pio_set_input+0x28>
		p_pio->PIO_IFER = ul_mask;
  400e2e:	6201      	str	r1, [r0, #32]
	if (ul_attribute & PIO_DEGLITCH) {
  400e30:	f012 0f02 	tst.w	r2, #2
  400e34:	d109      	bne.n	400e4a <pio_set_input+0x2c>
		if (ul_attribute & PIO_DEBOUNCE) {
  400e36:	f012 0f08 	tst.w	r2, #8
  400e3a:	d008      	beq.n	400e4e <pio_set_input+0x30>
			p_pio->PIO_IFSCER = ul_mask;
  400e3c:	f8c0 1084 	str.w	r1, [r0, #132]	; 0x84
  400e40:	e005      	b.n	400e4e <pio_set_input+0x30>
		p_pio->PIO_PUER = ul_mask;
  400e42:	6641      	str	r1, [r0, #100]	; 0x64
  400e44:	e7f0      	b.n	400e28 <pio_set_input+0xa>
		p_pio->PIO_IFDR = ul_mask;
  400e46:	6241      	str	r1, [r0, #36]	; 0x24
  400e48:	e7f2      	b.n	400e30 <pio_set_input+0x12>
		p_pio->PIO_IFSCDR = ul_mask;
  400e4a:	f8c0 1080 	str.w	r1, [r0, #128]	; 0x80
	p_pio->PIO_ODR = ul_mask;
  400e4e:	6141      	str	r1, [r0, #20]
	p_pio->PIO_PER = ul_mask;
  400e50:	6001      	str	r1, [r0, #0]
  400e52:	4770      	bx	lr

00400e54 <pio_set_output>:
{
  400e54:	b410      	push	{r4}
  400e56:	9c01      	ldr	r4, [sp, #4]
	p_pio->PIO_IDR = ul_mask;
  400e58:	6441      	str	r1, [r0, #68]	; 0x44
	if (ul_pull_up_enable) {
  400e5a:	b94c      	cbnz	r4, 400e70 <pio_set_output+0x1c>
		p_pio->PIO_PUDR = ul_mask;
  400e5c:	6601      	str	r1, [r0, #96]	; 0x60
	if (ul_multidrive_enable) {
  400e5e:	b14b      	cbz	r3, 400e74 <pio_set_output+0x20>
		p_pio->PIO_MDER = ul_mask;
  400e60:	6501      	str	r1, [r0, #80]	; 0x50
	if (ul_default_level) {
  400e62:	b94a      	cbnz	r2, 400e78 <pio_set_output+0x24>
		p_pio->PIO_CODR = ul_mask;
  400e64:	6341      	str	r1, [r0, #52]	; 0x34
	p_pio->PIO_OER = ul_mask;
  400e66:	6101      	str	r1, [r0, #16]
	p_pio->PIO_PER = ul_mask;
  400e68:	6001      	str	r1, [r0, #0]
}
  400e6a:	f85d 4b04 	ldr.w	r4, [sp], #4
  400e6e:	4770      	bx	lr
		p_pio->PIO_PUER = ul_mask;
  400e70:	6641      	str	r1, [r0, #100]	; 0x64
  400e72:	e7f4      	b.n	400e5e <pio_set_output+0xa>
		p_pio->PIO_MDDR = ul_mask;
  400e74:	6541      	str	r1, [r0, #84]	; 0x54
  400e76:	e7f4      	b.n	400e62 <pio_set_output+0xe>
		p_pio->PIO_SODR = ul_mask;
  400e78:	6301      	str	r1, [r0, #48]	; 0x30
  400e7a:	e7f4      	b.n	400e66 <pio_set_output+0x12>

00400e7c <pio_configure>:
{
  400e7c:	b570      	push	{r4, r5, r6, lr}
  400e7e:	b082      	sub	sp, #8
  400e80:	4605      	mov	r5, r0
  400e82:	4616      	mov	r6, r2
  400e84:	461c      	mov	r4, r3
	switch (ul_type) {
  400e86:	f1b1 5f00 	cmp.w	r1, #536870912	; 0x20000000
  400e8a:	d014      	beq.n	400eb6 <pio_configure+0x3a>
  400e8c:	d90a      	bls.n	400ea4 <pio_configure+0x28>
  400e8e:	f1b1 5f40 	cmp.w	r1, #805306368	; 0x30000000
  400e92:	d024      	beq.n	400ede <pio_configure+0x62>
  400e94:	f1b1 5f60 	cmp.w	r1, #939524096	; 0x38000000
  400e98:	d021      	beq.n	400ede <pio_configure+0x62>
  400e9a:	f1b1 5f20 	cmp.w	r1, #671088640	; 0x28000000
  400e9e:	d017      	beq.n	400ed0 <pio_configure+0x54>
		return 0;
  400ea0:	2000      	movs	r0, #0
  400ea2:	e01a      	b.n	400eda <pio_configure+0x5e>
	switch (ul_type) {
  400ea4:	f1b1 5f80 	cmp.w	r1, #268435456	; 0x10000000
  400ea8:	d005      	beq.n	400eb6 <pio_configure+0x3a>
  400eaa:	f1b1 5fc0 	cmp.w	r1, #402653184	; 0x18000000
  400eae:	d002      	beq.n	400eb6 <pio_configure+0x3a>
  400eb0:	f1b1 6f00 	cmp.w	r1, #134217728	; 0x8000000
  400eb4:	d1f4      	bne.n	400ea0 <pio_configure+0x24>
		pio_set_peripheral(p_pio, ul_type, ul_mask);
  400eb6:	4632      	mov	r2, r6
  400eb8:	4628      	mov	r0, r5
  400eba:	4b11      	ldr	r3, [pc, #68]	; (400f00 <pio_configure+0x84>)
  400ebc:	4798      	blx	r3
	if (ul_pull_up_enable) {
  400ebe:	f014 0f01 	tst.w	r4, #1
  400ec2:	d102      	bne.n	400eca <pio_configure+0x4e>
		p_pio->PIO_PUDR = ul_mask;
  400ec4:	662e      	str	r6, [r5, #96]	; 0x60
	return 1;
  400ec6:	2001      	movs	r0, #1
  400ec8:	e007      	b.n	400eda <pio_configure+0x5e>
		p_pio->PIO_PUER = ul_mask;
  400eca:	666e      	str	r6, [r5, #100]	; 0x64
	return 1;
  400ecc:	2001      	movs	r0, #1
  400ece:	e004      	b.n	400eda <pio_configure+0x5e>
		pio_set_input(p_pio, ul_mask, ul_attribute);
  400ed0:	461a      	mov	r2, r3
  400ed2:	4631      	mov	r1, r6
  400ed4:	4b0b      	ldr	r3, [pc, #44]	; (400f04 <pio_configure+0x88>)
  400ed6:	4798      	blx	r3
	return 1;
  400ed8:	2001      	movs	r0, #1
}
  400eda:	b002      	add	sp, #8
  400edc:	bd70      	pop	{r4, r5, r6, pc}
		pio_set_output(p_pio, ul_mask, (ul_type == PIO_OUTPUT_1),
  400ede:	f004 0301 	and.w	r3, r4, #1
  400ee2:	9300      	str	r3, [sp, #0]
  400ee4:	f3c4 0380 	ubfx	r3, r4, #2, #1
  400ee8:	f1b1 5f60 	cmp.w	r1, #939524096	; 0x38000000
  400eec:	bf14      	ite	ne
  400eee:	2200      	movne	r2, #0
  400ef0:	2201      	moveq	r2, #1
  400ef2:	4631      	mov	r1, r6
  400ef4:	4628      	mov	r0, r5
  400ef6:	4c04      	ldr	r4, [pc, #16]	; (400f08 <pio_configure+0x8c>)
  400ef8:	47a0      	blx	r4
	return 1;
  400efa:	2001      	movs	r0, #1
		break;
  400efc:	e7ed      	b.n	400eda <pio_configure+0x5e>
  400efe:	bf00      	nop
  400f00:	00400d8d 	.word	0x00400d8d
  400f04:	00400e1f 	.word	0x00400e1f
  400f08:	00400e55 	.word	0x00400e55

00400f0c <pio_get_interrupt_status>:
 *
 * \return The interrupt status value.
 */
uint32_t pio_get_interrupt_status(const Pio *p_pio)
{
	return p_pio->PIO_ISR;
  400f0c:	6cc0      	ldr	r0, [r0, #76]	; 0x4c
}
  400f0e:	4770      	bx	lr

00400f10 <pio_get_interrupt_mask>:
 *
 * \return The interrupt mask value.
 */
uint32_t pio_get_interrupt_mask(const Pio *p_pio)
{
	return p_pio->PIO_IMR;
  400f10:	6c80      	ldr	r0, [r0, #72]	; 0x48
}
  400f12:	4770      	bx	lr

00400f14 <pio_set_pin_high>:
		p_pio = PIOC;
	} else {
		p_pio = (Pio *)((uint32_t)PIOA + (PIO_DELTA * (ul_pin >> 5)));
	}
#else
	p_pio = (Pio *)((uint32_t)PIOA + (PIO_DELTA * (ul_pin >> 5)));
  400f14:	4b05      	ldr	r3, [pc, #20]	; (400f2c <pio_set_pin_high+0x18>)
  400f16:	eb03 1350 	add.w	r3, r3, r0, lsr #5
  400f1a:	025b      	lsls	r3, r3, #9
	p_pio->PIO_SODR = 1 << (ul_pin & 0x1F);
  400f1c:	f000 001f 	and.w	r0, r0, #31
  400f20:	2201      	movs	r2, #1
  400f22:	fa02 f000 	lsl.w	r0, r2, r0
  400f26:	6318      	str	r0, [r3, #48]	; 0x30
  400f28:	4770      	bx	lr
  400f2a:	bf00      	nop
  400f2c:	00200707 	.word	0x00200707

00400f30 <pio_set_pin_low>:
	p_pio = (Pio *)((uint32_t)PIOA + (PIO_DELTA * (ul_pin >> 5)));
  400f30:	4b05      	ldr	r3, [pc, #20]	; (400f48 <pio_set_pin_low+0x18>)
  400f32:	eb03 1350 	add.w	r3, r3, r0, lsr #5
  400f36:	025b      	lsls	r3, r3, #9
	p_pio->PIO_CODR = 1 << (ul_pin & 0x1F);
  400f38:	f000 001f 	and.w	r0, r0, #31
  400f3c:	2201      	movs	r2, #1
  400f3e:	fa02 f000 	lsl.w	r0, r2, r0
  400f42:	6358      	str	r0, [r3, #52]	; 0x34
  400f44:	4770      	bx	lr
  400f46:	bf00      	nop
  400f48:	00200707 	.word	0x00200707

00400f4c <pio_configure_pin>:
{
  400f4c:	b570      	push	{r4, r5, r6, lr}
  400f4e:	b082      	sub	sp, #8
  400f50:	460d      	mov	r5, r1
	p_pio = (Pio *)((uint32_t)PIOA + (PIO_DELTA * (ul_pin >> 5)));
  400f52:	4c46      	ldr	r4, [pc, #280]	; (40106c <pio_configure_pin+0x120>)
  400f54:	eb04 1450 	add.w	r4, r4, r0, lsr #5
  400f58:	0264      	lsls	r4, r4, #9
	switch (ul_flags & PIO_TYPE_Msk) {
  400f5a:	f001 43f0 	and.w	r3, r1, #2013265920	; 0x78000000
  400f5e:	f1b3 5f00 	cmp.w	r3, #536870912	; 0x20000000
  400f62:	d059      	beq.n	401018 <pio_configure_pin+0xcc>
  400f64:	d80a      	bhi.n	400f7c <pio_configure_pin+0x30>
  400f66:	f1b3 5f80 	cmp.w	r3, #268435456	; 0x10000000
  400f6a:	d02f      	beq.n	400fcc <pio_configure_pin+0x80>
  400f6c:	f1b3 5fc0 	cmp.w	r3, #402653184	; 0x18000000
  400f70:	d03f      	beq.n	400ff2 <pio_configure_pin+0xa6>
  400f72:	f1b3 6f00 	cmp.w	r3, #134217728	; 0x8000000
  400f76:	d016      	beq.n	400fa6 <pio_configure_pin+0x5a>
		return 0;
  400f78:	2000      	movs	r0, #0
  400f7a:	e012      	b.n	400fa2 <pio_configure_pin+0x56>
	switch (ul_flags & PIO_TYPE_Msk) {
  400f7c:	f1b3 5f40 	cmp.w	r3, #805306368	; 0x30000000
  400f80:	d05d      	beq.n	40103e <pio_configure_pin+0xf2>
  400f82:	f1b3 5f60 	cmp.w	r3, #939524096	; 0x38000000
  400f86:	d05a      	beq.n	40103e <pio_configure_pin+0xf2>
  400f88:	f1b3 5f20 	cmp.w	r3, #671088640	; 0x28000000
  400f8c:	d1f4      	bne.n	400f78 <pio_configure_pin+0x2c>
		pio_set_input(p_pio, (1 << (ul_pin & 0x1F)), ul_flags);
  400f8e:	f000 011f 	and.w	r1, r0, #31
  400f92:	2601      	movs	r6, #1
  400f94:	462a      	mov	r2, r5
  400f96:	fa06 f101 	lsl.w	r1, r6, r1
  400f9a:	4620      	mov	r0, r4
  400f9c:	4b34      	ldr	r3, [pc, #208]	; (401070 <pio_configure_pin+0x124>)
  400f9e:	4798      	blx	r3
	return 1;
  400fa0:	4630      	mov	r0, r6
}
  400fa2:	b002      	add	sp, #8
  400fa4:	bd70      	pop	{r4, r5, r6, pc}
		pio_set_peripheral(p_pio, PIO_PERIPH_A, (1 << (ul_pin & 0x1F)));
  400fa6:	f000 001f 	and.w	r0, r0, #31
  400faa:	2601      	movs	r6, #1
  400fac:	4086      	lsls	r6, r0
  400fae:	4632      	mov	r2, r6
  400fb0:	f04f 6100 	mov.w	r1, #134217728	; 0x8000000
  400fb4:	4620      	mov	r0, r4
  400fb6:	4b2f      	ldr	r3, [pc, #188]	; (401074 <pio_configure_pin+0x128>)
  400fb8:	4798      	blx	r3
	if (ul_pull_up_enable) {
  400fba:	f015 0f01 	tst.w	r5, #1
  400fbe:	d102      	bne.n	400fc6 <pio_configure_pin+0x7a>
		p_pio->PIO_PUDR = ul_mask;
  400fc0:	6626      	str	r6, [r4, #96]	; 0x60
	return 1;
  400fc2:	2001      	movs	r0, #1
  400fc4:	e7ed      	b.n	400fa2 <pio_configure_pin+0x56>
		p_pio->PIO_PUER = ul_mask;
  400fc6:	6666      	str	r6, [r4, #100]	; 0x64
	return 1;
  400fc8:	2001      	movs	r0, #1
  400fca:	e7ea      	b.n	400fa2 <pio_configure_pin+0x56>
		pio_set_peripheral(p_pio, PIO_PERIPH_B, (1 << (ul_pin & 0x1F)));
  400fcc:	f000 001f 	and.w	r0, r0, #31
  400fd0:	2601      	movs	r6, #1
  400fd2:	4086      	lsls	r6, r0
  400fd4:	4632      	mov	r2, r6
  400fd6:	f04f 5180 	mov.w	r1, #268435456	; 0x10000000
  400fda:	4620      	mov	r0, r4
  400fdc:	4b25      	ldr	r3, [pc, #148]	; (401074 <pio_configure_pin+0x128>)
  400fde:	4798      	blx	r3
	if (ul_pull_up_enable) {
  400fe0:	f015 0f01 	tst.w	r5, #1
  400fe4:	d102      	bne.n	400fec <pio_configure_pin+0xa0>
		p_pio->PIO_PUDR = ul_mask;
  400fe6:	6626      	str	r6, [r4, #96]	; 0x60
	return 1;
  400fe8:	2001      	movs	r0, #1
  400fea:	e7da      	b.n	400fa2 <pio_configure_pin+0x56>
		p_pio->PIO_PUER = ul_mask;
  400fec:	6666      	str	r6, [r4, #100]	; 0x64
	return 1;
  400fee:	2001      	movs	r0, #1
  400ff0:	e7d7      	b.n	400fa2 <pio_configure_pin+0x56>
		pio_set_peripheral(p_pio, PIO_PERIPH_C, (1 << (ul_pin & 0x1F)));
  400ff2:	f000 001f 	and.w	r0, r0, #31
  400ff6:	2601      	movs	r6, #1
  400ff8:	4086      	lsls	r6, r0
  400ffa:	4632      	mov	r2, r6
  400ffc:	f04f 51c0 	mov.w	r1, #402653184	; 0x18000000
  401000:	4620      	mov	r0, r4
  401002:	4b1c      	ldr	r3, [pc, #112]	; (401074 <pio_configure_pin+0x128>)
  401004:	4798      	blx	r3
	if (ul_pull_up_enable) {
  401006:	f015 0f01 	tst.w	r5, #1
  40100a:	d102      	bne.n	401012 <pio_configure_pin+0xc6>
		p_pio->PIO_PUDR = ul_mask;
  40100c:	6626      	str	r6, [r4, #96]	; 0x60
	return 1;
  40100e:	2001      	movs	r0, #1
  401010:	e7c7      	b.n	400fa2 <pio_configure_pin+0x56>
		p_pio->PIO_PUER = ul_mask;
  401012:	6666      	str	r6, [r4, #100]	; 0x64
	return 1;
  401014:	2001      	movs	r0, #1
  401016:	e7c4      	b.n	400fa2 <pio_configure_pin+0x56>
		pio_set_peripheral(p_pio, PIO_PERIPH_D, (1 << (ul_pin & 0x1F)));
  401018:	f000 001f 	and.w	r0, r0, #31
  40101c:	2601      	movs	r6, #1
  40101e:	4086      	lsls	r6, r0
  401020:	4632      	mov	r2, r6
  401022:	f04f 5100 	mov.w	r1, #536870912	; 0x20000000
  401026:	4620      	mov	r0, r4
  401028:	4b12      	ldr	r3, [pc, #72]	; (401074 <pio_configure_pin+0x128>)
  40102a:	4798      	blx	r3
	if (ul_pull_up_enable) {
  40102c:	f015 0f01 	tst.w	r5, #1
  401030:	d102      	bne.n	401038 <pio_configure_pin+0xec>
		p_pio->PIO_PUDR = ul_mask;
  401032:	6626      	str	r6, [r4, #96]	; 0x60
	return 1;
  401034:	2001      	movs	r0, #1
  401036:	e7b4      	b.n	400fa2 <pio_configure_pin+0x56>
		p_pio->PIO_PUER = ul_mask;
  401038:	6666      	str	r6, [r4, #100]	; 0x64
	return 1;
  40103a:	2001      	movs	r0, #1
  40103c:	e7b1      	b.n	400fa2 <pio_configure_pin+0x56>
				((ul_flags & PIO_TYPE_PIO_OUTPUT_1)
  40103e:	f005 5260 	and.w	r2, r5, #939524096	; 0x38000000
		pio_set_output(p_pio, (1 << (ul_pin & 0x1F)),
  401042:	f000 011f 	and.w	r1, r0, #31
  401046:	2601      	movs	r6, #1
  401048:	ea05 0306 	and.w	r3, r5, r6
  40104c:	9300      	str	r3, [sp, #0]
  40104e:	f3c5 0380 	ubfx	r3, r5, #2, #1
  401052:	f1b2 5f60 	cmp.w	r2, #939524096	; 0x38000000
  401056:	bf14      	ite	ne
  401058:	2200      	movne	r2, #0
  40105a:	2201      	moveq	r2, #1
  40105c:	fa06 f101 	lsl.w	r1, r6, r1
  401060:	4620      	mov	r0, r4
  401062:	4c05      	ldr	r4, [pc, #20]	; (401078 <pio_configure_pin+0x12c>)
  401064:	47a0      	blx	r4
	return 1;
  401066:	4630      	mov	r0, r6
		break;
  401068:	e79b      	b.n	400fa2 <pio_configure_pin+0x56>
  40106a:	bf00      	nop
  40106c:	00200707 	.word	0x00200707
  401070:	00400e1f 	.word	0x00400e1f
  401074:	00400d8d 	.word	0x00400d8d
  401078:	00400e55 	.word	0x00400e55

0040107c <pio_handler_process>:
 *
 * \param p_pio PIO controller base address.
 * \param ul_id PIO controller ID.
 */
void pio_handler_process(Pio *p_pio, uint32_t ul_id)
{
  40107c:	e92d 41f0 	stmdb	sp!, {r4, r5, r6, r7, r8, lr}
  401080:	4604      	mov	r4, r0
  401082:	4688      	mov	r8, r1
	uint32_t status;
	uint32_t i;

	/* Read PIO controller status */
	status = pio_get_interrupt_status(p_pio);
  401084:	4b0e      	ldr	r3, [pc, #56]	; (4010c0 <pio_handler_process+0x44>)
  401086:	4798      	blx	r3
  401088:	4605      	mov	r5, r0
	status &= pio_get_interrupt_mask(p_pio);
  40108a:	4620      	mov	r0, r4
  40108c:	4b0d      	ldr	r3, [pc, #52]	; (4010c4 <pio_handler_process+0x48>)
  40108e:	4798      	blx	r3

	/* Check pending events */
	if (status != 0) {
  401090:	4005      	ands	r5, r0
  401092:	d013      	beq.n	4010bc <pio_handler_process+0x40>
  401094:	4c0c      	ldr	r4, [pc, #48]	; (4010c8 <pio_handler_process+0x4c>)
  401096:	f104 0660 	add.w	r6, r4, #96	; 0x60
  40109a:	e003      	b.n	4010a4 <pio_handler_process+0x28>
							gs_interrupt_sources[i].mask);
					status &= ~(gs_interrupt_sources[i].mask);
				}
			}
			i++;
			if (i >= MAX_INTERRUPT_SOURCES) {
  40109c:	42b4      	cmp	r4, r6
  40109e:	d00d      	beq.n	4010bc <pio_handler_process+0x40>
  4010a0:	3410      	adds	r4, #16
		while (status != 0) {
  4010a2:	b15d      	cbz	r5, 4010bc <pio_handler_process+0x40>
			if (gs_interrupt_sources[i].id == ul_id) {
  4010a4:	6820      	ldr	r0, [r4, #0]
  4010a6:	4540      	cmp	r0, r8
  4010a8:	d1f8      	bne.n	40109c <pio_handler_process+0x20>
				if ((status & gs_interrupt_sources[i].mask) != 0) {
  4010aa:	6861      	ldr	r1, [r4, #4]
  4010ac:	4229      	tst	r1, r5
  4010ae:	d0f5      	beq.n	40109c <pio_handler_process+0x20>
					gs_interrupt_sources[i].handler(gs_interrupt_sources[i].id,
  4010b0:	68e3      	ldr	r3, [r4, #12]
  4010b2:	4798      	blx	r3
					status &= ~(gs_interrupt_sources[i].mask);
  4010b4:	6863      	ldr	r3, [r4, #4]
  4010b6:	ea25 0503 	bic.w	r5, r5, r3
  4010ba:	e7ef      	b.n	40109c <pio_handler_process+0x20>
  4010bc:	e8bd 81f0 	ldmia.w	sp!, {r4, r5, r6, r7, r8, pc}
  4010c0:	00400f0d 	.word	0x00400f0d
  4010c4:	00400f11 	.word	0x00400f11
  4010c8:	20400d94 	.word	0x20400d94

004010cc <PIOA_Handler>:
/**
 * \brief Parallel IO Controller A interrupt handler.
 * Redefined PIOA interrupt handler for NVIC interrupt table.
 */
void PIOA_Handler(void)
{
  4010cc:	b508      	push	{r3, lr}
	pio_handler_process(PIOA, ID_PIOA);
  4010ce:	210a      	movs	r1, #10
  4010d0:	4801      	ldr	r0, [pc, #4]	; (4010d8 <PIOA_Handler+0xc>)
  4010d2:	4b02      	ldr	r3, [pc, #8]	; (4010dc <PIOA_Handler+0x10>)
  4010d4:	4798      	blx	r3
  4010d6:	bd08      	pop	{r3, pc}
  4010d8:	400e0e00 	.word	0x400e0e00
  4010dc:	0040107d 	.word	0x0040107d

004010e0 <PIOB_Handler>:
/**
 * \brief Parallel IO Controller B interrupt handler
 * Redefined PIOB interrupt handler for NVIC interrupt table.
 */
void PIOB_Handler(void)
{
  4010e0:	b508      	push	{r3, lr}
    pio_handler_process(PIOB, ID_PIOB);
  4010e2:	210b      	movs	r1, #11
  4010e4:	4801      	ldr	r0, [pc, #4]	; (4010ec <PIOB_Handler+0xc>)
  4010e6:	4b02      	ldr	r3, [pc, #8]	; (4010f0 <PIOB_Handler+0x10>)
  4010e8:	4798      	blx	r3
  4010ea:	bd08      	pop	{r3, pc}
  4010ec:	400e1000 	.word	0x400e1000
  4010f0:	0040107d 	.word	0x0040107d

004010f4 <PIOC_Handler>:
/**
 * \brief Parallel IO Controller C interrupt handler.
 * Redefined PIOC interrupt handler for NVIC interrupt table.
 */
void PIOC_Handler(void)
{
  4010f4:	b508      	push	{r3, lr}
	pio_handler_process(PIOC, ID_PIOC);
  4010f6:	210c      	movs	r1, #12
  4010f8:	4801      	ldr	r0, [pc, #4]	; (401100 <PIOC_Handler+0xc>)
  4010fa:	4b02      	ldr	r3, [pc, #8]	; (401104 <PIOC_Handler+0x10>)
  4010fc:	4798      	blx	r3
  4010fe:	bd08      	pop	{r3, pc}
  401100:	400e1200 	.word	0x400e1200
  401104:	0040107d 	.word	0x0040107d

00401108 <PIOD_Handler>:
/**
 * \brief Parallel IO Controller D interrupt handler.
 * Redefined PIOD interrupt handler for NVIC interrupt table.
 */
void PIOD_Handler(void)
{
  401108:	b508      	push	{r3, lr}
	pio_handler_process(PIOD, ID_PIOD);
  40110a:	2110      	movs	r1, #16
  40110c:	4801      	ldr	r0, [pc, #4]	; (401114 <PIOD_Handler+0xc>)
  40110e:	4b02      	ldr	r3, [pc, #8]	; (401118 <PIOD_Handler+0x10>)
  401110:	4798      	blx	r3
  401112:	bd08      	pop	{r3, pc}
  401114:	400e1400 	.word	0x400e1400
  401118:	0040107d 	.word	0x0040107d

0040111c <PIOE_Handler>:
/**
 * \brief Parallel IO Controller E interrupt handler.
 * Redefined PIOE interrupt handler for NVIC interrupt table.
 */
void PIOE_Handler(void)
{
  40111c:	b508      	push	{r3, lr}
	pio_handler_process(PIOE, ID_PIOE);
  40111e:	2111      	movs	r1, #17
  401120:	4801      	ldr	r0, [pc, #4]	; (401128 <PIOE_Handler+0xc>)
  401122:	4b02      	ldr	r3, [pc, #8]	; (40112c <PIOE_Handler+0x10>)
  401124:	4798      	blx	r3
  401126:	bd08      	pop	{r3, pc}
  401128:	400e1600 	.word	0x400e1600
  40112c:	0040107d 	.word	0x0040107d

00401130 <pmc_mck_set_division>:
 *
 * \param ul_div Division value.
 */
void pmc_mck_set_division(uint32_t ul_div)
{
	switch (ul_div) {
  401130:	2803      	cmp	r0, #3
  401132:	d011      	beq.n	401158 <pmc_mck_set_division+0x28>
  401134:	2804      	cmp	r0, #4
  401136:	d012      	beq.n	40115e <pmc_mck_set_division+0x2e>
		case 1:
			ul_div = PMC_MCKR_MDIV_EQ_PCK;
  401138:	2802      	cmp	r0, #2
  40113a:	bf0c      	ite	eq
  40113c:	f44f 7180 	moveq.w	r1, #256	; 0x100
  401140:	2100      	movne	r1, #0
		default:
			ul_div = PMC_MCKR_MDIV_EQ_PCK;
			break;
	}
	PMC->PMC_MCKR =
			(PMC->PMC_MCKR & (~PMC_MCKR_MDIV_Msk)) | ul_div;
  401142:	4a08      	ldr	r2, [pc, #32]	; (401164 <pmc_mck_set_division+0x34>)
  401144:	6b13      	ldr	r3, [r2, #48]	; 0x30
  401146:	f423 7340 	bic.w	r3, r3, #768	; 0x300
  40114a:	430b      	orrs	r3, r1
	PMC->PMC_MCKR =
  40114c:	6313      	str	r3, [r2, #48]	; 0x30
	while (!(PMC->PMC_SR & PMC_SR_MCKRDY));
  40114e:	6e93      	ldr	r3, [r2, #104]	; 0x68
  401150:	f013 0f08 	tst.w	r3, #8
  401154:	d0fb      	beq.n	40114e <pmc_mck_set_division+0x1e>
}
  401156:	4770      	bx	lr
			ul_div = PMC_MCKR_MDIV_PCK_DIV3;
  401158:	f44f 7140 	mov.w	r1, #768	; 0x300
			break;
  40115c:	e7f1      	b.n	401142 <pmc_mck_set_division+0x12>
			ul_div = PMC_MCKR_MDIV_PCK_DIV4;
  40115e:	f44f 7100 	mov.w	r1, #512	; 0x200
			break;
  401162:	e7ee      	b.n	401142 <pmc_mck_set_division+0x12>
  401164:	400e0600 	.word	0x400e0600

00401168 <pmc_switch_mck_to_pllack>:
 */
uint32_t pmc_switch_mck_to_pllack(uint32_t ul_pres)
{
	uint32_t ul_timeout;

	PMC->PMC_MCKR = (PMC->PMC_MCKR & (~PMC_MCKR_PRES_Msk)) | ul_pres;
  401168:	4a17      	ldr	r2, [pc, #92]	; (4011c8 <pmc_switch_mck_to_pllack+0x60>)
  40116a:	6b13      	ldr	r3, [r2, #48]	; 0x30
  40116c:	f023 0370 	bic.w	r3, r3, #112	; 0x70
  401170:	4318      	orrs	r0, r3
  401172:	6310      	str	r0, [r2, #48]	; 0x30
	for (ul_timeout = PMC_TIMEOUT; !(PMC->PMC_SR & PMC_SR_MCKRDY);
  401174:	6e93      	ldr	r3, [r2, #104]	; 0x68
  401176:	f013 0f08 	tst.w	r3, #8
  40117a:	d10a      	bne.n	401192 <pmc_switch_mck_to_pllack+0x2a>
  40117c:	f44f 5380 	mov.w	r3, #4096	; 0x1000
  401180:	4911      	ldr	r1, [pc, #68]	; (4011c8 <pmc_switch_mck_to_pllack+0x60>)
  401182:	6e8a      	ldr	r2, [r1, #104]	; 0x68
  401184:	f012 0f08 	tst.w	r2, #8
  401188:	d103      	bne.n	401192 <pmc_switch_mck_to_pllack+0x2a>
			--ul_timeout) {
		if (ul_timeout == 0) {
  40118a:	3b01      	subs	r3, #1
  40118c:	d1f9      	bne.n	401182 <pmc_switch_mck_to_pllack+0x1a>
			return 1;
  40118e:	2001      	movs	r0, #1
  401190:	4770      	bx	lr
		}
	}

	PMC->PMC_MCKR = (PMC->PMC_MCKR & (~PMC_MCKR_CSS_Msk)) |
  401192:	4a0d      	ldr	r2, [pc, #52]	; (4011c8 <pmc_switch_mck_to_pllack+0x60>)
  401194:	6b13      	ldr	r3, [r2, #48]	; 0x30
  401196:	f023 0303 	bic.w	r3, r3, #3
  40119a:	f043 0302 	orr.w	r3, r3, #2
  40119e:	6313      	str	r3, [r2, #48]	; 0x30
			PMC_MCKR_CSS_PLLA_CLK;

	for (ul_timeout = PMC_TIMEOUT; !(PMC->PMC_SR & PMC_SR_MCKRDY);
  4011a0:	6e93      	ldr	r3, [r2, #104]	; 0x68
  4011a2:	f013 0f08 	tst.w	r3, #8
  4011a6:	d10a      	bne.n	4011be <pmc_switch_mck_to_pllack+0x56>
  4011a8:	f44f 5380 	mov.w	r3, #4096	; 0x1000
  4011ac:	4906      	ldr	r1, [pc, #24]	; (4011c8 <pmc_switch_mck_to_pllack+0x60>)
  4011ae:	6e8a      	ldr	r2, [r1, #104]	; 0x68
  4011b0:	f012 0f08 	tst.w	r2, #8
  4011b4:	d105      	bne.n	4011c2 <pmc_switch_mck_to_pllack+0x5a>
			--ul_timeout) {
		if (ul_timeout == 0) {
  4011b6:	3b01      	subs	r3, #1
  4011b8:	d1f9      	bne.n	4011ae <pmc_switch_mck_to_pllack+0x46>
			return 1;
  4011ba:	2001      	movs	r0, #1
		}
	}

	return 0;
}
  4011bc:	4770      	bx	lr
	return 0;
  4011be:	2000      	movs	r0, #0
  4011c0:	4770      	bx	lr
  4011c2:	2000      	movs	r0, #0
  4011c4:	4770      	bx	lr
  4011c6:	bf00      	nop
  4011c8:	400e0600 	.word	0x400e0600

004011cc <pmc_switch_mainck_to_xtal>:
 */
void pmc_switch_mainck_to_xtal(uint32_t ul_bypass,
		uint32_t ul_xtal_startup_time)
{
	/* Enable Main Xtal oscillator */
	if (ul_bypass) {
  4011cc:	b9a0      	cbnz	r0, 4011f8 <pmc_switch_mainck_to_xtal+0x2c>
		PMC->CKGR_MOR = (PMC->CKGR_MOR & ~CKGR_MOR_MOSCXTEN) |
				CKGR_MOR_KEY_PASSWD | CKGR_MOR_MOSCXTBY |
				CKGR_MOR_MOSCSEL;
	} else {
		PMC->CKGR_MOR = (PMC->CKGR_MOR & ~CKGR_MOR_MOSCXTBY) |
  4011ce:	480e      	ldr	r0, [pc, #56]	; (401208 <pmc_switch_mainck_to_xtal+0x3c>)
  4011d0:	6a03      	ldr	r3, [r0, #32]
				CKGR_MOR_KEY_PASSWD | CKGR_MOR_MOSCXTEN |
				CKGR_MOR_MOSCXTST(ul_xtal_startup_time);
  4011d2:	0209      	lsls	r1, r1, #8
  4011d4:	b289      	uxth	r1, r1
				CKGR_MOR_KEY_PASSWD | CKGR_MOR_MOSCXTEN |
  4011d6:	4a0d      	ldr	r2, [pc, #52]	; (40120c <pmc_switch_mainck_to_xtal+0x40>)
  4011d8:	401a      	ands	r2, r3
  4011da:	4b0d      	ldr	r3, [pc, #52]	; (401210 <pmc_switch_mainck_to_xtal+0x44>)
  4011dc:	4313      	orrs	r3, r2
  4011de:	4319      	orrs	r1, r3
		PMC->CKGR_MOR = (PMC->CKGR_MOR & ~CKGR_MOR_MOSCXTBY) |
  4011e0:	6201      	str	r1, [r0, #32]
		/* Wait the Xtal to stabilize */
		while (!(PMC->PMC_SR & PMC_SR_MOSCXTS));
  4011e2:	4602      	mov	r2, r0
  4011e4:	6e93      	ldr	r3, [r2, #104]	; 0x68
  4011e6:	f013 0f01 	tst.w	r3, #1
  4011ea:	d0fb      	beq.n	4011e4 <pmc_switch_mainck_to_xtal+0x18>

		PMC->CKGR_MOR |= CKGR_MOR_KEY_PASSWD | CKGR_MOR_MOSCSEL;
  4011ec:	4a06      	ldr	r2, [pc, #24]	; (401208 <pmc_switch_mainck_to_xtal+0x3c>)
  4011ee:	6a11      	ldr	r1, [r2, #32]
  4011f0:	4b08      	ldr	r3, [pc, #32]	; (401214 <pmc_switch_mainck_to_xtal+0x48>)
  4011f2:	430b      	orrs	r3, r1
  4011f4:	6213      	str	r3, [r2, #32]
  4011f6:	4770      	bx	lr
		PMC->CKGR_MOR = (PMC->CKGR_MOR & ~CKGR_MOR_MOSCXTEN) |
  4011f8:	4903      	ldr	r1, [pc, #12]	; (401208 <pmc_switch_mainck_to_xtal+0x3c>)
  4011fa:	6a0b      	ldr	r3, [r1, #32]
				CKGR_MOR_KEY_PASSWD | CKGR_MOR_MOSCXTBY |
  4011fc:	4a06      	ldr	r2, [pc, #24]	; (401218 <pmc_switch_mainck_to_xtal+0x4c>)
  4011fe:	401a      	ands	r2, r3
  401200:	4b06      	ldr	r3, [pc, #24]	; (40121c <pmc_switch_mainck_to_xtal+0x50>)
  401202:	4313      	orrs	r3, r2
		PMC->CKGR_MOR = (PMC->CKGR_MOR & ~CKGR_MOR_MOSCXTEN) |
  401204:	620b      	str	r3, [r1, #32]
  401206:	4770      	bx	lr
  401208:	400e0600 	.word	0x400e0600
  40120c:	ffc8fffc 	.word	0xffc8fffc
  401210:	00370001 	.word	0x00370001
  401214:	01370000 	.word	0x01370000
  401218:	fec8fffc 	.word	0xfec8fffc
  40121c:	01370002 	.word	0x01370002

00401220 <pmc_osc_is_ready_mainck>:
 * \retval 1 Xtal is ready.
 * \retval 0 Xtal is not ready.
 */
uint32_t pmc_osc_is_ready_mainck(void)
{
	return PMC->PMC_SR & PMC_SR_MOSCSELS;
  401220:	4b02      	ldr	r3, [pc, #8]	; (40122c <pmc_osc_is_ready_mainck+0xc>)
  401222:	6e98      	ldr	r0, [r3, #104]	; 0x68
}
  401224:	f400 3080 	and.w	r0, r0, #65536	; 0x10000
  401228:	4770      	bx	lr
  40122a:	bf00      	nop
  40122c:	400e0600 	.word	0x400e0600

00401230 <pmc_disable_pllack>:
void pmc_disable_pllack(void)
{
#if (SAM4C || SAM4CM || SAM4CP || SAMG)
	PMC->CKGR_PLLAR = CKGR_PLLAR_MULA(0);
#else
	PMC->CKGR_PLLAR = CKGR_PLLAR_ONE | CKGR_PLLAR_MULA(0);
  401230:	f04f 5200 	mov.w	r2, #536870912	; 0x20000000
  401234:	4b01      	ldr	r3, [pc, #4]	; (40123c <pmc_disable_pllack+0xc>)
  401236:	629a      	str	r2, [r3, #40]	; 0x28
  401238:	4770      	bx	lr
  40123a:	bf00      	nop
  40123c:	400e0600 	.word	0x400e0600

00401240 <pmc_is_locked_pllack>:
 * \retval 0 Not locked.
 * \retval 1 Locked.
 */
uint32_t pmc_is_locked_pllack(void)
{
	return (PMC->PMC_SR & PMC_SR_LOCKA);
  401240:	4b02      	ldr	r3, [pc, #8]	; (40124c <pmc_is_locked_pllack+0xc>)
  401242:	6e98      	ldr	r0, [r3, #104]	; 0x68
}
  401244:	f000 0002 	and.w	r0, r0, #2
  401248:	4770      	bx	lr
  40124a:	bf00      	nop
  40124c:	400e0600 	.word	0x400e0600

00401250 <pmc_enable_periph_clk>:
 * \retval 0 Success.
 * \retval 1 Invalid parameter.
 */
uint32_t pmc_enable_periph_clk(uint32_t ul_id)
{
	if (ul_id > MAX_PERIPH_ID) {
  401250:	283f      	cmp	r0, #63	; 0x3f
  401252:	d81e      	bhi.n	401292 <pmc_enable_periph_clk+0x42>
		return 1;
	}

	if (ul_id < 32) {
  401254:	281f      	cmp	r0, #31
  401256:	d80c      	bhi.n	401272 <pmc_enable_periph_clk+0x22>
		if ((PMC->PMC_PCSR0 & (1u << ul_id)) != (1u << ul_id)) {
  401258:	4b11      	ldr	r3, [pc, #68]	; (4012a0 <pmc_enable_periph_clk+0x50>)
  40125a:	699a      	ldr	r2, [r3, #24]
  40125c:	2301      	movs	r3, #1
  40125e:	4083      	lsls	r3, r0
  401260:	4393      	bics	r3, r2
  401262:	d018      	beq.n	401296 <pmc_enable_periph_clk+0x46>
			PMC->PMC_PCER0 = 1 << ul_id;
  401264:	2301      	movs	r3, #1
  401266:	fa03 f000 	lsl.w	r0, r3, r0
  40126a:	4b0d      	ldr	r3, [pc, #52]	; (4012a0 <pmc_enable_periph_clk+0x50>)
  40126c:	6118      	str	r0, [r3, #16]
			PMC->PMC_PCER1 = 1 << ul_id;
		}
#endif
	}

	return 0;
  40126e:	2000      	movs	r0, #0
  401270:	4770      	bx	lr
		ul_id -= 32;
  401272:	3820      	subs	r0, #32
		if ((PMC->PMC_PCSR1 & (1u << ul_id)) != (1u << ul_id)) {
  401274:	4b0a      	ldr	r3, [pc, #40]	; (4012a0 <pmc_enable_periph_clk+0x50>)
  401276:	f8d3 2108 	ldr.w	r2, [r3, #264]	; 0x108
  40127a:	2301      	movs	r3, #1
  40127c:	4083      	lsls	r3, r0
  40127e:	4393      	bics	r3, r2
  401280:	d00b      	beq.n	40129a <pmc_enable_periph_clk+0x4a>
			PMC->PMC_PCER1 = 1 << ul_id;
  401282:	2301      	movs	r3, #1
  401284:	fa03 f000 	lsl.w	r0, r3, r0
  401288:	4b05      	ldr	r3, [pc, #20]	; (4012a0 <pmc_enable_periph_clk+0x50>)
  40128a:	f8c3 0100 	str.w	r0, [r3, #256]	; 0x100
	return 0;
  40128e:	2000      	movs	r0, #0
  401290:	4770      	bx	lr
		return 1;
  401292:	2001      	movs	r0, #1
  401294:	4770      	bx	lr
	return 0;
  401296:	2000      	movs	r0, #0
  401298:	4770      	bx	lr
  40129a:	2000      	movs	r0, #0
}
  40129c:	4770      	bx	lr
  40129e:	bf00      	nop
  4012a0:	400e0600 	.word	0x400e0600

004012a4 <spi_enable_clock>:
 * \brief Enable SPI clock.
 *
 * \param p_spi Pointer to an SPI instance.
 */
void spi_enable_clock(Spi *p_spi)
{
  4012a4:	b508      	push	{r3, lr}
#if (SAM4S || SAM3S || SAM3N || SAM3U || SAM4E || SAM4N || SAMG51|| SAMG53|| SAMG54)
	UNUSED(p_spi);
	sysclk_enable_peripheral_clock(ID_SPI);
#elif (SAM3XA || SAM4C || SAM4CP || SAM4CM || SAMV71 || SAMV70 || SAME70 || SAMS70)
	if (p_spi == SPI0) {
  4012a6:	4b07      	ldr	r3, [pc, #28]	; (4012c4 <spi_enable_clock+0x20>)
  4012a8:	4298      	cmp	r0, r3
  4012aa:	d003      	beq.n	4012b4 <spi_enable_clock+0x10>
		sysclk_enable_peripheral_clock(ID_SPI0);
	}
	#ifdef SPI1
	else if (p_spi == SPI1) {
  4012ac:	4b06      	ldr	r3, [pc, #24]	; (4012c8 <spi_enable_clock+0x24>)
  4012ae:	4298      	cmp	r0, r3
  4012b0:	d004      	beq.n	4012bc <spi_enable_clock+0x18>
  4012b2:	bd08      	pop	{r3, pc}
  4012b4:	2015      	movs	r0, #21
  4012b6:	4b05      	ldr	r3, [pc, #20]	; (4012cc <spi_enable_clock+0x28>)
  4012b8:	4798      	blx	r3
  4012ba:	bd08      	pop	{r3, pc}
  4012bc:	202a      	movs	r0, #42	; 0x2a
  4012be:	4b03      	ldr	r3, [pc, #12]	; (4012cc <spi_enable_clock+0x28>)
  4012c0:	4798      	blx	r3
	}
	#endif
#elif SAM4L
	sysclk_enable_peripheral_clock(p_spi);
#endif
}
  4012c2:	e7f6      	b.n	4012b2 <spi_enable_clock+0xe>
  4012c4:	40008000 	.word	0x40008000
  4012c8:	40058000 	.word	0x40058000
  4012cc:	00401251 	.word	0x00401251

004012d0 <spi_set_peripheral_chip_select_value>:
 *                 \ref spi_enable_peripheral_select_decode,
 *                 \ref spi_disable_peripheral_select_decode.
 */
void spi_set_peripheral_chip_select_value(Spi *p_spi, uint32_t ul_value)
{
	p_spi->SPI_MR &= (~SPI_MR_PCS_Msk);
  4012d0:	6843      	ldr	r3, [r0, #4]
  4012d2:	f423 2370 	bic.w	r3, r3, #983040	; 0xf0000
  4012d6:	6043      	str	r3, [r0, #4]
	p_spi->SPI_MR |= SPI_MR_PCS(ul_value);
  4012d8:	6843      	ldr	r3, [r0, #4]
  4012da:	0409      	lsls	r1, r1, #16
  4012dc:	f401 2170 	and.w	r1, r1, #983040	; 0xf0000
  4012e0:	4319      	orrs	r1, r3
  4012e2:	6041      	str	r1, [r0, #4]
  4012e4:	4770      	bx	lr

004012e6 <spi_set_delay_between_chip_select>:
 * \param p_spi Pointer to an SPI instance.
 * \param ul_delay Delay between chip selects (in number of MCK clocks).
 */
void spi_set_delay_between_chip_select(Spi *p_spi, uint32_t ul_delay)
{
	p_spi->SPI_MR &= (~SPI_MR_DLYBCS_Msk);
  4012e6:	6843      	ldr	r3, [r0, #4]
  4012e8:	f023 437f 	bic.w	r3, r3, #4278190080	; 0xff000000
  4012ec:	6043      	str	r3, [r0, #4]
	p_spi->SPI_MR |= SPI_MR_DLYBCS(ul_delay);
  4012ee:	6843      	ldr	r3, [r0, #4]
  4012f0:	ea43 6101 	orr.w	r1, r3, r1, lsl #24
  4012f4:	6041      	str	r1, [r0, #4]
  4012f6:	4770      	bx	lr

004012f8 <spi_write>:
 * \retval SPI_OK on Success.
 * \retval SPI_ERROR_TIMEOUT on Time-out.
 */
spi_status_t spi_write(Spi *p_spi, uint16_t us_data,
		uint8_t uc_pcs, uint8_t uc_last)
{
  4012f8:	b430      	push	{r4, r5}
	uint32_t timeout = SPI_TIMEOUT;
	uint32_t value;

	while (!(p_spi->SPI_SR & SPI_SR_TDRE)) {
  4012fa:	f643 2499 	movw	r4, #15001	; 0x3a99
  4012fe:	6905      	ldr	r5, [r0, #16]
  401300:	f015 0f02 	tst.w	r5, #2
  401304:	d103      	bne.n	40130e <spi_write+0x16>
		if (!timeout--) {
  401306:	3c01      	subs	r4, #1
  401308:	d1f9      	bne.n	4012fe <spi_write+0x6>
			return SPI_ERROR_TIMEOUT;
  40130a:	2001      	movs	r0, #1
  40130c:	e00c      	b.n	401328 <spi_write+0x30>
	if (p_spi->SPI_MR & SPI_MR_PS) {
  40130e:	6844      	ldr	r4, [r0, #4]
		}
	}

	if (spi_get_peripheral_select_mode(p_spi)) {
  401310:	f014 0f02 	tst.w	r4, #2
  401314:	d006      	beq.n	401324 <spi_write+0x2c>
		value = SPI_TDR_TD(us_data) | SPI_TDR_PCS(uc_pcs);
  401316:	0412      	lsls	r2, r2, #16
  401318:	f402 2270 	and.w	r2, r2, #983040	; 0xf0000
  40131c:	4311      	orrs	r1, r2
		if (uc_last) {
  40131e:	b10b      	cbz	r3, 401324 <spi_write+0x2c>
			value |= SPI_TDR_LASTXFER;
  401320:	f041 7180 	orr.w	r1, r1, #16777216	; 0x1000000
		}
	} else {
		value = SPI_TDR_TD(us_data);
	}

	p_spi->SPI_TDR = value;
  401324:	60c1      	str	r1, [r0, #12]

	return SPI_OK;
  401326:	2000      	movs	r0, #0
}
  401328:	bc30      	pop	{r4, r5}
  40132a:	4770      	bx	lr

0040132c <spi_set_clock_polarity>:
 * \param ul_polarity Default clock state is logical one(high)/zero(low).
 */
void spi_set_clock_polarity(Spi *p_spi, uint32_t ul_pcs_ch,
		uint32_t ul_polarity)
{
	if (ul_polarity) {
  40132c:	b932      	cbnz	r2, 40133c <spi_set_clock_polarity+0x10>
  40132e:	eb00 0081 	add.w	r0, r0, r1, lsl #2
		p_spi->SPI_CSR[ul_pcs_ch] |= SPI_CSR_CPOL;
	} else {
		p_spi->SPI_CSR[ul_pcs_ch] &= (~SPI_CSR_CPOL);
  401332:	6b03      	ldr	r3, [r0, #48]	; 0x30
  401334:	f023 0301 	bic.w	r3, r3, #1
  401338:	6303      	str	r3, [r0, #48]	; 0x30
  40133a:	4770      	bx	lr
  40133c:	eb00 0081 	add.w	r0, r0, r1, lsl #2
		p_spi->SPI_CSR[ul_pcs_ch] |= SPI_CSR_CPOL;
  401340:	6b03      	ldr	r3, [r0, #48]	; 0x30
  401342:	f043 0301 	orr.w	r3, r3, #1
  401346:	6303      	str	r3, [r0, #48]	; 0x30
  401348:	4770      	bx	lr

0040134a <spi_set_clock_phase>:
 *  \param ul_pcs_ch Peripheral Chip Select channel (0~3).
 *  \param ul_phase Data capture on the rising/falling edge of clock.
 */
void spi_set_clock_phase(Spi *p_spi, uint32_t ul_pcs_ch, uint32_t ul_phase)
{
	if (ul_phase) {
  40134a:	b932      	cbnz	r2, 40135a <spi_set_clock_phase+0x10>
  40134c:	eb00 0081 	add.w	r0, r0, r1, lsl #2
		p_spi->SPI_CSR[ul_pcs_ch] |= SPI_CSR_NCPHA;
	} else {
		p_spi->SPI_CSR[ul_pcs_ch] &= (~SPI_CSR_NCPHA);
  401350:	6b03      	ldr	r3, [r0, #48]	; 0x30
  401352:	f023 0302 	bic.w	r3, r3, #2
  401356:	6303      	str	r3, [r0, #48]	; 0x30
  401358:	4770      	bx	lr
  40135a:	eb00 0081 	add.w	r0, r0, r1, lsl #2
		p_spi->SPI_CSR[ul_pcs_ch] |= SPI_CSR_NCPHA;
  40135e:	6b03      	ldr	r3, [r0, #48]	; 0x30
  401360:	f043 0302 	orr.w	r3, r3, #2
  401364:	6303      	str	r3, [r0, #48]	; 0x30
  401366:	4770      	bx	lr

00401368 <spi_configure_cs_behavior>:
 * \param ul_cs_behavior Behavior of the Chip Select after transfer.
 */
void spi_configure_cs_behavior(Spi *p_spi, uint32_t ul_pcs_ch,
		uint32_t ul_cs_behavior)
{
	if (ul_cs_behavior == SPI_CS_RISE_FORCED) {
  401368:	2a04      	cmp	r2, #4
  40136a:	d003      	beq.n	401374 <spi_configure_cs_behavior+0xc>
		p_spi->SPI_CSR[ul_pcs_ch] &= (~SPI_CSR_CSAAT);
		p_spi->SPI_CSR[ul_pcs_ch] |= SPI_CSR_CSNAAT;
	} else if (ul_cs_behavior == SPI_CS_RISE_NO_TX) {
  40136c:	b16a      	cbz	r2, 40138a <spi_configure_cs_behavior+0x22>
		p_spi->SPI_CSR[ul_pcs_ch] &= (~SPI_CSR_CSAAT);
		p_spi->SPI_CSR[ul_pcs_ch] &= (~SPI_CSR_CSNAAT);
	} else if (ul_cs_behavior == SPI_CS_KEEP_LOW) {
  40136e:	2a08      	cmp	r2, #8
  401370:	d016      	beq.n	4013a0 <spi_configure_cs_behavior+0x38>
  401372:	4770      	bx	lr
  401374:	eb00 0081 	add.w	r0, r0, r1, lsl #2
		p_spi->SPI_CSR[ul_pcs_ch] &= (~SPI_CSR_CSAAT);
  401378:	6b03      	ldr	r3, [r0, #48]	; 0x30
  40137a:	f023 0308 	bic.w	r3, r3, #8
  40137e:	6303      	str	r3, [r0, #48]	; 0x30
		p_spi->SPI_CSR[ul_pcs_ch] |= SPI_CSR_CSNAAT;
  401380:	6b03      	ldr	r3, [r0, #48]	; 0x30
  401382:	f043 0304 	orr.w	r3, r3, #4
  401386:	6303      	str	r3, [r0, #48]	; 0x30
  401388:	4770      	bx	lr
  40138a:	eb00 0081 	add.w	r0, r0, r1, lsl #2
		p_spi->SPI_CSR[ul_pcs_ch] &= (~SPI_CSR_CSAAT);
  40138e:	6b03      	ldr	r3, [r0, #48]	; 0x30
  401390:	f023 0308 	bic.w	r3, r3, #8
  401394:	6303      	str	r3, [r0, #48]	; 0x30
		p_spi->SPI_CSR[ul_pcs_ch] &= (~SPI_CSR_CSNAAT);
  401396:	6b03      	ldr	r3, [r0, #48]	; 0x30
  401398:	f023 0304 	bic.w	r3, r3, #4
  40139c:	6303      	str	r3, [r0, #48]	; 0x30
  40139e:	4770      	bx	lr
  4013a0:	eb00 0081 	add.w	r0, r0, r1, lsl #2
		p_spi->SPI_CSR[ul_pcs_ch] |= SPI_CSR_CSAAT;
  4013a4:	6b03      	ldr	r3, [r0, #48]	; 0x30
  4013a6:	f043 0308 	orr.w	r3, r3, #8
  4013aa:	6303      	str	r3, [r0, #48]	; 0x30
	}
}
  4013ac:	e7e1      	b.n	401372 <spi_configure_cs_behavior+0xa>

004013ae <spi_set_bits_per_transfer>:
 * \param ul_bits Number of bits (8~16), use the pattern defined
 *        in the device header file.
 */
void spi_set_bits_per_transfer(Spi *p_spi, uint32_t ul_pcs_ch,
		uint32_t ul_bits)
{
  4013ae:	eb00 0181 	add.w	r1, r0, r1, lsl #2
	p_spi->SPI_CSR[ul_pcs_ch] &= (~SPI_CSR_BITS_Msk);
  4013b2:	6b0b      	ldr	r3, [r1, #48]	; 0x30
  4013b4:	f023 03f0 	bic.w	r3, r3, #240	; 0xf0
  4013b8:	630b      	str	r3, [r1, #48]	; 0x30
	p_spi->SPI_CSR[ul_pcs_ch] |= ul_bits;
  4013ba:	6b0b      	ldr	r3, [r1, #48]	; 0x30
  4013bc:	431a      	orrs	r2, r3
  4013be:	630a      	str	r2, [r1, #48]	; 0x30
  4013c0:	4770      	bx	lr

004013c2 <spi_calc_baudrate_div>:
 *   \retval > 0  Success.
 *   \retval < 0  Error.
 */
int16_t spi_calc_baudrate_div(const uint32_t baudrate, uint32_t mck)
{
	int baud_div = div_ceil(mck, baudrate);
  4013c2:	1e43      	subs	r3, r0, #1
  4013c4:	4419      	add	r1, r3
  4013c6:	fbb1 f0f0 	udiv	r0, r1, r0

	/* The value of baud_div is from 1 to 255 in the SCBR field. */
	if (baud_div <= 0 || baud_div > 255) {
  4013ca:	1e43      	subs	r3, r0, #1
  4013cc:	2bfe      	cmp	r3, #254	; 0xfe
		return -1;
	}

	return baud_div;
  4013ce:	bf94      	ite	ls
  4013d0:	b200      	sxthls	r0, r0
		return -1;
  4013d2:	f04f 30ff 	movhi.w	r0, #4294967295
}
  4013d6:	4770      	bx	lr

004013d8 <spi_set_baudrate_div>:
 */
int16_t spi_set_baudrate_div(Spi *p_spi, uint32_t ul_pcs_ch,
		uint8_t uc_baudrate_divider)
{
    /* Programming the SCBR field to 0 is forbidden */
    if (!uc_baudrate_divider)
  4013d8:	b17a      	cbz	r2, 4013fa <spi_set_baudrate_div+0x22>
{
  4013da:	b410      	push	{r4}
  4013dc:	4614      	mov	r4, r2
  4013de:	eb00 0181 	add.w	r1, r0, r1, lsl #2
        return -1;

	p_spi->SPI_CSR[ul_pcs_ch] &= (~SPI_CSR_SCBR_Msk);
  4013e2:	6b0b      	ldr	r3, [r1, #48]	; 0x30
  4013e4:	f423 437f 	bic.w	r3, r3, #65280	; 0xff00
  4013e8:	630b      	str	r3, [r1, #48]	; 0x30
	p_spi->SPI_CSR[ul_pcs_ch] |= SPI_CSR_SCBR(uc_baudrate_divider);
  4013ea:	6b0a      	ldr	r2, [r1, #48]	; 0x30
  4013ec:	ea42 2204 	orr.w	r2, r2, r4, lsl #8
  4013f0:	630a      	str	r2, [r1, #48]	; 0x30
    return 0;
  4013f2:	2000      	movs	r0, #0
}
  4013f4:	f85d 4b04 	ldr.w	r4, [sp], #4
  4013f8:	4770      	bx	lr
        return -1;
  4013fa:	f04f 30ff 	mov.w	r0, #4294967295
  4013fe:	4770      	bx	lr

00401400 <spi_set_transfer_delay>:
 * \param uc_dlybs Delay before SPCK (in number of MCK clocks).
 * \param uc_dlybct Delay between consecutive transfers (in number of MCK clocks).
 */
void spi_set_transfer_delay(Spi *p_spi, uint32_t ul_pcs_ch,
		uint8_t uc_dlybs, uint8_t uc_dlybct)
{
  401400:	b410      	push	{r4}
  401402:	eb00 0181 	add.w	r1, r0, r1, lsl #2
	p_spi->SPI_CSR[ul_pcs_ch] &= ~(SPI_CSR_DLYBS_Msk | SPI_CSR_DLYBCT_Msk);
  401406:	6b08      	ldr	r0, [r1, #48]	; 0x30
  401408:	b280      	uxth	r0, r0
  40140a:	6308      	str	r0, [r1, #48]	; 0x30
	p_spi->SPI_CSR[ul_pcs_ch] |= SPI_CSR_DLYBS(uc_dlybs)
  40140c:	6b0c      	ldr	r4, [r1, #48]	; 0x30
  40140e:	ea44 6303 	orr.w	r3, r4, r3, lsl #24
  401412:	ea43 4302 	orr.w	r3, r3, r2, lsl #16
  401416:	630b      	str	r3, [r1, #48]	; 0x30
			| SPI_CSR_DLYBCT(uc_dlybct);
}
  401418:	f85d 4b04 	ldr.w	r4, [sp], #4
  40141c:	4770      	bx	lr

0040141e <uart_write>:
 * \retval 1 I/O Failure, UART is not ready.
 */
uint32_t uart_write(Uart *p_uart, const uint8_t uc_data)
{
	/* Check if the transmitter is ready */
	if (!(p_uart->UART_SR & UART_SR_TXRDY))
  40141e:	6943      	ldr	r3, [r0, #20]
  401420:	f013 0f02 	tst.w	r3, #2
  401424:	d002      	beq.n	40142c <uart_write+0xe>
		return 1;

	/* Send character */
	p_uart->UART_THR = uc_data;
  401426:	61c1      	str	r1, [r0, #28]
	return 0;
  401428:	2000      	movs	r0, #0
  40142a:	4770      	bx	lr
		return 1;
  40142c:	2001      	movs	r0, #1
}
  40142e:	4770      	bx	lr

00401430 <uart_read>:
 * \retval 1 I/O Failure, UART is not ready.
 */
uint32_t uart_read(Uart *p_uart, uint8_t *puc_data)
{
	/* Check if the receiver is ready */
	if ((p_uart->UART_SR & UART_SR_RXRDY) == 0)
  401430:	6943      	ldr	r3, [r0, #20]
  401432:	f013 0f01 	tst.w	r3, #1
  401436:	d003      	beq.n	401440 <uart_read+0x10>
		return 1;

	/* Read character */
	*puc_data = (uint8_t) p_uart->UART_RHR;
  401438:	6983      	ldr	r3, [r0, #24]
  40143a:	700b      	strb	r3, [r1, #0]
	return 0;
  40143c:	2000      	movs	r0, #0
  40143e:	4770      	bx	lr
		return 1;
  401440:	2001      	movs	r0, #1
}
  401442:	4770      	bx	lr

00401444 <usart_set_async_baudrate>:
 * \retval 1 Baud rate set point is out of range for the given input clock
 * frequency.
 */
uint32_t usart_set_async_baudrate(Usart *p_usart,
		uint32_t baudrate, uint32_t ul_mck)
{
  401444:	b410      	push	{r4}
	uint32_t cd_fp;
	uint32_t cd;
	uint32_t fp;

	/* Calculate the receiver sampling divide of baudrate clock. */
	if (ul_mck >= HIGH_FRQ_SAMPLE_DIV * baudrate) {
  401446:	010b      	lsls	r3, r1, #4
  401448:	4293      	cmp	r3, r2
  40144a:	d914      	bls.n	401476 <usart_set_async_baudrate+0x32>
	} else {
		over = LOW_FRQ_SAMPLE_DIV;
	}

	/* Calculate clock divider according to the fraction calculated formula. */
	cd_fp = (8 * ul_mck + (over * baudrate) / 2) / (over * baudrate);
  40144c:	00c9      	lsls	r1, r1, #3
  40144e:	084b      	lsrs	r3, r1, #1
  401450:	eb03 02c2 	add.w	r2, r3, r2, lsl #3
  401454:	fbb2 f2f1 	udiv	r2, r2, r1
	cd = cd_fp >> 3;
  401458:	08d3      	lsrs	r3, r2, #3
	fp = cd_fp & 0x07;
	if (cd < MIN_CD_VALUE || cd > MAX_CD_VALUE) {
  40145a:	1e5c      	subs	r4, r3, #1
  40145c:	f64f 71fe 	movw	r1, #65534	; 0xfffe
  401460:	428c      	cmp	r4, r1
  401462:	d901      	bls.n	401468 <usart_set_async_baudrate+0x24>
		return 1;
  401464:	2001      	movs	r0, #1
  401466:	e017      	b.n	401498 <usart_set_async_baudrate+0x54>
	}

	/* Configure the OVER bit in MR register. */
	if (over == 8) {
		p_usart->US_MR |= US_MR_OVER;
  401468:	6841      	ldr	r1, [r0, #4]
  40146a:	f441 2100 	orr.w	r1, r1, #524288	; 0x80000
  40146e:	6041      	str	r1, [r0, #4]
  401470:	e00c      	b.n	40148c <usart_set_async_baudrate+0x48>
		return 1;
  401472:	2001      	movs	r0, #1
  401474:	e010      	b.n	401498 <usart_set_async_baudrate+0x54>
	cd_fp = (8 * ul_mck + (over * baudrate) / 2) / (over * baudrate);
  401476:	0859      	lsrs	r1, r3, #1
  401478:	eb01 02c2 	add.w	r2, r1, r2, lsl #3
  40147c:	fbb2 f2f3 	udiv	r2, r2, r3
	cd = cd_fp >> 3;
  401480:	08d3      	lsrs	r3, r2, #3
	if (cd < MIN_CD_VALUE || cd > MAX_CD_VALUE) {
  401482:	1e5c      	subs	r4, r3, #1
  401484:	f64f 71fe 	movw	r1, #65534	; 0xfffe
  401488:	428c      	cmp	r4, r1
  40148a:	d8f2      	bhi.n	401472 <usart_set_async_baudrate+0x2e>
	}

	/* Configure the baudrate generate register. */
	p_usart->US_BRGR = (cd << US_BRGR_CD_Pos) | (fp << US_BRGR_FP_Pos);
  40148c:	0412      	lsls	r2, r2, #16
  40148e:	f402 22e0 	and.w	r2, r2, #458752	; 0x70000
  401492:	431a      	orrs	r2, r3
  401494:	6202      	str	r2, [r0, #32]

	return 0;
  401496:	2000      	movs	r0, #0
}
  401498:	f85d 4b04 	ldr.w	r4, [sp], #4
  40149c:	4770      	bx	lr
	...

004014a0 <usart_reset>:
 *
 * \param p_usart Pointer to a USART instance.
 */
void usart_disable_writeprotect(Usart *p_usart)
{
	p_usart->US_WPMR = US_WPMR_WPKEY_PASSWD;
  4014a0:	4b08      	ldr	r3, [pc, #32]	; (4014c4 <usart_reset+0x24>)
  4014a2:	f8c0 30e4 	str.w	r3, [r0, #228]	; 0xe4
	p_usart->US_MR = 0;
  4014a6:	2300      	movs	r3, #0
  4014a8:	6043      	str	r3, [r0, #4]
	p_usart->US_RTOR = 0;
  4014aa:	6243      	str	r3, [r0, #36]	; 0x24
	p_usart->US_TTGR = 0;
  4014ac:	6283      	str	r3, [r0, #40]	; 0x28
	p_usart->US_CR = US_CR_RSTTX | US_CR_TXDIS;
  4014ae:	2388      	movs	r3, #136	; 0x88
  4014b0:	6003      	str	r3, [r0, #0]
	p_usart->US_CR = US_CR_RSTRX | US_CR_RXDIS;
  4014b2:	2324      	movs	r3, #36	; 0x24
  4014b4:	6003      	str	r3, [r0, #0]
	p_usart->US_CR = US_CR_RSTSTA;
  4014b6:	f44f 7380 	mov.w	r3, #256	; 0x100
  4014ba:	6003      	str	r3, [r0, #0]
	p_usart->US_CR = US_CR_RTSDIS;
  4014bc:	f44f 2300 	mov.w	r3, #524288	; 0x80000
  4014c0:	6003      	str	r3, [r0, #0]
  4014c2:	4770      	bx	lr
  4014c4:	55534100 	.word	0x55534100

004014c8 <usart_init_rs232>:
{
  4014c8:	b570      	push	{r4, r5, r6, lr}
  4014ca:	4605      	mov	r5, r0
  4014cc:	460c      	mov	r4, r1
  4014ce:	4616      	mov	r6, r2
	usart_reset(p_usart);
  4014d0:	4b0f      	ldr	r3, [pc, #60]	; (401510 <usart_init_rs232+0x48>)
  4014d2:	4798      	blx	r3
	ul_reg_val = 0;
  4014d4:	2200      	movs	r2, #0
  4014d6:	4b0f      	ldr	r3, [pc, #60]	; (401514 <usart_init_rs232+0x4c>)
  4014d8:	601a      	str	r2, [r3, #0]
	if (!p_usart_opt || usart_set_async_baudrate(p_usart,
  4014da:	b1a4      	cbz	r4, 401506 <usart_init_rs232+0x3e>
  4014dc:	4632      	mov	r2, r6
  4014de:	6821      	ldr	r1, [r4, #0]
  4014e0:	4628      	mov	r0, r5
  4014e2:	4b0d      	ldr	r3, [pc, #52]	; (401518 <usart_init_rs232+0x50>)
  4014e4:	4798      	blx	r3
  4014e6:	4602      	mov	r2, r0
  4014e8:	b978      	cbnz	r0, 40150a <usart_init_rs232+0x42>
	ul_reg_val |= p_usart_opt->char_length | p_usart_opt->parity_type |
  4014ea:	6863      	ldr	r3, [r4, #4]
  4014ec:	68a1      	ldr	r1, [r4, #8]
  4014ee:	430b      	orrs	r3, r1
  4014f0:	6921      	ldr	r1, [r4, #16]
  4014f2:	430b      	orrs	r3, r1
			p_usart_opt->channel_mode | p_usart_opt->stop_bits;
  4014f4:	68e1      	ldr	r1, [r4, #12]
  4014f6:	430b      	orrs	r3, r1
	ul_reg_val |= p_usart_opt->char_length | p_usart_opt->parity_type |
  4014f8:	4906      	ldr	r1, [pc, #24]	; (401514 <usart_init_rs232+0x4c>)
  4014fa:	600b      	str	r3, [r1, #0]
	p_usart->US_MR |= ul_reg_val;
  4014fc:	6869      	ldr	r1, [r5, #4]
  4014fe:	430b      	orrs	r3, r1
  401500:	606b      	str	r3, [r5, #4]
}
  401502:	4610      	mov	r0, r2
  401504:	bd70      	pop	{r4, r5, r6, pc}
		return 1;
  401506:	2201      	movs	r2, #1
  401508:	e7fb      	b.n	401502 <usart_init_rs232+0x3a>
  40150a:	2201      	movs	r2, #1
  40150c:	e7f9      	b.n	401502 <usart_init_rs232+0x3a>
  40150e:	bf00      	nop
  401510:	004014a1 	.word	0x004014a1
  401514:	20400e04 	.word	0x20400e04
  401518:	00401445 	.word	0x00401445

0040151c <usart_enable_tx>:
	p_usart->US_CR = US_CR_TXEN;
  40151c:	2340      	movs	r3, #64	; 0x40
  40151e:	6003      	str	r3, [r0, #0]
  401520:	4770      	bx	lr

00401522 <usart_enable_rx>:
	p_usart->US_CR = US_CR_RXEN;
  401522:	2310      	movs	r3, #16
  401524:	6003      	str	r3, [r0, #0]
  401526:	4770      	bx	lr

00401528 <usart_write>:
	if (!(p_usart->US_CSR & US_CSR_TXRDY)) {
  401528:	6943      	ldr	r3, [r0, #20]
  40152a:	f013 0f02 	tst.w	r3, #2
  40152e:	d004      	beq.n	40153a <usart_write+0x12>
	p_usart->US_THR = US_THR_TXCHR(c);
  401530:	f3c1 0108 	ubfx	r1, r1, #0, #9
  401534:	61c1      	str	r1, [r0, #28]
	return 0;
  401536:	2000      	movs	r0, #0
  401538:	4770      	bx	lr
		return 1;
  40153a:	2001      	movs	r0, #1
}
  40153c:	4770      	bx	lr

0040153e <usart_read>:
	if (!(p_usart->US_CSR & US_CSR_RXRDY)) {
  40153e:	6943      	ldr	r3, [r0, #20]
  401540:	f013 0f01 	tst.w	r3, #1
  401544:	d005      	beq.n	401552 <usart_read+0x14>
	*c = p_usart->US_RHR & US_RHR_RXCHR_Msk;
  401546:	6983      	ldr	r3, [r0, #24]
  401548:	f3c3 0308 	ubfx	r3, r3, #0, #9
  40154c:	600b      	str	r3, [r1, #0]
	return 0;
  40154e:	2000      	movs	r0, #0
  401550:	4770      	bx	lr
		return 1;
  401552:	2001      	movs	r0, #1
}
  401554:	4770      	bx	lr

00401556 <Dummy_Handler>:

/**
 * \brief Default interrupt handler for unused IRQs.
 */
void Dummy_Handler(void)
{
  401556:	e7fe      	b.n	401556 <Dummy_Handler>

00401558 <Reset_Handler>:
{
  401558:	b500      	push	{lr}
  40155a:	b083      	sub	sp, #12
        if (pSrc != pDest) {
  40155c:	4b25      	ldr	r3, [pc, #148]	; (4015f4 <Reset_Handler+0x9c>)
  40155e:	4a26      	ldr	r2, [pc, #152]	; (4015f8 <Reset_Handler+0xa0>)
  401560:	429a      	cmp	r2, r3
  401562:	d010      	beq.n	401586 <Reset_Handler+0x2e>
                for (; pDest < &_erelocate;) {
  401564:	4b25      	ldr	r3, [pc, #148]	; (4015fc <Reset_Handler+0xa4>)
  401566:	4a23      	ldr	r2, [pc, #140]	; (4015f4 <Reset_Handler+0x9c>)
  401568:	429a      	cmp	r2, r3
  40156a:	d20c      	bcs.n	401586 <Reset_Handler+0x2e>
  40156c:	3b01      	subs	r3, #1
  40156e:	1a9b      	subs	r3, r3, r2
  401570:	f023 0303 	bic.w	r3, r3, #3
  401574:	3304      	adds	r3, #4
  401576:	4413      	add	r3, r2
  401578:	491f      	ldr	r1, [pc, #124]	; (4015f8 <Reset_Handler+0xa0>)
                        *pDest++ = *pSrc++;
  40157a:	f851 0b04 	ldr.w	r0, [r1], #4
  40157e:	f842 0b04 	str.w	r0, [r2], #4
                for (; pDest < &_erelocate;) {
  401582:	429a      	cmp	r2, r3
  401584:	d1f9      	bne.n	40157a <Reset_Handler+0x22>
        for (pDest = &_szero; pDest < &_ezero;) {
  401586:	4b1e      	ldr	r3, [pc, #120]	; (401600 <Reset_Handler+0xa8>)
  401588:	4a1e      	ldr	r2, [pc, #120]	; (401604 <Reset_Handler+0xac>)
  40158a:	429a      	cmp	r2, r3
  40158c:	d20a      	bcs.n	4015a4 <Reset_Handler+0x4c>
  40158e:	3b01      	subs	r3, #1
  401590:	1a9b      	subs	r3, r3, r2
  401592:	f023 0303 	bic.w	r3, r3, #3
  401596:	3304      	adds	r3, #4
  401598:	4413      	add	r3, r2
                *pDest++ = 0;
  40159a:	2100      	movs	r1, #0
  40159c:	f842 1b04 	str.w	r1, [r2], #4
        for (pDest = &_szero; pDest < &_ezero;) {
  4015a0:	4293      	cmp	r3, r2
  4015a2:	d1fb      	bne.n	40159c <Reset_Handler+0x44>
        SCB->VTOR = ((uint32_t) pSrc & SCB_VTOR_TBLOFF_Msk);
  4015a4:	4a18      	ldr	r2, [pc, #96]	; (401608 <Reset_Handler+0xb0>)
  4015a6:	4b19      	ldr	r3, [pc, #100]	; (40160c <Reset_Handler+0xb4>)
  4015a8:	f023 037f 	bic.w	r3, r3, #127	; 0x7f
  4015ac:	6093      	str	r3, [r2, #8]
 */
__attribute__( ( always_inline ) ) __STATIC_INLINE uint32_t __get_PRIMASK(void)
{
  uint32_t result;

  __ASM volatile ("MRS %0, primask" : "=r" (result) );
  4015ae:	f3ef 8310 	mrs	r3, PRIMASK
static volatile uint32_t cpu_irq_critical_section_counter;
static volatile bool     cpu_irq_prev_interrupt_state;

static inline irqflags_t cpu_irq_save(void)
{
	volatile irqflags_t flags = cpu_irq_is_enabled();
  4015b2:	fab3 f383 	clz	r3, r3
  4015b6:	095b      	lsrs	r3, r3, #5
  4015b8:	9301      	str	r3, [sp, #4]
  __ASM volatile ("cpsid i" : : : "memory");
  4015ba:	b672      	cpsid	i
  __ASM volatile ("dmb");
  4015bc:	f3bf 8f5f 	dmb	sy
	cpu_irq_disable();
  4015c0:	2200      	movs	r2, #0
  4015c2:	4b13      	ldr	r3, [pc, #76]	; (401610 <Reset_Handler+0xb8>)
  4015c4:	701a      	strb	r2, [r3, #0]
	return flags;
  4015c6:	9901      	ldr	r1, [sp, #4]
 */
__always_inline static void fpu_enable(void)
{
	irqflags_t flags;
	flags = cpu_irq_save();
	REG_CPACR |=  (0xFu << 20);
  4015c8:	4a12      	ldr	r2, [pc, #72]	; (401614 <Reset_Handler+0xbc>)
  4015ca:	6813      	ldr	r3, [r2, #0]
  4015cc:	f443 0370 	orr.w	r3, r3, #15728640	; 0xf00000
  4015d0:	6013      	str	r3, [r2, #0]
  __ASM volatile ("dsb");
  4015d2:	f3bf 8f4f 	dsb	sy
  __ASM volatile ("isb");
  4015d6:	f3bf 8f6f 	isb	sy
	return (flags);
}

static inline void cpu_irq_restore(irqflags_t flags)
{
	if (cpu_irq_is_enabled_flags(flags))
  4015da:	b129      	cbz	r1, 4015e8 <Reset_Handler+0x90>
		cpu_irq_enable();
  4015dc:	2201      	movs	r2, #1
  4015de:	4b0c      	ldr	r3, [pc, #48]	; (401610 <Reset_Handler+0xb8>)
  4015e0:	701a      	strb	r2, [r3, #0]
  __ASM volatile ("dmb");
  4015e2:	f3bf 8f5f 	dmb	sy
  __ASM volatile ("cpsie i" : : : "memory");
  4015e6:	b662      	cpsie	i
        __libc_init_array();
  4015e8:	4b0b      	ldr	r3, [pc, #44]	; (401618 <Reset_Handler+0xc0>)
  4015ea:	4798      	blx	r3
        main();
  4015ec:	4b0b      	ldr	r3, [pc, #44]	; (40161c <Reset_Handler+0xc4>)
  4015ee:	4798      	blx	r3
  4015f0:	e7fe      	b.n	4015f0 <Reset_Handler+0x98>
  4015f2:	bf00      	nop
  4015f4:	20400000 	.word	0x20400000
  4015f8:	00410d44 	.word	0x00410d44
  4015fc:	204009b8 	.word	0x204009b8
  401600:	20400e84 	.word	0x20400e84
  401604:	204009b8 	.word	0x204009b8
  401608:	e000ed00 	.word	0xe000ed00
  40160c:	00400000 	.word	0x00400000
  401610:	20400000 	.word	0x20400000
  401614:	e000ed88 	.word	0xe000ed88
  401618:	00401b65 	.word	0x00401b65
  40161c:	004019a1 	.word	0x004019a1

00401620 <SystemCoreClockUpdate>:
}

void SystemCoreClockUpdate( void )
{
  /* Determine clock frequency according to clock register values */
  switch (PMC->PMC_MCKR & (uint32_t) PMC_MCKR_CSS_Msk)
  401620:	4b3b      	ldr	r3, [pc, #236]	; (401710 <SystemCoreClockUpdate+0xf0>)
  401622:	6b1b      	ldr	r3, [r3, #48]	; 0x30
  401624:	f003 0303 	and.w	r3, r3, #3
  401628:	2b01      	cmp	r3, #1
  40162a:	d01d      	beq.n	401668 <SystemCoreClockUpdate+0x48>
  40162c:	b183      	cbz	r3, 401650 <SystemCoreClockUpdate+0x30>
  40162e:	2b02      	cmp	r3, #2
  401630:	d036      	beq.n	4016a0 <SystemCoreClockUpdate+0x80>

    default:
    break;
  }

  if ( (PMC->PMC_MCKR & PMC_MCKR_PRES_Msk) == PMC_MCKR_PRES_CLK_3 )
  401632:	4b37      	ldr	r3, [pc, #220]	; (401710 <SystemCoreClockUpdate+0xf0>)
  401634:	6b1b      	ldr	r3, [r3, #48]	; 0x30
  401636:	f003 0370 	and.w	r3, r3, #112	; 0x70
  40163a:	2b70      	cmp	r3, #112	; 0x70
  40163c:	d05f      	beq.n	4016fe <SystemCoreClockUpdate+0xde>
  {
    SystemCoreClock /= 3U;
  }
  else
  {
    SystemCoreClock >>= ((PMC->PMC_MCKR & PMC_MCKR_PRES_Msk) >> PMC_MCKR_PRES_Pos);
  40163e:	4b34      	ldr	r3, [pc, #208]	; (401710 <SystemCoreClockUpdate+0xf0>)
  401640:	6b1a      	ldr	r2, [r3, #48]	; 0x30
  401642:	4934      	ldr	r1, [pc, #208]	; (401714 <SystemCoreClockUpdate+0xf4>)
  401644:	f3c2 1202 	ubfx	r2, r2, #4, #3
  401648:	680b      	ldr	r3, [r1, #0]
  40164a:	40d3      	lsrs	r3, r2
  40164c:	600b      	str	r3, [r1, #0]
  40164e:	4770      	bx	lr
      if ( SUPC->SUPC_SR & SUPC_SR_OSCSEL )
  401650:	4b31      	ldr	r3, [pc, #196]	; (401718 <SystemCoreClockUpdate+0xf8>)
  401652:	695b      	ldr	r3, [r3, #20]
  401654:	f013 0f80 	tst.w	r3, #128	; 0x80
        SystemCoreClock = CHIP_FREQ_XTAL_32K;
  401658:	bf14      	ite	ne
  40165a:	f44f 4200 	movne.w	r2, #32768	; 0x8000
        SystemCoreClock = CHIP_FREQ_SLCK_RC;
  40165e:	f44f 42fa 	moveq.w	r2, #32000	; 0x7d00
  401662:	4b2c      	ldr	r3, [pc, #176]	; (401714 <SystemCoreClockUpdate+0xf4>)
  401664:	601a      	str	r2, [r3, #0]
  401666:	e7e4      	b.n	401632 <SystemCoreClockUpdate+0x12>
      if ( PMC->CKGR_MOR & CKGR_MOR_MOSCSEL )
  401668:	4b29      	ldr	r3, [pc, #164]	; (401710 <SystemCoreClockUpdate+0xf0>)
  40166a:	6a1b      	ldr	r3, [r3, #32]
  40166c:	f013 7f80 	tst.w	r3, #16777216	; 0x1000000
  401670:	d003      	beq.n	40167a <SystemCoreClockUpdate+0x5a>
        SystemCoreClock = CHIP_FREQ_XTAL_12M;
  401672:	4a2a      	ldr	r2, [pc, #168]	; (40171c <SystemCoreClockUpdate+0xfc>)
  401674:	4b27      	ldr	r3, [pc, #156]	; (401714 <SystemCoreClockUpdate+0xf4>)
  401676:	601a      	str	r2, [r3, #0]
  401678:	e7db      	b.n	401632 <SystemCoreClockUpdate+0x12>
        SystemCoreClock = CHIP_FREQ_MAINCK_RC_4MHZ;
  40167a:	4a29      	ldr	r2, [pc, #164]	; (401720 <SystemCoreClockUpdate+0x100>)
  40167c:	4b25      	ldr	r3, [pc, #148]	; (401714 <SystemCoreClockUpdate+0xf4>)
  40167e:	601a      	str	r2, [r3, #0]
        switch ( PMC->CKGR_MOR & CKGR_MOR_MOSCRCF_Msk )
  401680:	4b23      	ldr	r3, [pc, #140]	; (401710 <SystemCoreClockUpdate+0xf0>)
  401682:	6a1b      	ldr	r3, [r3, #32]
  401684:	f003 0370 	and.w	r3, r3, #112	; 0x70
  401688:	2b10      	cmp	r3, #16
  40168a:	d005      	beq.n	401698 <SystemCoreClockUpdate+0x78>
  40168c:	2b20      	cmp	r3, #32
  40168e:	d1d0      	bne.n	401632 <SystemCoreClockUpdate+0x12>
            SystemCoreClock *= 3U;
  401690:	4a22      	ldr	r2, [pc, #136]	; (40171c <SystemCoreClockUpdate+0xfc>)
  401692:	4b20      	ldr	r3, [pc, #128]	; (401714 <SystemCoreClockUpdate+0xf4>)
  401694:	601a      	str	r2, [r3, #0]
          break;
  401696:	e7cc      	b.n	401632 <SystemCoreClockUpdate+0x12>
            SystemCoreClock *= 2U;
  401698:	4a22      	ldr	r2, [pc, #136]	; (401724 <SystemCoreClockUpdate+0x104>)
  40169a:	4b1e      	ldr	r3, [pc, #120]	; (401714 <SystemCoreClockUpdate+0xf4>)
  40169c:	601a      	str	r2, [r3, #0]
          break;
  40169e:	e7c8      	b.n	401632 <SystemCoreClockUpdate+0x12>
      if ( PMC->CKGR_MOR & CKGR_MOR_MOSCSEL )
  4016a0:	4b1b      	ldr	r3, [pc, #108]	; (401710 <SystemCoreClockUpdate+0xf0>)
  4016a2:	6a1b      	ldr	r3, [r3, #32]
  4016a4:	f013 7f80 	tst.w	r3, #16777216	; 0x1000000
  4016a8:	d016      	beq.n	4016d8 <SystemCoreClockUpdate+0xb8>
        SystemCoreClock = CHIP_FREQ_XTAL_12M ;
  4016aa:	4a1c      	ldr	r2, [pc, #112]	; (40171c <SystemCoreClockUpdate+0xfc>)
  4016ac:	4b19      	ldr	r3, [pc, #100]	; (401714 <SystemCoreClockUpdate+0xf4>)
  4016ae:	601a      	str	r2, [r3, #0]
      if ( (uint32_t) (PMC->PMC_MCKR & (uint32_t) PMC_MCKR_CSS_Msk) == PMC_MCKR_CSS_PLLA_CLK )
  4016b0:	4b17      	ldr	r3, [pc, #92]	; (401710 <SystemCoreClockUpdate+0xf0>)
  4016b2:	6b1b      	ldr	r3, [r3, #48]	; 0x30
  4016b4:	f003 0303 	and.w	r3, r3, #3
  4016b8:	2b02      	cmp	r3, #2
  4016ba:	d1ba      	bne.n	401632 <SystemCoreClockUpdate+0x12>
        SystemCoreClock *= ((((PMC->CKGR_PLLAR) & CKGR_PLLAR_MULA_Msk) >> CKGR_PLLAR_MULA_Pos) + 1U);
  4016bc:	4a14      	ldr	r2, [pc, #80]	; (401710 <SystemCoreClockUpdate+0xf0>)
  4016be:	6a91      	ldr	r1, [r2, #40]	; 0x28
        SystemCoreClock /= ((((PMC->CKGR_PLLAR) & CKGR_PLLAR_DIVA_Msk) >> CKGR_PLLAR_DIVA_Pos));
  4016c0:	6a92      	ldr	r2, [r2, #40]	; 0x28
  4016c2:	4814      	ldr	r0, [pc, #80]	; (401714 <SystemCoreClockUpdate+0xf4>)
        SystemCoreClock *= ((((PMC->CKGR_PLLAR) & CKGR_PLLAR_MULA_Msk) >> CKGR_PLLAR_MULA_Pos) + 1U);
  4016c4:	f3c1 410a 	ubfx	r1, r1, #16, #11
  4016c8:	6803      	ldr	r3, [r0, #0]
  4016ca:	fb01 3303 	mla	r3, r1, r3, r3
        SystemCoreClock /= ((((PMC->CKGR_PLLAR) & CKGR_PLLAR_DIVA_Msk) >> CKGR_PLLAR_DIVA_Pos));
  4016ce:	b2d2      	uxtb	r2, r2
  4016d0:	fbb3 f3f2 	udiv	r3, r3, r2
  4016d4:	6003      	str	r3, [r0, #0]
  4016d6:	e7ac      	b.n	401632 <SystemCoreClockUpdate+0x12>
        SystemCoreClock = CHIP_FREQ_MAINCK_RC_4MHZ;
  4016d8:	4a11      	ldr	r2, [pc, #68]	; (401720 <SystemCoreClockUpdate+0x100>)
  4016da:	4b0e      	ldr	r3, [pc, #56]	; (401714 <SystemCoreClockUpdate+0xf4>)
  4016dc:	601a      	str	r2, [r3, #0]
        switch ( PMC->CKGR_MOR & CKGR_MOR_MOSCRCF_Msk )
  4016de:	4b0c      	ldr	r3, [pc, #48]	; (401710 <SystemCoreClockUpdate+0xf0>)
  4016e0:	6a1b      	ldr	r3, [r3, #32]
  4016e2:	f003 0370 	and.w	r3, r3, #112	; 0x70
  4016e6:	2b10      	cmp	r3, #16
  4016e8:	d005      	beq.n	4016f6 <SystemCoreClockUpdate+0xd6>
  4016ea:	2b20      	cmp	r3, #32
  4016ec:	d1e0      	bne.n	4016b0 <SystemCoreClockUpdate+0x90>
            SystemCoreClock *= 3U;
  4016ee:	4a0b      	ldr	r2, [pc, #44]	; (40171c <SystemCoreClockUpdate+0xfc>)
  4016f0:	4b08      	ldr	r3, [pc, #32]	; (401714 <SystemCoreClockUpdate+0xf4>)
  4016f2:	601a      	str	r2, [r3, #0]
          break;
  4016f4:	e7dc      	b.n	4016b0 <SystemCoreClockUpdate+0x90>
            SystemCoreClock *= 2U;
  4016f6:	4a0b      	ldr	r2, [pc, #44]	; (401724 <SystemCoreClockUpdate+0x104>)
  4016f8:	4b06      	ldr	r3, [pc, #24]	; (401714 <SystemCoreClockUpdate+0xf4>)
  4016fa:	601a      	str	r2, [r3, #0]
          break;
  4016fc:	e7d8      	b.n	4016b0 <SystemCoreClockUpdate+0x90>
    SystemCoreClock /= 3U;
  4016fe:	4a05      	ldr	r2, [pc, #20]	; (401714 <SystemCoreClockUpdate+0xf4>)
  401700:	6813      	ldr	r3, [r2, #0]
  401702:	4909      	ldr	r1, [pc, #36]	; (401728 <SystemCoreClockUpdate+0x108>)
  401704:	fba1 1303 	umull	r1, r3, r1, r3
  401708:	085b      	lsrs	r3, r3, #1
  40170a:	6013      	str	r3, [r2, #0]
  40170c:	4770      	bx	lr
  40170e:	bf00      	nop
  401710:	400e0600 	.word	0x400e0600
  401714:	20400004 	.word	0x20400004
  401718:	400e1810 	.word	0x400e1810
  40171c:	00b71b00 	.word	0x00b71b00
  401720:	003d0900 	.word	0x003d0900
  401724:	007a1200 	.word	0x007a1200
  401728:	aaaaaaab 	.word	0xaaaaaaab

0040172c <system_init_flash>:
 * Initialize flash.
 */
void system_init_flash( uint32_t ul_clk )
{
  /* Set FWS for embedded Flash access according to operating frequency */
  if ( ul_clk < CHIP_FREQ_FWS_0 )
  40172c:	4b12      	ldr	r3, [pc, #72]	; (401778 <system_init_flash+0x4c>)
  40172e:	4298      	cmp	r0, r3
  401730:	d911      	bls.n	401756 <system_init_flash+0x2a>
  {
    EFC->EEFC_FMR = EEFC_FMR_FWS(0)|EEFC_FMR_CLOE;
  }
  else
  {
    if (ul_clk < CHIP_FREQ_FWS_1)
  401732:	4b12      	ldr	r3, [pc, #72]	; (40177c <system_init_flash+0x50>)
  401734:	4298      	cmp	r0, r3
  401736:	d913      	bls.n	401760 <system_init_flash+0x34>
    {
      EFC->EEFC_FMR = EEFC_FMR_FWS(1)|EEFC_FMR_CLOE;
    }
    else
    {
      if (ul_clk < CHIP_FREQ_FWS_2)
  401738:	4b11      	ldr	r3, [pc, #68]	; (401780 <system_init_flash+0x54>)
  40173a:	4298      	cmp	r0, r3
  40173c:	d914      	bls.n	401768 <system_init_flash+0x3c>
      {
        EFC->EEFC_FMR = EEFC_FMR_FWS(2)|EEFC_FMR_CLOE;
      }
      else
      {
        if ( ul_clk < CHIP_FREQ_FWS_3 )
  40173e:	4b11      	ldr	r3, [pc, #68]	; (401784 <system_init_flash+0x58>)
  401740:	4298      	cmp	r0, r3
  401742:	d915      	bls.n	401770 <system_init_flash+0x44>
        {
          EFC->EEFC_FMR = EEFC_FMR_FWS(3)|EEFC_FMR_CLOE;
        }
        else
        {
          if ( ul_clk < CHIP_FREQ_FWS_4 )
  401744:	4b10      	ldr	r3, [pc, #64]	; (401788 <system_init_flash+0x5c>)
  401746:	4298      	cmp	r0, r3
          {
            EFC->EEFC_FMR = EEFC_FMR_FWS(4)|EEFC_FMR_CLOE;
  401748:	bf94      	ite	ls
  40174a:	f04f 2204 	movls.w	r2, #67109888	; 0x4000400
          }
          else
          {
            EFC->EEFC_FMR = EEFC_FMR_FWS(5)|EEFC_FMR_CLOE;
  40174e:	4a0f      	ldrhi	r2, [pc, #60]	; (40178c <system_init_flash+0x60>)
  401750:	4b0f      	ldr	r3, [pc, #60]	; (401790 <system_init_flash+0x64>)
  401752:	601a      	str	r2, [r3, #0]
  401754:	4770      	bx	lr
    EFC->EEFC_FMR = EEFC_FMR_FWS(0)|EEFC_FMR_CLOE;
  401756:	f04f 6280 	mov.w	r2, #67108864	; 0x4000000
  40175a:	4b0d      	ldr	r3, [pc, #52]	; (401790 <system_init_flash+0x64>)
  40175c:	601a      	str	r2, [r3, #0]
  40175e:	4770      	bx	lr
      EFC->EEFC_FMR = EEFC_FMR_FWS(1)|EEFC_FMR_CLOE;
  401760:	4a0c      	ldr	r2, [pc, #48]	; (401794 <system_init_flash+0x68>)
  401762:	4b0b      	ldr	r3, [pc, #44]	; (401790 <system_init_flash+0x64>)
  401764:	601a      	str	r2, [r3, #0]
  401766:	4770      	bx	lr
        EFC->EEFC_FMR = EEFC_FMR_FWS(2)|EEFC_FMR_CLOE;
  401768:	4a0b      	ldr	r2, [pc, #44]	; (401798 <system_init_flash+0x6c>)
  40176a:	4b09      	ldr	r3, [pc, #36]	; (401790 <system_init_flash+0x64>)
  40176c:	601a      	str	r2, [r3, #0]
  40176e:	4770      	bx	lr
          EFC->EEFC_FMR = EEFC_FMR_FWS(3)|EEFC_FMR_CLOE;
  401770:	4a0a      	ldr	r2, [pc, #40]	; (40179c <system_init_flash+0x70>)
  401772:	4b07      	ldr	r3, [pc, #28]	; (401790 <system_init_flash+0x64>)
  401774:	601a      	str	r2, [r3, #0]
  401776:	4770      	bx	lr
  401778:	01312cff 	.word	0x01312cff
  40177c:	026259ff 	.word	0x026259ff
  401780:	039386ff 	.word	0x039386ff
  401784:	04c4b3ff 	.word	0x04c4b3ff
  401788:	05f5e0ff 	.word	0x05f5e0ff
  40178c:	04000500 	.word	0x04000500
  401790:	400e0c00 	.word	0x400e0c00
  401794:	04000100 	.word	0x04000100
  401798:	04000200 	.word	0x04000200
  40179c:	04000300 	.word	0x04000300

004017a0 <_sbrk>:
{
	static unsigned char *heap = NULL;
	unsigned char *prev_heap;
	int ramend = (int)&__ram_end__;

	if (heap == NULL) {
  4017a0:	4b0a      	ldr	r3, [pc, #40]	; (4017cc <_sbrk+0x2c>)
  4017a2:	681b      	ldr	r3, [r3, #0]
  4017a4:	b153      	cbz	r3, 4017bc <_sbrk+0x1c>
		heap = (unsigned char *)&_end;
	}
	prev_heap = heap;
  4017a6:	4b09      	ldr	r3, [pc, #36]	; (4017cc <_sbrk+0x2c>)
  4017a8:	681b      	ldr	r3, [r3, #0]

	if (((int)prev_heap + incr) > ramend) {
  4017aa:	181a      	adds	r2, r3, r0
  4017ac:	4908      	ldr	r1, [pc, #32]	; (4017d0 <_sbrk+0x30>)
  4017ae:	4291      	cmp	r1, r2
  4017b0:	db08      	blt.n	4017c4 <_sbrk+0x24>
		return (caddr_t) -1;	
	}

	heap += incr;
  4017b2:	4610      	mov	r0, r2
  4017b4:	4a05      	ldr	r2, [pc, #20]	; (4017cc <_sbrk+0x2c>)
  4017b6:	6010      	str	r0, [r2, #0]

	return (caddr_t) prev_heap;
  4017b8:	4618      	mov	r0, r3
  4017ba:	4770      	bx	lr
		heap = (unsigned char *)&_end;
  4017bc:	4a05      	ldr	r2, [pc, #20]	; (4017d4 <_sbrk+0x34>)
  4017be:	4b03      	ldr	r3, [pc, #12]	; (4017cc <_sbrk+0x2c>)
  4017c0:	601a      	str	r2, [r3, #0]
  4017c2:	e7f0      	b.n	4017a6 <_sbrk+0x6>
		return (caddr_t) -1;	
  4017c4:	f04f 30ff 	mov.w	r0, #4294967295
}
  4017c8:	4770      	bx	lr
  4017ca:	bf00      	nop
  4017cc:	20400e08 	.word	0x20400e08
  4017d0:	2045fffc 	.word	0x2045fffc
  4017d4:	20403088 	.word	0x20403088

004017d8 <_close>:
}

extern int _close(int file)
{
	return -1;
}
  4017d8:	f04f 30ff 	mov.w	r0, #4294967295
  4017dc:	4770      	bx	lr

004017de <_fstat>:

extern int _fstat(int file, struct stat *st)
{
	st->st_mode = S_IFCHR;
  4017de:	f44f 5300 	mov.w	r3, #8192	; 0x2000
  4017e2:	604b      	str	r3, [r1, #4]

	return 0;
}
  4017e4:	2000      	movs	r0, #0
  4017e6:	4770      	bx	lr

004017e8 <_isatty>:

extern int _isatty(int file)
{
	return 1;
}
  4017e8:	2001      	movs	r0, #1
  4017ea:	4770      	bx	lr

004017ec <_lseek>:

extern int _lseek(int file, int ptr, int dir)
{
	return 0;
}
  4017ec:	2000      	movs	r0, #0
  4017ee:	4770      	bx	lr

004017f0 <usart_serial_getchar>:
 * \param p_usart   Base address of the USART instance.
 * \param data   Data to read
 *
 */
static inline void usart_serial_getchar(usart_if p_usart, uint8_t *data)
{
  4017f0:	b5f0      	push	{r4, r5, r6, r7, lr}
  4017f2:	b083      	sub	sp, #12
  4017f4:	4605      	mov	r5, r0
  4017f6:	460c      	mov	r4, r1
	uint32_t val = 0;
  4017f8:	2300      	movs	r3, #0
  4017fa:	9301      	str	r3, [sp, #4]
	if (UART == (Uart*)p_usart) {
		while (uart_read((Uart*)p_usart, data));
	}
#else
# ifdef UART0
	if (UART0 == (Uart*)p_usart) {
  4017fc:	4b2a      	ldr	r3, [pc, #168]	; (4018a8 <usart_serial_getchar+0xb8>)
  4017fe:	4298      	cmp	r0, r3
  401800:	d013      	beq.n	40182a <usart_serial_getchar+0x3a>
		while (uart_read((Uart*)p_usart, data));
	}
# endif
# ifdef UART1
	if (UART1 == (Uart*)p_usart) {
  401802:	4b2a      	ldr	r3, [pc, #168]	; (4018ac <usart_serial_getchar+0xbc>)
  401804:	4298      	cmp	r0, r3
  401806:	d018      	beq.n	40183a <usart_serial_getchar+0x4a>
		while (uart_read((Uart*)p_usart, data));
	}
# endif
# ifdef UART2
	if (UART2 == (Uart*)p_usart) {
  401808:	4b29      	ldr	r3, [pc, #164]	; (4018b0 <usart_serial_getchar+0xc0>)
  40180a:	4298      	cmp	r0, r3
  40180c:	d01d      	beq.n	40184a <usart_serial_getchar+0x5a>
		while (uart_read((Uart*)p_usart, data));
	}
# endif
# ifdef UART3
	if (UART3 == (Uart*)p_usart) {
  40180e:	4b29      	ldr	r3, [pc, #164]	; (4018b4 <usart_serial_getchar+0xc4>)
  401810:	429d      	cmp	r5, r3
  401812:	d022      	beq.n	40185a <usart_serial_getchar+0x6a>
		while (usart_read(p_usart, &val));
		*data = (uint8_t)(val & 0xFF);
	}
#else
# ifdef USART0
	if (USART0 == p_usart) {
  401814:	4b28      	ldr	r3, [pc, #160]	; (4018b8 <usart_serial_getchar+0xc8>)
  401816:	429d      	cmp	r5, r3
  401818:	d027      	beq.n	40186a <usart_serial_getchar+0x7a>
		while (usart_read(p_usart, &val));
		*data = (uint8_t)(val & 0xFF);
	}
# endif
# ifdef USART1
	if (USART1 == p_usart) {
  40181a:	4b28      	ldr	r3, [pc, #160]	; (4018bc <usart_serial_getchar+0xcc>)
  40181c:	429d      	cmp	r5, r3
  40181e:	d02e      	beq.n	40187e <usart_serial_getchar+0x8e>
		while (usart_read(p_usart, &val));
		*data = (uint8_t)(val & 0xFF);
	}
# endif
# ifdef USART2
	if (USART2 == p_usart) {
  401820:	4b27      	ldr	r3, [pc, #156]	; (4018c0 <usart_serial_getchar+0xd0>)
  401822:	429d      	cmp	r5, r3
  401824:	d035      	beq.n	401892 <usart_serial_getchar+0xa2>
		*data = (uint8_t)(val & 0xFF);
	}
# endif
#endif /* ifdef USART */

}
  401826:	b003      	add	sp, #12
  401828:	bdf0      	pop	{r4, r5, r6, r7, pc}
		while (uart_read((Uart*)p_usart, data));
  40182a:	461f      	mov	r7, r3
  40182c:	4e25      	ldr	r6, [pc, #148]	; (4018c4 <usart_serial_getchar+0xd4>)
  40182e:	4621      	mov	r1, r4
  401830:	4638      	mov	r0, r7
  401832:	47b0      	blx	r6
  401834:	2800      	cmp	r0, #0
  401836:	d1fa      	bne.n	40182e <usart_serial_getchar+0x3e>
  401838:	e7e9      	b.n	40180e <usart_serial_getchar+0x1e>
		while (uart_read((Uart*)p_usart, data));
  40183a:	461f      	mov	r7, r3
  40183c:	4e21      	ldr	r6, [pc, #132]	; (4018c4 <usart_serial_getchar+0xd4>)
  40183e:	4621      	mov	r1, r4
  401840:	4638      	mov	r0, r7
  401842:	47b0      	blx	r6
  401844:	2800      	cmp	r0, #0
  401846:	d1fa      	bne.n	40183e <usart_serial_getchar+0x4e>
  401848:	e7e4      	b.n	401814 <usart_serial_getchar+0x24>
		while (uart_read((Uart*)p_usart, data));
  40184a:	461f      	mov	r7, r3
  40184c:	4e1d      	ldr	r6, [pc, #116]	; (4018c4 <usart_serial_getchar+0xd4>)
  40184e:	4621      	mov	r1, r4
  401850:	4638      	mov	r0, r7
  401852:	47b0      	blx	r6
  401854:	2800      	cmp	r0, #0
  401856:	d1fa      	bne.n	40184e <usart_serial_getchar+0x5e>
  401858:	e7df      	b.n	40181a <usart_serial_getchar+0x2a>
		while (uart_read((Uart*)p_usart, data));
  40185a:	461f      	mov	r7, r3
  40185c:	4e19      	ldr	r6, [pc, #100]	; (4018c4 <usart_serial_getchar+0xd4>)
  40185e:	4621      	mov	r1, r4
  401860:	4638      	mov	r0, r7
  401862:	47b0      	blx	r6
  401864:	2800      	cmp	r0, #0
  401866:	d1fa      	bne.n	40185e <usart_serial_getchar+0x6e>
  401868:	e7da      	b.n	401820 <usart_serial_getchar+0x30>
		while (usart_read(p_usart, &val));
  40186a:	461e      	mov	r6, r3
  40186c:	4d16      	ldr	r5, [pc, #88]	; (4018c8 <usart_serial_getchar+0xd8>)
  40186e:	a901      	add	r1, sp, #4
  401870:	4630      	mov	r0, r6
  401872:	47a8      	blx	r5
  401874:	2800      	cmp	r0, #0
  401876:	d1fa      	bne.n	40186e <usart_serial_getchar+0x7e>
		*data = (uint8_t)(val & 0xFF);
  401878:	9b01      	ldr	r3, [sp, #4]
  40187a:	7023      	strb	r3, [r4, #0]
  40187c:	e7d3      	b.n	401826 <usart_serial_getchar+0x36>
		while (usart_read(p_usart, &val));
  40187e:	461e      	mov	r6, r3
  401880:	4d11      	ldr	r5, [pc, #68]	; (4018c8 <usart_serial_getchar+0xd8>)
  401882:	a901      	add	r1, sp, #4
  401884:	4630      	mov	r0, r6
  401886:	47a8      	blx	r5
  401888:	2800      	cmp	r0, #0
  40188a:	d1fa      	bne.n	401882 <usart_serial_getchar+0x92>
		*data = (uint8_t)(val & 0xFF);
  40188c:	9b01      	ldr	r3, [sp, #4]
  40188e:	7023      	strb	r3, [r4, #0]
  401890:	e7c9      	b.n	401826 <usart_serial_getchar+0x36>
		while (usart_read(p_usart, &val));
  401892:	461e      	mov	r6, r3
  401894:	4d0c      	ldr	r5, [pc, #48]	; (4018c8 <usart_serial_getchar+0xd8>)
  401896:	a901      	add	r1, sp, #4
  401898:	4630      	mov	r0, r6
  40189a:	47a8      	blx	r5
  40189c:	2800      	cmp	r0, #0
  40189e:	d1fa      	bne.n	401896 <usart_serial_getchar+0xa6>
		*data = (uint8_t)(val & 0xFF);
  4018a0:	9b01      	ldr	r3, [sp, #4]
  4018a2:	7023      	strb	r3, [r4, #0]
}
  4018a4:	e7bf      	b.n	401826 <usart_serial_getchar+0x36>
  4018a6:	bf00      	nop
  4018a8:	400e0800 	.word	0x400e0800
  4018ac:	400e0a00 	.word	0x400e0a00
  4018b0:	400e1a00 	.word	0x400e1a00
  4018b4:	400e1c00 	.word	0x400e1c00
  4018b8:	40024000 	.word	0x40024000
  4018bc:	40028000 	.word	0x40028000
  4018c0:	4002c000 	.word	0x4002c000
  4018c4:	00401431 	.word	0x00401431
  4018c8:	0040153f 	.word	0x0040153f

004018cc <usart_serial_putchar>:
{
  4018cc:	b570      	push	{r4, r5, r6, lr}
  4018ce:	460c      	mov	r4, r1
	if (UART0 == (Uart*)p_usart) {
  4018d0:	4b2a      	ldr	r3, [pc, #168]	; (40197c <usart_serial_putchar+0xb0>)
  4018d2:	4298      	cmp	r0, r3
  4018d4:	d013      	beq.n	4018fe <usart_serial_putchar+0x32>
	if (UART1 == (Uart*)p_usart) {
  4018d6:	4b2a      	ldr	r3, [pc, #168]	; (401980 <usart_serial_putchar+0xb4>)
  4018d8:	4298      	cmp	r0, r3
  4018da:	d019      	beq.n	401910 <usart_serial_putchar+0x44>
	if (UART2 == (Uart*)p_usart) {
  4018dc:	4b29      	ldr	r3, [pc, #164]	; (401984 <usart_serial_putchar+0xb8>)
  4018de:	4298      	cmp	r0, r3
  4018e0:	d01f      	beq.n	401922 <usart_serial_putchar+0x56>
	if (UART3 == (Uart*)p_usart) {
  4018e2:	4b29      	ldr	r3, [pc, #164]	; (401988 <usart_serial_putchar+0xbc>)
  4018e4:	4298      	cmp	r0, r3
  4018e6:	d025      	beq.n	401934 <usart_serial_putchar+0x68>
	if (USART0 == p_usart) {
  4018e8:	4b28      	ldr	r3, [pc, #160]	; (40198c <usart_serial_putchar+0xc0>)
  4018ea:	4298      	cmp	r0, r3
  4018ec:	d02b      	beq.n	401946 <usart_serial_putchar+0x7a>
	if (USART1 == p_usart) {
  4018ee:	4b28      	ldr	r3, [pc, #160]	; (401990 <usart_serial_putchar+0xc4>)
  4018f0:	4298      	cmp	r0, r3
  4018f2:	d031      	beq.n	401958 <usart_serial_putchar+0x8c>
	if (USART2 == p_usart) {
  4018f4:	4b27      	ldr	r3, [pc, #156]	; (401994 <usart_serial_putchar+0xc8>)
  4018f6:	4298      	cmp	r0, r3
  4018f8:	d037      	beq.n	40196a <usart_serial_putchar+0x9e>
	return 0;
  4018fa:	2000      	movs	r0, #0
}
  4018fc:	bd70      	pop	{r4, r5, r6, pc}
		while (uart_write((Uart*)p_usart, c)!=0);
  4018fe:	461e      	mov	r6, r3
  401900:	4d25      	ldr	r5, [pc, #148]	; (401998 <usart_serial_putchar+0xcc>)
  401902:	4621      	mov	r1, r4
  401904:	4630      	mov	r0, r6
  401906:	47a8      	blx	r5
  401908:	2800      	cmp	r0, #0
  40190a:	d1fa      	bne.n	401902 <usart_serial_putchar+0x36>
		return 1;
  40190c:	2001      	movs	r0, #1
  40190e:	bd70      	pop	{r4, r5, r6, pc}
		while (uart_write((Uart*)p_usart, c)!=0);
  401910:	461e      	mov	r6, r3
  401912:	4d21      	ldr	r5, [pc, #132]	; (401998 <usart_serial_putchar+0xcc>)
  401914:	4621      	mov	r1, r4
  401916:	4630      	mov	r0, r6
  401918:	47a8      	blx	r5
  40191a:	2800      	cmp	r0, #0
  40191c:	d1fa      	bne.n	401914 <usart_serial_putchar+0x48>
		return 1;
  40191e:	2001      	movs	r0, #1
  401920:	bd70      	pop	{r4, r5, r6, pc}
		while (uart_write((Uart*)p_usart, c)!=0);
  401922:	461e      	mov	r6, r3
  401924:	4d1c      	ldr	r5, [pc, #112]	; (401998 <usart_serial_putchar+0xcc>)
  401926:	4621      	mov	r1, r4
  401928:	4630      	mov	r0, r6
  40192a:	47a8      	blx	r5
  40192c:	2800      	cmp	r0, #0
  40192e:	d1fa      	bne.n	401926 <usart_serial_putchar+0x5a>
		return 1;
  401930:	2001      	movs	r0, #1
  401932:	bd70      	pop	{r4, r5, r6, pc}
		while (uart_write((Uart*)p_usart, c)!=0);
  401934:	461e      	mov	r6, r3
  401936:	4d18      	ldr	r5, [pc, #96]	; (401998 <usart_serial_putchar+0xcc>)
  401938:	4621      	mov	r1, r4
  40193a:	4630      	mov	r0, r6
  40193c:	47a8      	blx	r5
  40193e:	2800      	cmp	r0, #0
  401940:	d1fa      	bne.n	401938 <usart_serial_putchar+0x6c>
		return 1;
  401942:	2001      	movs	r0, #1
  401944:	bd70      	pop	{r4, r5, r6, pc}
		while (usart_write(p_usart, c)!=0);
  401946:	461e      	mov	r6, r3
  401948:	4d14      	ldr	r5, [pc, #80]	; (40199c <usart_serial_putchar+0xd0>)
  40194a:	4621      	mov	r1, r4
  40194c:	4630      	mov	r0, r6
  40194e:	47a8      	blx	r5
  401950:	2800      	cmp	r0, #0
  401952:	d1fa      	bne.n	40194a <usart_serial_putchar+0x7e>
		return 1;
  401954:	2001      	movs	r0, #1
  401956:	bd70      	pop	{r4, r5, r6, pc}
		while (usart_write(p_usart, c)!=0);
  401958:	461e      	mov	r6, r3
  40195a:	4d10      	ldr	r5, [pc, #64]	; (40199c <usart_serial_putchar+0xd0>)
  40195c:	4621      	mov	r1, r4
  40195e:	4630      	mov	r0, r6
  401960:	47a8      	blx	r5
  401962:	2800      	cmp	r0, #0
  401964:	d1fa      	bne.n	40195c <usart_serial_putchar+0x90>
		return 1;
  401966:	2001      	movs	r0, #1
  401968:	bd70      	pop	{r4, r5, r6, pc}
		while (usart_write(p_usart, c)!=0);
  40196a:	461e      	mov	r6, r3
  40196c:	4d0b      	ldr	r5, [pc, #44]	; (40199c <usart_serial_putchar+0xd0>)
  40196e:	4621      	mov	r1, r4
  401970:	4630      	mov	r0, r6
  401972:	47a8      	blx	r5
  401974:	2800      	cmp	r0, #0
  401976:	d1fa      	bne.n	40196e <usart_serial_putchar+0xa2>
		return 1;
  401978:	2001      	movs	r0, #1
  40197a:	bd70      	pop	{r4, r5, r6, pc}
  40197c:	400e0800 	.word	0x400e0800
  401980:	400e0a00 	.word	0x400e0a00
  401984:	400e1a00 	.word	0x400e1a00
  401988:	400e1c00 	.word	0x400e1c00
  40198c:	40024000 	.word	0x40024000
  401990:	40028000 	.word	0x40028000
  401994:	4002c000 	.word	0x4002c000
  401998:	0040141f 	.word	0x0040141f
  40199c:	00401529 	.word	0x00401529

004019a0 <main>:
 * Initialize system, UART console, network then start weather client.
 *
 * \return Program return value.
 */
int main(void)
{
  4019a0:	b580      	push	{r7, lr}
  4019a2:	b0c8      	sub	sp, #288	; 0x120
	// array para escrita no LCD
	uint8_t stingLCD[256];
	
	/* Initialize the board. */
	sysclk_init();
  4019a4:	4b51      	ldr	r3, [pc, #324]	; (401aec <main+0x14c>)
  4019a6:	4798      	blx	r3
	board_init();
  4019a8:	4b51      	ldr	r3, [pc, #324]	; (401af0 <main+0x150>)
  4019aa:	4798      	blx	r3
  4019ac:	200a      	movs	r0, #10
  4019ae:	4d51      	ldr	r5, [pc, #324]	; (401af4 <main+0x154>)
  4019b0:	47a8      	blx	r5
  4019b2:	200b      	movs	r0, #11
  4019b4:	47a8      	blx	r5
  4019b6:	200c      	movs	r0, #12
  4019b8:	47a8      	blx	r5
  4019ba:	2010      	movs	r0, #16
  4019bc:	47a8      	blx	r5
  4019be:	2011      	movs	r0, #17
  4019c0:	47a8      	blx	r5
  4019c2:	200e      	movs	r0, #14
  4019c4:	47a8      	blx	r5
 * \param opt         Options needed to set up RS232 communication (see \ref usart_options_t).
 *
 */
static inline void stdio_serial_init(volatile void *usart, const usart_serial_options_t *opt)
{
	stdio_base = (void *)usart;
  4019c6:	4e4c      	ldr	r6, [pc, #304]	; (401af8 <main+0x158>)
  4019c8:	4b4c      	ldr	r3, [pc, #304]	; (401afc <main+0x15c>)
  4019ca:	601e      	str	r6, [r3, #0]
	ptr_put = (int (*)(void volatile*,char))&usart_serial_putchar;
  4019cc:	4a4c      	ldr	r2, [pc, #304]	; (401b00 <main+0x160>)
  4019ce:	4b4d      	ldr	r3, [pc, #308]	; (401b04 <main+0x164>)
  4019d0:	601a      	str	r2, [r3, #0]
	ptr_get = (void (*)(void volatile*,char*))&usart_serial_getchar;
  4019d2:	4a4d      	ldr	r2, [pc, #308]	; (401b08 <main+0x168>)
  4019d4:	4b4d      	ldr	r3, [pc, #308]	; (401b0c <main+0x16c>)
  4019d6:	601a      	str	r2, [r3, #0]
	usart_settings.baudrate = opt->baudrate;
  4019d8:	f44f 33e1 	mov.w	r3, #115200	; 0x1c200
  4019dc:	9302      	str	r3, [sp, #8]
	usart_settings.char_length = opt->charlength;
  4019de:	23c0      	movs	r3, #192	; 0xc0
  4019e0:	9303      	str	r3, [sp, #12]
	usart_settings.parity_type = opt->paritytype;
  4019e2:	f44f 6300 	mov.w	r3, #2048	; 0x800
  4019e6:	9304      	str	r3, [sp, #16]
	usart_settings.stop_bits= opt->stopbits;
  4019e8:	2400      	movs	r4, #0
  4019ea:	9405      	str	r4, [sp, #20]
	usart_settings.channel_mode= US_MR_CHMODE_NORMAL;
  4019ec:	9406      	str	r4, [sp, #24]
  4019ee:	200e      	movs	r0, #14
  4019f0:	47a8      	blx	r5
		usart_init_rs232(p_usart, &usart_settings,
  4019f2:	4a47      	ldr	r2, [pc, #284]	; (401b10 <main+0x170>)
  4019f4:	a902      	add	r1, sp, #8
  4019f6:	4630      	mov	r0, r6
  4019f8:	4b46      	ldr	r3, [pc, #280]	; (401b14 <main+0x174>)
  4019fa:	4798      	blx	r3
		usart_enable_tx(p_usart);
  4019fc:	4630      	mov	r0, r6
  4019fe:	4b46      	ldr	r3, [pc, #280]	; (401b18 <main+0x178>)
  401a00:	4798      	blx	r3
		usart_enable_rx(p_usart);
  401a02:	4630      	mov	r0, r6
  401a04:	4b45      	ldr	r3, [pc, #276]	; (401b1c <main+0x17c>)
  401a06:	4798      	blx	r3
	fdevopen((int (*)(char, FILE*))(_write),(int (*)(FILE*))(_read));
#  endif
#  if UC3 || SAM
	// For AVR32 and SAM GCC
	// Specify that stdout and stdin should not be buffered.
	setbuf(stdout, NULL);
  401a08:	4e45      	ldr	r6, [pc, #276]	; (401b20 <main+0x180>)
  401a0a:	6833      	ldr	r3, [r6, #0]
  401a0c:	4621      	mov	r1, r4
  401a0e:	6898      	ldr	r0, [r3, #8]
  401a10:	4d44      	ldr	r5, [pc, #272]	; (401b24 <main+0x184>)
  401a12:	47a8      	blx	r5
	setbuf(stdin, NULL);
  401a14:	6833      	ldr	r3, [r6, #0]
  401a16:	4621      	mov	r1, r4
  401a18:	6858      	ldr	r0, [r3, #4]
  401a1a:	47a8      	blx	r5
	ioport_init();
	
	/* Initialize the UART console. */
	configure_console();
	printf(STRING_HEADER);
  401a1c:	4842      	ldr	r0, [pc, #264]	; (401b28 <main+0x188>)
  401a1e:	4b43      	ldr	r3, [pc, #268]	; (401b2c <main+0x18c>)
  401a20:	4798      	blx	r3
	g_ili9488_display_opt.ul_width = ILI9488_LCD_WIDTH;
  401a22:	4843      	ldr	r0, [pc, #268]	; (401b30 <main+0x190>)
  401a24:	f44f 73a0 	mov.w	r3, #320	; 0x140
  401a28:	6003      	str	r3, [r0, #0]
	g_ili9488_display_opt.ul_height = ILI9488_LCD_HEIGHT;
  401a2a:	f44f 73f0 	mov.w	r3, #480	; 0x1e0
  401a2e:	6043      	str	r3, [r0, #4]
	g_ili9488_display_opt.foreground_color = COLOR_CONVERT(COLOR_BLACK);
  401a30:	6084      	str	r4, [r0, #8]
	g_ili9488_display_opt.background_color = COLOR_CONVERT(COLOR_BLACK);
  401a32:	60c4      	str	r4, [r0, #12]
	ili9488_init(&g_ili9488_display_opt);
  401a34:	4b3f      	ldr	r3, [pc, #252]	; (401b34 <main+0x194>)
  401a36:	4798      	blx	r3
	ili9488_draw_filled_rectangle(0, 0, ILI9488_LCD_WIDTH-1, ILI9488_LCD_HEIGHT-1);
  401a38:	f240 13df 	movw	r3, #479	; 0x1df
  401a3c:	f240 123f 	movw	r2, #319	; 0x13f
  401a40:	4621      	mov	r1, r4
  401a42:	4620      	mov	r0, r4
  401a44:	4e3c      	ldr	r6, [pc, #240]	; (401b38 <main+0x198>)
  401a46:	47b0      	blx	r6
	ili9488_set_foreground_color(COLOR_CONVERT(COLOR_BLACK));
  401a48:	4620      	mov	r0, r4
  401a4a:	4f3c      	ldr	r7, [pc, #240]	; (401b3c <main+0x19c>)
  401a4c:	47b8      	blx	r7
	ili9488_draw_filled_rectangle(0, 0, ILI9488_LCD_WIDTH-1, 120-1);
  401a4e:	2377      	movs	r3, #119	; 0x77
  401a50:	f240 123f 	movw	r2, #319	; 0x13f
  401a54:	4621      	mov	r1, r4
  401a56:	4620      	mov	r0, r4
  401a58:	47b0      	blx	r6
	ili9488_draw_filled_rectangle(0, 360, ILI9488_LCD_WIDTH-1, 480-1);
  401a5a:	f240 13df 	movw	r3, #479	; 0x1df
  401a5e:	f240 123f 	movw	r2, #319	; 0x13f
  401a62:	f44f 71b4 	mov.w	r1, #360	; 0x168
  401a66:	4620      	mov	r0, r4
  401a68:	47b0      	blx	r6
	ili9488_draw_pixmap(ILI9488_LCD_WIDTH-33, 25, icone_travar.width, icone_travar.height, icone_travar.data);
  401a6a:	f8df 80f4 	ldr.w	r8, [pc, #244]	; 401b60 <main+0x1c0>
  401a6e:	f8cd 8000 	str.w	r8, [sp]
  401a72:	2317      	movs	r3, #23
  401a74:	2211      	movs	r2, #17
  401a76:	2119      	movs	r1, #25
  401a78:	f240 101f 	movw	r0, #287	; 0x11f
  401a7c:	4d30      	ldr	r5, [pc, #192]	; (401b40 <main+0x1a0>)
  401a7e:	47a8      	blx	r5
	ili9488_draw_pixmap(10, 25, icone_travar.width, icone_travar.height, icone_travar.data);
  401a80:	f8cd 8000 	str.w	r8, [sp]
  401a84:	2317      	movs	r3, #23
  401a86:	2211      	movs	r2, #17
  401a88:	2119      	movs	r1, #25
  401a8a:	200a      	movs	r0, #10
  401a8c:	47a8      	blx	r5
	ili9488_draw_pixmap(108, 25, titulo_andamento.width, titulo_andamento.height, titulo_andamento.data);
  401a8e:	4b2d      	ldr	r3, [pc, #180]	; (401b44 <main+0x1a4>)
  401a90:	9300      	str	r3, [sp, #0]
  401a92:	2310      	movs	r3, #16
  401a94:	2268      	movs	r2, #104	; 0x68
  401a96:	2119      	movs	r1, #25
  401a98:	206c      	movs	r0, #108	; 0x6c
  401a9a:	47a8      	blx	r5
	ili9488_draw_pixmap(124, 100, andamento_diario.width, andamento_diario.height, andamento_diario.data);
  401a9c:	4b2a      	ldr	r3, [pc, #168]	; (401b48 <main+0x1a8>)
  401a9e:	9300      	str	r3, [sp, #0]
  401aa0:	235d      	movs	r3, #93	; 0x5d
  401aa2:	2241      	movs	r2, #65	; 0x41
  401aa4:	2164      	movs	r1, #100	; 0x64
  401aa6:	207c      	movs	r0, #124	; 0x7c
  401aa8:	47a8      	blx	r5
	ili9488_draw_pixmap(79, ILI9488_LCD_HEIGHT-49 , icone_emergencia.width, icone_emergencia.height, icone_emergencia.data);
  401aaa:	4b28      	ldr	r3, [pc, #160]	; (401b4c <main+0x1ac>)
  401aac:	9300      	str	r3, [sp, #0]
  401aae:	2313      	movs	r3, #19
  401ab0:	22a2      	movs	r2, #162	; 0xa2
  401ab2:	f240 11af 	movw	r1, #431	; 0x1af
  401ab6:	204f      	movs	r0, #79	; 0x4f
  401ab8:	47a8      	blx	r5

    /* Inicializa e configura o LCD */
	configure_lcd();

    /* Escreve na tela Computacao Embarcada 2018 */
	ili9488_set_foreground_color(COLOR_CONVERT(COLOR_BLACK));
  401aba:	4620      	mov	r0, r4
  401abc:	47b8      	blx	r7
	ili9488_draw_filled_rectangle(0, 300, ILI9488_LCD_WIDTH-1, 315);
  401abe:	f240 133b 	movw	r3, #315	; 0x13b
  401ac2:	f240 123f 	movw	r2, #319	; 0x13f
  401ac6:	f44f 7196 	mov.w	r1, #300	; 0x12c
  401aca:	4620      	mov	r0, r4
  401acc:	47b0      	blx	r6
	ili9488_set_foreground_color(COLOR_CONVERT(COLOR_WHITE));
  401ace:	4820      	ldr	r0, [pc, #128]	; (401b50 <main+0x1b0>)
  401ad0:	47b8      	blx	r7
	
	sprintf(stingLCD, "%d min restantes", 10);
  401ad2:	220a      	movs	r2, #10
  401ad4:	491f      	ldr	r1, [pc, #124]	; (401b54 <main+0x1b4>)
  401ad6:	a808      	add	r0, sp, #32
  401ad8:	4b1f      	ldr	r3, [pc, #124]	; (401b58 <main+0x1b8>)
  401ada:	4798      	blx	r3
	ili9488_draw_string(75, 300, stingLCD);
  401adc:	aa08      	add	r2, sp, #32
  401ade:	f44f 7196 	mov.w	r1, #300	; 0x12c
  401ae2:	204b      	movs	r0, #75	; 0x4b
  401ae4:	4b1d      	ldr	r3, [pc, #116]	; (401b5c <main+0x1bc>)
  401ae6:	4798      	blx	r3
  401ae8:	e7fe      	b.n	401ae8 <main+0x148>
  401aea:	bf00      	nop
  401aec:	004001ad 	.word	0x004001ad
  401af0:	00400439 	.word	0x00400439
  401af4:	00401251 	.word	0x00401251
  401af8:	40028000 	.word	0x40028000
  401afc:	20400e48 	.word	0x20400e48
  401b00:	004018cd 	.word	0x004018cd
  401b04:	20400e44 	.word	0x20400e44
  401b08:	004017f1 	.word	0x004017f1
  401b0c:	20400e40 	.word	0x20400e40
  401b10:	08f0d180 	.word	0x08f0d180
  401b14:	004014c9 	.word	0x004014c9
  401b18:	0040151d 	.word	0x0040151d
  401b1c:	00401523 	.word	0x00401523
  401b20:	20400008 	.word	0x20400008
  401b24:	00401dad 	.word	0x00401dad
  401b28:	00410a08 	.word	0x00410a08
  401b2c:	00401bb5 	.word	0x00401bb5
  401b30:	20400e4c 	.word	0x20400e4c
  401b34:	004009a5 	.word	0x004009a5
  401b38:	00400ba5 	.word	0x00400ba5
  401b3c:	00400919 	.word	0x00400919
  401b40:	00400d11 	.word	0x00400d11
  401b44:	0040f688 	.word	0x0040f688
  401b48:	00408704 	.word	0x00408704
  401b4c:	0040cddc 	.word	0x0040cddc
  401b50:	00fcfcfc 	.word	0x00fcfcfc
  401b54:	00410a5c 	.word	0x00410a5c
  401b58:	00401f4d 	.word	0x00401f4d
  401b5c:	00400c61 	.word	0x00400c61
  401b60:	0040f1f0 	.word	0x0040f1f0

00401b64 <__libc_init_array>:
  401b64:	b570      	push	{r4, r5, r6, lr}
  401b66:	4e0f      	ldr	r6, [pc, #60]	; (401ba4 <__libc_init_array+0x40>)
  401b68:	4d0f      	ldr	r5, [pc, #60]	; (401ba8 <__libc_init_array+0x44>)
  401b6a:	1b76      	subs	r6, r6, r5
  401b6c:	10b6      	asrs	r6, r6, #2
  401b6e:	bf18      	it	ne
  401b70:	2400      	movne	r4, #0
  401b72:	d005      	beq.n	401b80 <__libc_init_array+0x1c>
  401b74:	3401      	adds	r4, #1
  401b76:	f855 3b04 	ldr.w	r3, [r5], #4
  401b7a:	4798      	blx	r3
  401b7c:	42a6      	cmp	r6, r4
  401b7e:	d1f9      	bne.n	401b74 <__libc_init_array+0x10>
  401b80:	4e0a      	ldr	r6, [pc, #40]	; (401bac <__libc_init_array+0x48>)
  401b82:	4d0b      	ldr	r5, [pc, #44]	; (401bb0 <__libc_init_array+0x4c>)
  401b84:	1b76      	subs	r6, r6, r5
  401b86:	f00f f8c7 	bl	410d18 <_init>
  401b8a:	10b6      	asrs	r6, r6, #2
  401b8c:	bf18      	it	ne
  401b8e:	2400      	movne	r4, #0
  401b90:	d006      	beq.n	401ba0 <__libc_init_array+0x3c>
  401b92:	3401      	adds	r4, #1
  401b94:	f855 3b04 	ldr.w	r3, [r5], #4
  401b98:	4798      	blx	r3
  401b9a:	42a6      	cmp	r6, r4
  401b9c:	d1f9      	bne.n	401b92 <__libc_init_array+0x2e>
  401b9e:	bd70      	pop	{r4, r5, r6, pc}
  401ba0:	bd70      	pop	{r4, r5, r6, pc}
  401ba2:	bf00      	nop
  401ba4:	00410d24 	.word	0x00410d24
  401ba8:	00410d24 	.word	0x00410d24
  401bac:	00410d2c 	.word	0x00410d2c
  401bb0:	00410d24 	.word	0x00410d24

00401bb4 <iprintf>:
  401bb4:	b40f      	push	{r0, r1, r2, r3}
  401bb6:	b500      	push	{lr}
  401bb8:	4907      	ldr	r1, [pc, #28]	; (401bd8 <iprintf+0x24>)
  401bba:	b083      	sub	sp, #12
  401bbc:	ab04      	add	r3, sp, #16
  401bbe:	6808      	ldr	r0, [r1, #0]
  401bc0:	f853 2b04 	ldr.w	r2, [r3], #4
  401bc4:	6881      	ldr	r1, [r0, #8]
  401bc6:	9301      	str	r3, [sp, #4]
  401bc8:	f001 fc54 	bl	403474 <_vfiprintf_r>
  401bcc:	b003      	add	sp, #12
  401bce:	f85d eb04 	ldr.w	lr, [sp], #4
  401bd2:	b004      	add	sp, #16
  401bd4:	4770      	bx	lr
  401bd6:	bf00      	nop
  401bd8:	20400008 	.word	0x20400008

00401bdc <memcpy>:
  401bdc:	4684      	mov	ip, r0
  401bde:	ea41 0300 	orr.w	r3, r1, r0
  401be2:	f013 0303 	ands.w	r3, r3, #3
  401be6:	d16d      	bne.n	401cc4 <memcpy+0xe8>
  401be8:	3a40      	subs	r2, #64	; 0x40
  401bea:	d341      	bcc.n	401c70 <memcpy+0x94>
  401bec:	f851 3b04 	ldr.w	r3, [r1], #4
  401bf0:	f840 3b04 	str.w	r3, [r0], #4
  401bf4:	f851 3b04 	ldr.w	r3, [r1], #4
  401bf8:	f840 3b04 	str.w	r3, [r0], #4
  401bfc:	f851 3b04 	ldr.w	r3, [r1], #4
  401c00:	f840 3b04 	str.w	r3, [r0], #4
  401c04:	f851 3b04 	ldr.w	r3, [r1], #4
  401c08:	f840 3b04 	str.w	r3, [r0], #4
  401c0c:	f851 3b04 	ldr.w	r3, [r1], #4
  401c10:	f840 3b04 	str.w	r3, [r0], #4
  401c14:	f851 3b04 	ldr.w	r3, [r1], #4
  401c18:	f840 3b04 	str.w	r3, [r0], #4
  401c1c:	f851 3b04 	ldr.w	r3, [r1], #4
  401c20:	f840 3b04 	str.w	r3, [r0], #4
  401c24:	f851 3b04 	ldr.w	r3, [r1], #4
  401c28:	f840 3b04 	str.w	r3, [r0], #4
  401c2c:	f851 3b04 	ldr.w	r3, [r1], #4
  401c30:	f840 3b04 	str.w	r3, [r0], #4
  401c34:	f851 3b04 	ldr.w	r3, [r1], #4
  401c38:	f840 3b04 	str.w	r3, [r0], #4
  401c3c:	f851 3b04 	ldr.w	r3, [r1], #4
  401c40:	f840 3b04 	str.w	r3, [r0], #4
  401c44:	f851 3b04 	ldr.w	r3, [r1], #4
  401c48:	f840 3b04 	str.w	r3, [r0], #4
  401c4c:	f851 3b04 	ldr.w	r3, [r1], #4
  401c50:	f840 3b04 	str.w	r3, [r0], #4
  401c54:	f851 3b04 	ldr.w	r3, [r1], #4
  401c58:	f840 3b04 	str.w	r3, [r0], #4
  401c5c:	f851 3b04 	ldr.w	r3, [r1], #4
  401c60:	f840 3b04 	str.w	r3, [r0], #4
  401c64:	f851 3b04 	ldr.w	r3, [r1], #4
  401c68:	f840 3b04 	str.w	r3, [r0], #4
  401c6c:	3a40      	subs	r2, #64	; 0x40
  401c6e:	d2bd      	bcs.n	401bec <memcpy+0x10>
  401c70:	3230      	adds	r2, #48	; 0x30
  401c72:	d311      	bcc.n	401c98 <memcpy+0xbc>
  401c74:	f851 3b04 	ldr.w	r3, [r1], #4
  401c78:	f840 3b04 	str.w	r3, [r0], #4
  401c7c:	f851 3b04 	ldr.w	r3, [r1], #4
  401c80:	f840 3b04 	str.w	r3, [r0], #4
  401c84:	f851 3b04 	ldr.w	r3, [r1], #4
  401c88:	f840 3b04 	str.w	r3, [r0], #4
  401c8c:	f851 3b04 	ldr.w	r3, [r1], #4
  401c90:	f840 3b04 	str.w	r3, [r0], #4
  401c94:	3a10      	subs	r2, #16
  401c96:	d2ed      	bcs.n	401c74 <memcpy+0x98>
  401c98:	320c      	adds	r2, #12
  401c9a:	d305      	bcc.n	401ca8 <memcpy+0xcc>
  401c9c:	f851 3b04 	ldr.w	r3, [r1], #4
  401ca0:	f840 3b04 	str.w	r3, [r0], #4
  401ca4:	3a04      	subs	r2, #4
  401ca6:	d2f9      	bcs.n	401c9c <memcpy+0xc0>
  401ca8:	3204      	adds	r2, #4
  401caa:	d008      	beq.n	401cbe <memcpy+0xe2>
  401cac:	07d2      	lsls	r2, r2, #31
  401cae:	bf1c      	itt	ne
  401cb0:	f811 3b01 	ldrbne.w	r3, [r1], #1
  401cb4:	f800 3b01 	strbne.w	r3, [r0], #1
  401cb8:	d301      	bcc.n	401cbe <memcpy+0xe2>
  401cba:	880b      	ldrh	r3, [r1, #0]
  401cbc:	8003      	strh	r3, [r0, #0]
  401cbe:	4660      	mov	r0, ip
  401cc0:	4770      	bx	lr
  401cc2:	bf00      	nop
  401cc4:	2a08      	cmp	r2, #8
  401cc6:	d313      	bcc.n	401cf0 <memcpy+0x114>
  401cc8:	078b      	lsls	r3, r1, #30
  401cca:	d08d      	beq.n	401be8 <memcpy+0xc>
  401ccc:	f010 0303 	ands.w	r3, r0, #3
  401cd0:	d08a      	beq.n	401be8 <memcpy+0xc>
  401cd2:	f1c3 0304 	rsb	r3, r3, #4
  401cd6:	1ad2      	subs	r2, r2, r3
  401cd8:	07db      	lsls	r3, r3, #31
  401cda:	bf1c      	itt	ne
  401cdc:	f811 3b01 	ldrbne.w	r3, [r1], #1
  401ce0:	f800 3b01 	strbne.w	r3, [r0], #1
  401ce4:	d380      	bcc.n	401be8 <memcpy+0xc>
  401ce6:	f831 3b02 	ldrh.w	r3, [r1], #2
  401cea:	f820 3b02 	strh.w	r3, [r0], #2
  401cee:	e77b      	b.n	401be8 <memcpy+0xc>
  401cf0:	3a04      	subs	r2, #4
  401cf2:	d3d9      	bcc.n	401ca8 <memcpy+0xcc>
  401cf4:	3a01      	subs	r2, #1
  401cf6:	f811 3b01 	ldrb.w	r3, [r1], #1
  401cfa:	f800 3b01 	strb.w	r3, [r0], #1
  401cfe:	d2f9      	bcs.n	401cf4 <memcpy+0x118>
  401d00:	780b      	ldrb	r3, [r1, #0]
  401d02:	7003      	strb	r3, [r0, #0]
  401d04:	784b      	ldrb	r3, [r1, #1]
  401d06:	7043      	strb	r3, [r0, #1]
  401d08:	788b      	ldrb	r3, [r1, #2]
  401d0a:	7083      	strb	r3, [r0, #2]
  401d0c:	4660      	mov	r0, ip
  401d0e:	4770      	bx	lr

00401d10 <memset>:
  401d10:	b470      	push	{r4, r5, r6}
  401d12:	0786      	lsls	r6, r0, #30
  401d14:	d046      	beq.n	401da4 <memset+0x94>
  401d16:	1e54      	subs	r4, r2, #1
  401d18:	2a00      	cmp	r2, #0
  401d1a:	d041      	beq.n	401da0 <memset+0x90>
  401d1c:	b2ca      	uxtb	r2, r1
  401d1e:	4603      	mov	r3, r0
  401d20:	e002      	b.n	401d28 <memset+0x18>
  401d22:	f114 34ff 	adds.w	r4, r4, #4294967295
  401d26:	d33b      	bcc.n	401da0 <memset+0x90>
  401d28:	f803 2b01 	strb.w	r2, [r3], #1
  401d2c:	079d      	lsls	r5, r3, #30
  401d2e:	d1f8      	bne.n	401d22 <memset+0x12>
  401d30:	2c03      	cmp	r4, #3
  401d32:	d92e      	bls.n	401d92 <memset+0x82>
  401d34:	b2cd      	uxtb	r5, r1
  401d36:	ea45 2505 	orr.w	r5, r5, r5, lsl #8
  401d3a:	2c0f      	cmp	r4, #15
  401d3c:	ea45 4505 	orr.w	r5, r5, r5, lsl #16
  401d40:	d919      	bls.n	401d76 <memset+0x66>
  401d42:	f103 0210 	add.w	r2, r3, #16
  401d46:	4626      	mov	r6, r4
  401d48:	3e10      	subs	r6, #16
  401d4a:	2e0f      	cmp	r6, #15
  401d4c:	f842 5c10 	str.w	r5, [r2, #-16]
  401d50:	f842 5c0c 	str.w	r5, [r2, #-12]
  401d54:	f842 5c08 	str.w	r5, [r2, #-8]
  401d58:	f842 5c04 	str.w	r5, [r2, #-4]
  401d5c:	f102 0210 	add.w	r2, r2, #16
  401d60:	d8f2      	bhi.n	401d48 <memset+0x38>
  401d62:	f1a4 0210 	sub.w	r2, r4, #16
  401d66:	f022 020f 	bic.w	r2, r2, #15
  401d6a:	f004 040f 	and.w	r4, r4, #15
  401d6e:	3210      	adds	r2, #16
  401d70:	2c03      	cmp	r4, #3
  401d72:	4413      	add	r3, r2
  401d74:	d90d      	bls.n	401d92 <memset+0x82>
  401d76:	461e      	mov	r6, r3
  401d78:	4622      	mov	r2, r4
  401d7a:	3a04      	subs	r2, #4
  401d7c:	2a03      	cmp	r2, #3
  401d7e:	f846 5b04 	str.w	r5, [r6], #4
  401d82:	d8fa      	bhi.n	401d7a <memset+0x6a>
  401d84:	1f22      	subs	r2, r4, #4
  401d86:	f022 0203 	bic.w	r2, r2, #3
  401d8a:	3204      	adds	r2, #4
  401d8c:	4413      	add	r3, r2
  401d8e:	f004 0403 	and.w	r4, r4, #3
  401d92:	b12c      	cbz	r4, 401da0 <memset+0x90>
  401d94:	b2c9      	uxtb	r1, r1
  401d96:	441c      	add	r4, r3
  401d98:	f803 1b01 	strb.w	r1, [r3], #1
  401d9c:	429c      	cmp	r4, r3
  401d9e:	d1fb      	bne.n	401d98 <memset+0x88>
  401da0:	bc70      	pop	{r4, r5, r6}
  401da2:	4770      	bx	lr
  401da4:	4614      	mov	r4, r2
  401da6:	4603      	mov	r3, r0
  401da8:	e7c2      	b.n	401d30 <memset+0x20>
  401daa:	bf00      	nop

00401dac <setbuf>:
  401dac:	2900      	cmp	r1, #0
  401dae:	bf0c      	ite	eq
  401db0:	2202      	moveq	r2, #2
  401db2:	2200      	movne	r2, #0
  401db4:	f44f 6380 	mov.w	r3, #1024	; 0x400
  401db8:	f000 b800 	b.w	401dbc <setvbuf>

00401dbc <setvbuf>:
  401dbc:	e92d 43f0 	stmdb	sp!, {r4, r5, r6, r7, r8, r9, lr}
  401dc0:	4c61      	ldr	r4, [pc, #388]	; (401f48 <setvbuf+0x18c>)
  401dc2:	6825      	ldr	r5, [r4, #0]
  401dc4:	b083      	sub	sp, #12
  401dc6:	4604      	mov	r4, r0
  401dc8:	460f      	mov	r7, r1
  401dca:	4690      	mov	r8, r2
  401dcc:	461e      	mov	r6, r3
  401dce:	b115      	cbz	r5, 401dd6 <setvbuf+0x1a>
  401dd0:	6bab      	ldr	r3, [r5, #56]	; 0x38
  401dd2:	2b00      	cmp	r3, #0
  401dd4:	d064      	beq.n	401ea0 <setvbuf+0xe4>
  401dd6:	f1b8 0f02 	cmp.w	r8, #2
  401dda:	d006      	beq.n	401dea <setvbuf+0x2e>
  401ddc:	f1b8 0f01 	cmp.w	r8, #1
  401de0:	f200 809f 	bhi.w	401f22 <setvbuf+0x166>
  401de4:	2e00      	cmp	r6, #0
  401de6:	f2c0 809c 	blt.w	401f22 <setvbuf+0x166>
  401dea:	6e63      	ldr	r3, [r4, #100]	; 0x64
  401dec:	07d8      	lsls	r0, r3, #31
  401dee:	d534      	bpl.n	401e5a <setvbuf+0x9e>
  401df0:	4621      	mov	r1, r4
  401df2:	4628      	mov	r0, r5
  401df4:	f003 fa9a 	bl	40532c <_fflush_r>
  401df8:	6b21      	ldr	r1, [r4, #48]	; 0x30
  401dfa:	b141      	cbz	r1, 401e0e <setvbuf+0x52>
  401dfc:	f104 0340 	add.w	r3, r4, #64	; 0x40
  401e00:	4299      	cmp	r1, r3
  401e02:	d002      	beq.n	401e0a <setvbuf+0x4e>
  401e04:	4628      	mov	r0, r5
  401e06:	f003 fc0f 	bl	405628 <_free_r>
  401e0a:	2300      	movs	r3, #0
  401e0c:	6323      	str	r3, [r4, #48]	; 0x30
  401e0e:	f9b4 300c 	ldrsh.w	r3, [r4, #12]
  401e12:	2200      	movs	r2, #0
  401e14:	61a2      	str	r2, [r4, #24]
  401e16:	6062      	str	r2, [r4, #4]
  401e18:	061a      	lsls	r2, r3, #24
  401e1a:	d43a      	bmi.n	401e92 <setvbuf+0xd6>
  401e1c:	f423 634a 	bic.w	r3, r3, #3232	; 0xca0
  401e20:	f023 0303 	bic.w	r3, r3, #3
  401e24:	f1b8 0f02 	cmp.w	r8, #2
  401e28:	81a3      	strh	r3, [r4, #12]
  401e2a:	d01d      	beq.n	401e68 <setvbuf+0xac>
  401e2c:	ab01      	add	r3, sp, #4
  401e2e:	466a      	mov	r2, sp
  401e30:	4621      	mov	r1, r4
  401e32:	4628      	mov	r0, r5
  401e34:	f003 fea4 	bl	405b80 <__swhatbuf_r>
  401e38:	89a3      	ldrh	r3, [r4, #12]
  401e3a:	4318      	orrs	r0, r3
  401e3c:	81a0      	strh	r0, [r4, #12]
  401e3e:	2e00      	cmp	r6, #0
  401e40:	d132      	bne.n	401ea8 <setvbuf+0xec>
  401e42:	9e00      	ldr	r6, [sp, #0]
  401e44:	4630      	mov	r0, r6
  401e46:	f003 ff13 	bl	405c70 <malloc>
  401e4a:	4607      	mov	r7, r0
  401e4c:	2800      	cmp	r0, #0
  401e4e:	d06b      	beq.n	401f28 <setvbuf+0x16c>
  401e50:	89a3      	ldrh	r3, [r4, #12]
  401e52:	f043 0380 	orr.w	r3, r3, #128	; 0x80
  401e56:	81a3      	strh	r3, [r4, #12]
  401e58:	e028      	b.n	401eac <setvbuf+0xf0>
  401e5a:	89a3      	ldrh	r3, [r4, #12]
  401e5c:	0599      	lsls	r1, r3, #22
  401e5e:	d4c7      	bmi.n	401df0 <setvbuf+0x34>
  401e60:	6da0      	ldr	r0, [r4, #88]	; 0x58
  401e62:	f003 fe89 	bl	405b78 <__retarget_lock_acquire_recursive>
  401e66:	e7c3      	b.n	401df0 <setvbuf+0x34>
  401e68:	2500      	movs	r5, #0
  401e6a:	6e61      	ldr	r1, [r4, #100]	; 0x64
  401e6c:	2600      	movs	r6, #0
  401e6e:	f104 0243 	add.w	r2, r4, #67	; 0x43
  401e72:	f043 0302 	orr.w	r3, r3, #2
  401e76:	2001      	movs	r0, #1
  401e78:	60a6      	str	r6, [r4, #8]
  401e7a:	07ce      	lsls	r6, r1, #31
  401e7c:	81a3      	strh	r3, [r4, #12]
  401e7e:	6022      	str	r2, [r4, #0]
  401e80:	6122      	str	r2, [r4, #16]
  401e82:	6160      	str	r0, [r4, #20]
  401e84:	d401      	bmi.n	401e8a <setvbuf+0xce>
  401e86:	0598      	lsls	r0, r3, #22
  401e88:	d53e      	bpl.n	401f08 <setvbuf+0x14c>
  401e8a:	4628      	mov	r0, r5
  401e8c:	b003      	add	sp, #12
  401e8e:	e8bd 83f0 	ldmia.w	sp!, {r4, r5, r6, r7, r8, r9, pc}
  401e92:	6921      	ldr	r1, [r4, #16]
  401e94:	4628      	mov	r0, r5
  401e96:	f003 fbc7 	bl	405628 <_free_r>
  401e9a:	f9b4 300c 	ldrsh.w	r3, [r4, #12]
  401e9e:	e7bd      	b.n	401e1c <setvbuf+0x60>
  401ea0:	4628      	mov	r0, r5
  401ea2:	f003 fa9b 	bl	4053dc <__sinit>
  401ea6:	e796      	b.n	401dd6 <setvbuf+0x1a>
  401ea8:	2f00      	cmp	r7, #0
  401eaa:	d0cb      	beq.n	401e44 <setvbuf+0x88>
  401eac:	6bab      	ldr	r3, [r5, #56]	; 0x38
  401eae:	2b00      	cmp	r3, #0
  401eb0:	d033      	beq.n	401f1a <setvbuf+0x15e>
  401eb2:	9b00      	ldr	r3, [sp, #0]
  401eb4:	f9b4 200c 	ldrsh.w	r2, [r4, #12]
  401eb8:	6027      	str	r7, [r4, #0]
  401eba:	429e      	cmp	r6, r3
  401ebc:	bf1c      	itt	ne
  401ebe:	f442 6200 	orrne.w	r2, r2, #2048	; 0x800
  401ec2:	81a2      	strhne	r2, [r4, #12]
  401ec4:	f1b8 0f01 	cmp.w	r8, #1
  401ec8:	bf04      	itt	eq
  401eca:	f042 0201 	orreq.w	r2, r2, #1
  401ece:	81a2      	strheq	r2, [r4, #12]
  401ed0:	b292      	uxth	r2, r2
  401ed2:	f012 0308 	ands.w	r3, r2, #8
  401ed6:	6127      	str	r7, [r4, #16]
  401ed8:	6166      	str	r6, [r4, #20]
  401eda:	d00e      	beq.n	401efa <setvbuf+0x13e>
  401edc:	07d1      	lsls	r1, r2, #31
  401ede:	d51a      	bpl.n	401f16 <setvbuf+0x15a>
  401ee0:	6e65      	ldr	r5, [r4, #100]	; 0x64
  401ee2:	4276      	negs	r6, r6
  401ee4:	2300      	movs	r3, #0
  401ee6:	f015 0501 	ands.w	r5, r5, #1
  401eea:	61a6      	str	r6, [r4, #24]
  401eec:	60a3      	str	r3, [r4, #8]
  401eee:	d009      	beq.n	401f04 <setvbuf+0x148>
  401ef0:	2500      	movs	r5, #0
  401ef2:	4628      	mov	r0, r5
  401ef4:	b003      	add	sp, #12
  401ef6:	e8bd 83f0 	ldmia.w	sp!, {r4, r5, r6, r7, r8, r9, pc}
  401efa:	60a3      	str	r3, [r4, #8]
  401efc:	6e65      	ldr	r5, [r4, #100]	; 0x64
  401efe:	f015 0501 	ands.w	r5, r5, #1
  401f02:	d1f5      	bne.n	401ef0 <setvbuf+0x134>
  401f04:	0593      	lsls	r3, r2, #22
  401f06:	d4c0      	bmi.n	401e8a <setvbuf+0xce>
  401f08:	6da0      	ldr	r0, [r4, #88]	; 0x58
  401f0a:	f003 fe37 	bl	405b7c <__retarget_lock_release_recursive>
  401f0e:	4628      	mov	r0, r5
  401f10:	b003      	add	sp, #12
  401f12:	e8bd 83f0 	ldmia.w	sp!, {r4, r5, r6, r7, r8, r9, pc}
  401f16:	60a6      	str	r6, [r4, #8]
  401f18:	e7f0      	b.n	401efc <setvbuf+0x140>
  401f1a:	4628      	mov	r0, r5
  401f1c:	f003 fa5e 	bl	4053dc <__sinit>
  401f20:	e7c7      	b.n	401eb2 <setvbuf+0xf6>
  401f22:	f04f 35ff 	mov.w	r5, #4294967295
  401f26:	e7b0      	b.n	401e8a <setvbuf+0xce>
  401f28:	f8dd 9000 	ldr.w	r9, [sp]
  401f2c:	45b1      	cmp	r9, r6
  401f2e:	d004      	beq.n	401f3a <setvbuf+0x17e>
  401f30:	4648      	mov	r0, r9
  401f32:	f003 fe9d 	bl	405c70 <malloc>
  401f36:	4607      	mov	r7, r0
  401f38:	b920      	cbnz	r0, 401f44 <setvbuf+0x188>
  401f3a:	f9b4 300c 	ldrsh.w	r3, [r4, #12]
  401f3e:	f04f 35ff 	mov.w	r5, #4294967295
  401f42:	e792      	b.n	401e6a <setvbuf+0xae>
  401f44:	464e      	mov	r6, r9
  401f46:	e783      	b.n	401e50 <setvbuf+0x94>
  401f48:	20400008 	.word	0x20400008

00401f4c <sprintf>:
  401f4c:	b40e      	push	{r1, r2, r3}
  401f4e:	b5f0      	push	{r4, r5, r6, r7, lr}
  401f50:	b09c      	sub	sp, #112	; 0x70
  401f52:	ab21      	add	r3, sp, #132	; 0x84
  401f54:	490f      	ldr	r1, [pc, #60]	; (401f94 <sprintf+0x48>)
  401f56:	f853 2b04 	ldr.w	r2, [r3], #4
  401f5a:	9301      	str	r3, [sp, #4]
  401f5c:	4605      	mov	r5, r0
  401f5e:	f06f 4400 	mvn.w	r4, #2147483648	; 0x80000000
  401f62:	6808      	ldr	r0, [r1, #0]
  401f64:	9502      	str	r5, [sp, #8]
  401f66:	f44f 7702 	mov.w	r7, #520	; 0x208
  401f6a:	f64f 76ff 	movw	r6, #65535	; 0xffff
  401f6e:	a902      	add	r1, sp, #8
  401f70:	9506      	str	r5, [sp, #24]
  401f72:	f8ad 7014 	strh.w	r7, [sp, #20]
  401f76:	9404      	str	r4, [sp, #16]
  401f78:	9407      	str	r4, [sp, #28]
  401f7a:	f8ad 6016 	strh.w	r6, [sp, #22]
  401f7e:	f000 f80b 	bl	401f98 <_svfprintf_r>
  401f82:	9b02      	ldr	r3, [sp, #8]
  401f84:	2200      	movs	r2, #0
  401f86:	701a      	strb	r2, [r3, #0]
  401f88:	b01c      	add	sp, #112	; 0x70
  401f8a:	e8bd 40f0 	ldmia.w	sp!, {r4, r5, r6, r7, lr}
  401f8e:	b003      	add	sp, #12
  401f90:	4770      	bx	lr
  401f92:	bf00      	nop
  401f94:	20400008 	.word	0x20400008

00401f98 <_svfprintf_r>:
  401f98:	e92d 4ff0 	stmdb	sp!, {r4, r5, r6, r7, r8, r9, sl, fp, lr}
  401f9c:	b0c3      	sub	sp, #268	; 0x10c
  401f9e:	460c      	mov	r4, r1
  401fa0:	910b      	str	r1, [sp, #44]	; 0x2c
  401fa2:	4692      	mov	sl, r2
  401fa4:	930f      	str	r3, [sp, #60]	; 0x3c
  401fa6:	900c      	str	r0, [sp, #48]	; 0x30
  401fa8:	f003 fdd4 	bl	405b54 <_localeconv_r>
  401fac:	6803      	ldr	r3, [r0, #0]
  401fae:	931a      	str	r3, [sp, #104]	; 0x68
  401fb0:	4618      	mov	r0, r3
  401fb2:	f004 fee5 	bl	406d80 <strlen>
  401fb6:	89a3      	ldrh	r3, [r4, #12]
  401fb8:	9019      	str	r0, [sp, #100]	; 0x64
  401fba:	0619      	lsls	r1, r3, #24
  401fbc:	d503      	bpl.n	401fc6 <_svfprintf_r+0x2e>
  401fbe:	6923      	ldr	r3, [r4, #16]
  401fc0:	2b00      	cmp	r3, #0
  401fc2:	f001 8003 	beq.w	402fcc <_svfprintf_r+0x1034>
  401fc6:	2300      	movs	r3, #0
  401fc8:	f10d 09c8 	add.w	r9, sp, #200	; 0xc8
  401fcc:	9313      	str	r3, [sp, #76]	; 0x4c
  401fce:	9315      	str	r3, [sp, #84]	; 0x54
  401fd0:	9314      	str	r3, [sp, #80]	; 0x50
  401fd2:	9327      	str	r3, [sp, #156]	; 0x9c
  401fd4:	9326      	str	r3, [sp, #152]	; 0x98
  401fd6:	9318      	str	r3, [sp, #96]	; 0x60
  401fd8:	931b      	str	r3, [sp, #108]	; 0x6c
  401fda:	9309      	str	r3, [sp, #36]	; 0x24
  401fdc:	f8cd 9094 	str.w	r9, [sp, #148]	; 0x94
  401fe0:	46c8      	mov	r8, r9
  401fe2:	9316      	str	r3, [sp, #88]	; 0x58
  401fe4:	9317      	str	r3, [sp, #92]	; 0x5c
  401fe6:	f89a 3000 	ldrb.w	r3, [sl]
  401fea:	4654      	mov	r4, sl
  401fec:	b1e3      	cbz	r3, 402028 <_svfprintf_r+0x90>
  401fee:	2b25      	cmp	r3, #37	; 0x25
  401ff0:	d102      	bne.n	401ff8 <_svfprintf_r+0x60>
  401ff2:	e019      	b.n	402028 <_svfprintf_r+0x90>
  401ff4:	2b25      	cmp	r3, #37	; 0x25
  401ff6:	d003      	beq.n	402000 <_svfprintf_r+0x68>
  401ff8:	f814 3f01 	ldrb.w	r3, [r4, #1]!
  401ffc:	2b00      	cmp	r3, #0
  401ffe:	d1f9      	bne.n	401ff4 <_svfprintf_r+0x5c>
  402000:	eba4 050a 	sub.w	r5, r4, sl
  402004:	b185      	cbz	r5, 402028 <_svfprintf_r+0x90>
  402006:	9b26      	ldr	r3, [sp, #152]	; 0x98
  402008:	9a27      	ldr	r2, [sp, #156]	; 0x9c
  40200a:	f8c8 a000 	str.w	sl, [r8]
  40200e:	3301      	adds	r3, #1
  402010:	442a      	add	r2, r5
  402012:	2b07      	cmp	r3, #7
  402014:	f8c8 5004 	str.w	r5, [r8, #4]
  402018:	9227      	str	r2, [sp, #156]	; 0x9c
  40201a:	9326      	str	r3, [sp, #152]	; 0x98
  40201c:	dc7f      	bgt.n	40211e <_svfprintf_r+0x186>
  40201e:	f108 0808 	add.w	r8, r8, #8
  402022:	9b09      	ldr	r3, [sp, #36]	; 0x24
  402024:	442b      	add	r3, r5
  402026:	9309      	str	r3, [sp, #36]	; 0x24
  402028:	7823      	ldrb	r3, [r4, #0]
  40202a:	2b00      	cmp	r3, #0
  40202c:	d07f      	beq.n	40212e <_svfprintf_r+0x196>
  40202e:	2300      	movs	r3, #0
  402030:	461a      	mov	r2, r3
  402032:	f88d 3077 	strb.w	r3, [sp, #119]	; 0x77
  402036:	4619      	mov	r1, r3
  402038:	930d      	str	r3, [sp, #52]	; 0x34
  40203a:	469b      	mov	fp, r3
  40203c:	f04f 30ff 	mov.w	r0, #4294967295
  402040:	7863      	ldrb	r3, [r4, #1]
  402042:	900a      	str	r0, [sp, #40]	; 0x28
  402044:	f104 0a01 	add.w	sl, r4, #1
  402048:	f10a 0a01 	add.w	sl, sl, #1
  40204c:	f1a3 0020 	sub.w	r0, r3, #32
  402050:	2858      	cmp	r0, #88	; 0x58
  402052:	f200 83c1 	bhi.w	4027d8 <_svfprintf_r+0x840>
  402056:	e8df f010 	tbh	[pc, r0, lsl #1]
  40205a:	0238      	.short	0x0238
  40205c:	03bf03bf 	.word	0x03bf03bf
  402060:	03bf0240 	.word	0x03bf0240
  402064:	03bf03bf 	.word	0x03bf03bf
  402068:	03bf03bf 	.word	0x03bf03bf
  40206c:	024503bf 	.word	0x024503bf
  402070:	03bf0203 	.word	0x03bf0203
  402074:	026b005d 	.word	0x026b005d
  402078:	028603bf 	.word	0x028603bf
  40207c:	039d039d 	.word	0x039d039d
  402080:	039d039d 	.word	0x039d039d
  402084:	039d039d 	.word	0x039d039d
  402088:	039d039d 	.word	0x039d039d
  40208c:	03bf039d 	.word	0x03bf039d
  402090:	03bf03bf 	.word	0x03bf03bf
  402094:	03bf03bf 	.word	0x03bf03bf
  402098:	03bf03bf 	.word	0x03bf03bf
  40209c:	03bf03bf 	.word	0x03bf03bf
  4020a0:	033703bf 	.word	0x033703bf
  4020a4:	03bf0357 	.word	0x03bf0357
  4020a8:	03bf0357 	.word	0x03bf0357
  4020ac:	03bf03bf 	.word	0x03bf03bf
  4020b0:	039803bf 	.word	0x039803bf
  4020b4:	03bf03bf 	.word	0x03bf03bf
  4020b8:	03bf03ad 	.word	0x03bf03ad
  4020bc:	03bf03bf 	.word	0x03bf03bf
  4020c0:	03bf03bf 	.word	0x03bf03bf
  4020c4:	03bf0259 	.word	0x03bf0259
  4020c8:	031e03bf 	.word	0x031e03bf
  4020cc:	03bf03bf 	.word	0x03bf03bf
  4020d0:	03bf03bf 	.word	0x03bf03bf
  4020d4:	03bf03bf 	.word	0x03bf03bf
  4020d8:	03bf03bf 	.word	0x03bf03bf
  4020dc:	03bf03bf 	.word	0x03bf03bf
  4020e0:	02db02c6 	.word	0x02db02c6
  4020e4:	03570357 	.word	0x03570357
  4020e8:	028b0357 	.word	0x028b0357
  4020ec:	03bf02db 	.word	0x03bf02db
  4020f0:	029003bf 	.word	0x029003bf
  4020f4:	029d03bf 	.word	0x029d03bf
  4020f8:	02b401cc 	.word	0x02b401cc
  4020fc:	03bf0208 	.word	0x03bf0208
  402100:	03bf01e1 	.word	0x03bf01e1
  402104:	03bf007e 	.word	0x03bf007e
  402108:	020d03bf 	.word	0x020d03bf
  40210c:	980d      	ldr	r0, [sp, #52]	; 0x34
  40210e:	930f      	str	r3, [sp, #60]	; 0x3c
  402110:	4240      	negs	r0, r0
  402112:	900d      	str	r0, [sp, #52]	; 0x34
  402114:	f04b 0b04 	orr.w	fp, fp, #4
  402118:	f89a 3000 	ldrb.w	r3, [sl]
  40211c:	e794      	b.n	402048 <_svfprintf_r+0xb0>
  40211e:	aa25      	add	r2, sp, #148	; 0x94
  402120:	990b      	ldr	r1, [sp, #44]	; 0x2c
  402122:	980c      	ldr	r0, [sp, #48]	; 0x30
  402124:	f004 fe9a 	bl	406e5c <__ssprint_r>
  402128:	b940      	cbnz	r0, 40213c <_svfprintf_r+0x1a4>
  40212a:	46c8      	mov	r8, r9
  40212c:	e779      	b.n	402022 <_svfprintf_r+0x8a>
  40212e:	9b27      	ldr	r3, [sp, #156]	; 0x9c
  402130:	b123      	cbz	r3, 40213c <_svfprintf_r+0x1a4>
  402132:	980c      	ldr	r0, [sp, #48]	; 0x30
  402134:	990b      	ldr	r1, [sp, #44]	; 0x2c
  402136:	aa25      	add	r2, sp, #148	; 0x94
  402138:	f004 fe90 	bl	406e5c <__ssprint_r>
  40213c:	9b0b      	ldr	r3, [sp, #44]	; 0x2c
  40213e:	899b      	ldrh	r3, [r3, #12]
  402140:	f013 0f40 	tst.w	r3, #64	; 0x40
  402144:	9b09      	ldr	r3, [sp, #36]	; 0x24
  402146:	bf18      	it	ne
  402148:	f04f 33ff 	movne.w	r3, #4294967295
  40214c:	9309      	str	r3, [sp, #36]	; 0x24
  40214e:	9809      	ldr	r0, [sp, #36]	; 0x24
  402150:	b043      	add	sp, #268	; 0x10c
  402152:	e8bd 8ff0 	ldmia.w	sp!, {r4, r5, r6, r7, r8, r9, sl, fp, pc}
  402156:	f01b 0f20 	tst.w	fp, #32
  40215a:	9311      	str	r3, [sp, #68]	; 0x44
  40215c:	f040 81dd 	bne.w	40251a <_svfprintf_r+0x582>
  402160:	9a0f      	ldr	r2, [sp, #60]	; 0x3c
  402162:	f01b 0f10 	tst.w	fp, #16
  402166:	4613      	mov	r3, r2
  402168:	f040 856e 	bne.w	402c48 <_svfprintf_r+0xcb0>
  40216c:	f01b 0f40 	tst.w	fp, #64	; 0x40
  402170:	f000 856a 	beq.w	402c48 <_svfprintf_r+0xcb0>
  402174:	8814      	ldrh	r4, [r2, #0]
  402176:	3204      	adds	r2, #4
  402178:	2500      	movs	r5, #0
  40217a:	2301      	movs	r3, #1
  40217c:	920f      	str	r2, [sp, #60]	; 0x3c
  40217e:	2700      	movs	r7, #0
  402180:	f88d 7077 	strb.w	r7, [sp, #119]	; 0x77
  402184:	990a      	ldr	r1, [sp, #40]	; 0x28
  402186:	1c4a      	adds	r2, r1, #1
  402188:	f000 8265 	beq.w	402656 <_svfprintf_r+0x6be>
  40218c:	f02b 0280 	bic.w	r2, fp, #128	; 0x80
  402190:	9207      	str	r2, [sp, #28]
  402192:	ea54 0205 	orrs.w	r2, r4, r5
  402196:	f040 8264 	bne.w	402662 <_svfprintf_r+0x6ca>
  40219a:	2900      	cmp	r1, #0
  40219c:	f040 843c 	bne.w	402a18 <_svfprintf_r+0xa80>
  4021a0:	2b00      	cmp	r3, #0
  4021a2:	f040 84d7 	bne.w	402b54 <_svfprintf_r+0xbbc>
  4021a6:	f01b 0301 	ands.w	r3, fp, #1
  4021aa:	930e      	str	r3, [sp, #56]	; 0x38
  4021ac:	f000 8604 	beq.w	402db8 <_svfprintf_r+0xe20>
  4021b0:	ae42      	add	r6, sp, #264	; 0x108
  4021b2:	2330      	movs	r3, #48	; 0x30
  4021b4:	f806 3d41 	strb.w	r3, [r6, #-65]!
  4021b8:	9b0a      	ldr	r3, [sp, #40]	; 0x28
  4021ba:	9a0e      	ldr	r2, [sp, #56]	; 0x38
  4021bc:	4293      	cmp	r3, r2
  4021be:	bfb8      	it	lt
  4021c0:	4613      	movlt	r3, r2
  4021c2:	9308      	str	r3, [sp, #32]
  4021c4:	2300      	movs	r3, #0
  4021c6:	9312      	str	r3, [sp, #72]	; 0x48
  4021c8:	b117      	cbz	r7, 4021d0 <_svfprintf_r+0x238>
  4021ca:	9b08      	ldr	r3, [sp, #32]
  4021cc:	3301      	adds	r3, #1
  4021ce:	9308      	str	r3, [sp, #32]
  4021d0:	9b07      	ldr	r3, [sp, #28]
  4021d2:	f013 0302 	ands.w	r3, r3, #2
  4021d6:	9310      	str	r3, [sp, #64]	; 0x40
  4021d8:	d002      	beq.n	4021e0 <_svfprintf_r+0x248>
  4021da:	9b08      	ldr	r3, [sp, #32]
  4021dc:	3302      	adds	r3, #2
  4021de:	9308      	str	r3, [sp, #32]
  4021e0:	9b07      	ldr	r3, [sp, #28]
  4021e2:	f013 0584 	ands.w	r5, r3, #132	; 0x84
  4021e6:	f040 830e 	bne.w	402806 <_svfprintf_r+0x86e>
  4021ea:	9b0d      	ldr	r3, [sp, #52]	; 0x34
  4021ec:	9a08      	ldr	r2, [sp, #32]
  4021ee:	eba3 0b02 	sub.w	fp, r3, r2
  4021f2:	f1bb 0f00 	cmp.w	fp, #0
  4021f6:	f340 8306 	ble.w	402806 <_svfprintf_r+0x86e>
  4021fa:	f1bb 0f10 	cmp.w	fp, #16
  4021fe:	9c27      	ldr	r4, [sp, #156]	; 0x9c
  402200:	9a26      	ldr	r2, [sp, #152]	; 0x98
  402202:	dd29      	ble.n	402258 <_svfprintf_r+0x2c0>
  402204:	4643      	mov	r3, r8
  402206:	4621      	mov	r1, r4
  402208:	46a8      	mov	r8, r5
  40220a:	2710      	movs	r7, #16
  40220c:	9c0c      	ldr	r4, [sp, #48]	; 0x30
  40220e:	9d0b      	ldr	r5, [sp, #44]	; 0x2c
  402210:	e006      	b.n	402220 <_svfprintf_r+0x288>
  402212:	f1ab 0b10 	sub.w	fp, fp, #16
  402216:	f1bb 0f10 	cmp.w	fp, #16
  40221a:	f103 0308 	add.w	r3, r3, #8
  40221e:	dd18      	ble.n	402252 <_svfprintf_r+0x2ba>
  402220:	3201      	adds	r2, #1
  402222:	48b7      	ldr	r0, [pc, #732]	; (402500 <_svfprintf_r+0x568>)
  402224:	9226      	str	r2, [sp, #152]	; 0x98
  402226:	3110      	adds	r1, #16
  402228:	2a07      	cmp	r2, #7
  40222a:	9127      	str	r1, [sp, #156]	; 0x9c
  40222c:	e883 0081 	stmia.w	r3, {r0, r7}
  402230:	ddef      	ble.n	402212 <_svfprintf_r+0x27a>
  402232:	aa25      	add	r2, sp, #148	; 0x94
  402234:	4629      	mov	r1, r5
  402236:	4620      	mov	r0, r4
  402238:	f004 fe10 	bl	406e5c <__ssprint_r>
  40223c:	2800      	cmp	r0, #0
  40223e:	f47f af7d 	bne.w	40213c <_svfprintf_r+0x1a4>
  402242:	f1ab 0b10 	sub.w	fp, fp, #16
  402246:	f1bb 0f10 	cmp.w	fp, #16
  40224a:	9927      	ldr	r1, [sp, #156]	; 0x9c
  40224c:	9a26      	ldr	r2, [sp, #152]	; 0x98
  40224e:	464b      	mov	r3, r9
  402250:	dce6      	bgt.n	402220 <_svfprintf_r+0x288>
  402252:	4645      	mov	r5, r8
  402254:	460c      	mov	r4, r1
  402256:	4698      	mov	r8, r3
  402258:	3201      	adds	r2, #1
  40225a:	4ba9      	ldr	r3, [pc, #676]	; (402500 <_svfprintf_r+0x568>)
  40225c:	9226      	str	r2, [sp, #152]	; 0x98
  40225e:	445c      	add	r4, fp
  402260:	2a07      	cmp	r2, #7
  402262:	9427      	str	r4, [sp, #156]	; 0x9c
  402264:	e888 0808 	stmia.w	r8, {r3, fp}
  402268:	f300 8498 	bgt.w	402b9c <_svfprintf_r+0xc04>
  40226c:	f89d 7077 	ldrb.w	r7, [sp, #119]	; 0x77
  402270:	f108 0808 	add.w	r8, r8, #8
  402274:	b177      	cbz	r7, 402294 <_svfprintf_r+0x2fc>
  402276:	9b26      	ldr	r3, [sp, #152]	; 0x98
  402278:	3301      	adds	r3, #1
  40227a:	3401      	adds	r4, #1
  40227c:	f10d 0177 	add.w	r1, sp, #119	; 0x77
  402280:	2201      	movs	r2, #1
  402282:	2b07      	cmp	r3, #7
  402284:	9427      	str	r4, [sp, #156]	; 0x9c
  402286:	9326      	str	r3, [sp, #152]	; 0x98
  402288:	e888 0006 	stmia.w	r8, {r1, r2}
  40228c:	f300 83db 	bgt.w	402a46 <_svfprintf_r+0xaae>
  402290:	f108 0808 	add.w	r8, r8, #8
  402294:	9b10      	ldr	r3, [sp, #64]	; 0x40
  402296:	b16b      	cbz	r3, 4022b4 <_svfprintf_r+0x31c>
  402298:	9b26      	ldr	r3, [sp, #152]	; 0x98
  40229a:	3301      	adds	r3, #1
  40229c:	3402      	adds	r4, #2
  40229e:	a91e      	add	r1, sp, #120	; 0x78
  4022a0:	2202      	movs	r2, #2
  4022a2:	2b07      	cmp	r3, #7
  4022a4:	9427      	str	r4, [sp, #156]	; 0x9c
  4022a6:	9326      	str	r3, [sp, #152]	; 0x98
  4022a8:	e888 0006 	stmia.w	r8, {r1, r2}
  4022ac:	f300 83d6 	bgt.w	402a5c <_svfprintf_r+0xac4>
  4022b0:	f108 0808 	add.w	r8, r8, #8
  4022b4:	2d80      	cmp	r5, #128	; 0x80
  4022b6:	f000 8315 	beq.w	4028e4 <_svfprintf_r+0x94c>
  4022ba:	9b0a      	ldr	r3, [sp, #40]	; 0x28
  4022bc:	9a0e      	ldr	r2, [sp, #56]	; 0x38
  4022be:	1a9f      	subs	r7, r3, r2
  4022c0:	2f00      	cmp	r7, #0
  4022c2:	dd36      	ble.n	402332 <_svfprintf_r+0x39a>
  4022c4:	2f10      	cmp	r7, #16
  4022c6:	9b26      	ldr	r3, [sp, #152]	; 0x98
  4022c8:	4d8e      	ldr	r5, [pc, #568]	; (402504 <_svfprintf_r+0x56c>)
  4022ca:	dd27      	ble.n	40231c <_svfprintf_r+0x384>
  4022cc:	4642      	mov	r2, r8
  4022ce:	4621      	mov	r1, r4
  4022d0:	46b0      	mov	r8, r6
  4022d2:	f04f 0b10 	mov.w	fp, #16
  4022d6:	462e      	mov	r6, r5
  4022d8:	9c0c      	ldr	r4, [sp, #48]	; 0x30
  4022da:	9d0b      	ldr	r5, [sp, #44]	; 0x2c
  4022dc:	e004      	b.n	4022e8 <_svfprintf_r+0x350>
  4022de:	3f10      	subs	r7, #16
  4022e0:	2f10      	cmp	r7, #16
  4022e2:	f102 0208 	add.w	r2, r2, #8
  4022e6:	dd15      	ble.n	402314 <_svfprintf_r+0x37c>
  4022e8:	3301      	adds	r3, #1
  4022ea:	3110      	adds	r1, #16
  4022ec:	2b07      	cmp	r3, #7
  4022ee:	9127      	str	r1, [sp, #156]	; 0x9c
  4022f0:	9326      	str	r3, [sp, #152]	; 0x98
  4022f2:	e882 0840 	stmia.w	r2, {r6, fp}
  4022f6:	ddf2      	ble.n	4022de <_svfprintf_r+0x346>
  4022f8:	aa25      	add	r2, sp, #148	; 0x94
  4022fa:	4629      	mov	r1, r5
  4022fc:	4620      	mov	r0, r4
  4022fe:	f004 fdad 	bl	406e5c <__ssprint_r>
  402302:	2800      	cmp	r0, #0
  402304:	f47f af1a 	bne.w	40213c <_svfprintf_r+0x1a4>
  402308:	3f10      	subs	r7, #16
  40230a:	2f10      	cmp	r7, #16
  40230c:	9927      	ldr	r1, [sp, #156]	; 0x9c
  40230e:	9b26      	ldr	r3, [sp, #152]	; 0x98
  402310:	464a      	mov	r2, r9
  402312:	dce9      	bgt.n	4022e8 <_svfprintf_r+0x350>
  402314:	4635      	mov	r5, r6
  402316:	460c      	mov	r4, r1
  402318:	4646      	mov	r6, r8
  40231a:	4690      	mov	r8, r2
  40231c:	3301      	adds	r3, #1
  40231e:	443c      	add	r4, r7
  402320:	2b07      	cmp	r3, #7
  402322:	9427      	str	r4, [sp, #156]	; 0x9c
  402324:	9326      	str	r3, [sp, #152]	; 0x98
  402326:	e888 00a0 	stmia.w	r8, {r5, r7}
  40232a:	f300 8381 	bgt.w	402a30 <_svfprintf_r+0xa98>
  40232e:	f108 0808 	add.w	r8, r8, #8
  402332:	9b07      	ldr	r3, [sp, #28]
  402334:	05df      	lsls	r7, r3, #23
  402336:	f100 8268 	bmi.w	40280a <_svfprintf_r+0x872>
  40233a:	9b26      	ldr	r3, [sp, #152]	; 0x98
  40233c:	990e      	ldr	r1, [sp, #56]	; 0x38
  40233e:	f8c8 6000 	str.w	r6, [r8]
  402342:	3301      	adds	r3, #1
  402344:	440c      	add	r4, r1
  402346:	2b07      	cmp	r3, #7
  402348:	9427      	str	r4, [sp, #156]	; 0x9c
  40234a:	f8c8 1004 	str.w	r1, [r8, #4]
  40234e:	9326      	str	r3, [sp, #152]	; 0x98
  402350:	f300 834d 	bgt.w	4029ee <_svfprintf_r+0xa56>
  402354:	f108 0808 	add.w	r8, r8, #8
  402358:	9b07      	ldr	r3, [sp, #28]
  40235a:	075b      	lsls	r3, r3, #29
  40235c:	d53a      	bpl.n	4023d4 <_svfprintf_r+0x43c>
  40235e:	9b0d      	ldr	r3, [sp, #52]	; 0x34
  402360:	9a08      	ldr	r2, [sp, #32]
  402362:	1a9d      	subs	r5, r3, r2
  402364:	2d00      	cmp	r5, #0
  402366:	dd35      	ble.n	4023d4 <_svfprintf_r+0x43c>
  402368:	2d10      	cmp	r5, #16
  40236a:	9b26      	ldr	r3, [sp, #152]	; 0x98
  40236c:	dd20      	ble.n	4023b0 <_svfprintf_r+0x418>
  40236e:	2610      	movs	r6, #16
  402370:	9f0c      	ldr	r7, [sp, #48]	; 0x30
  402372:	f8dd b02c 	ldr.w	fp, [sp, #44]	; 0x2c
  402376:	e004      	b.n	402382 <_svfprintf_r+0x3ea>
  402378:	3d10      	subs	r5, #16
  40237a:	2d10      	cmp	r5, #16
  40237c:	f108 0808 	add.w	r8, r8, #8
  402380:	dd16      	ble.n	4023b0 <_svfprintf_r+0x418>
  402382:	3301      	adds	r3, #1
  402384:	4a5e      	ldr	r2, [pc, #376]	; (402500 <_svfprintf_r+0x568>)
  402386:	9326      	str	r3, [sp, #152]	; 0x98
  402388:	3410      	adds	r4, #16
  40238a:	2b07      	cmp	r3, #7
  40238c:	9427      	str	r4, [sp, #156]	; 0x9c
  40238e:	e888 0044 	stmia.w	r8, {r2, r6}
  402392:	ddf1      	ble.n	402378 <_svfprintf_r+0x3e0>
  402394:	aa25      	add	r2, sp, #148	; 0x94
  402396:	4659      	mov	r1, fp
  402398:	4638      	mov	r0, r7
  40239a:	f004 fd5f 	bl	406e5c <__ssprint_r>
  40239e:	2800      	cmp	r0, #0
  4023a0:	f47f aecc 	bne.w	40213c <_svfprintf_r+0x1a4>
  4023a4:	3d10      	subs	r5, #16
  4023a6:	2d10      	cmp	r5, #16
  4023a8:	9c27      	ldr	r4, [sp, #156]	; 0x9c
  4023aa:	9b26      	ldr	r3, [sp, #152]	; 0x98
  4023ac:	46c8      	mov	r8, r9
  4023ae:	dce8      	bgt.n	402382 <_svfprintf_r+0x3ea>
  4023b0:	3301      	adds	r3, #1
  4023b2:	4a53      	ldr	r2, [pc, #332]	; (402500 <_svfprintf_r+0x568>)
  4023b4:	9326      	str	r3, [sp, #152]	; 0x98
  4023b6:	442c      	add	r4, r5
  4023b8:	2b07      	cmp	r3, #7
  4023ba:	9427      	str	r4, [sp, #156]	; 0x9c
  4023bc:	e888 0024 	stmia.w	r8, {r2, r5}
  4023c0:	dd08      	ble.n	4023d4 <_svfprintf_r+0x43c>
  4023c2:	aa25      	add	r2, sp, #148	; 0x94
  4023c4:	990b      	ldr	r1, [sp, #44]	; 0x2c
  4023c6:	980c      	ldr	r0, [sp, #48]	; 0x30
  4023c8:	f004 fd48 	bl	406e5c <__ssprint_r>
  4023cc:	2800      	cmp	r0, #0
  4023ce:	f47f aeb5 	bne.w	40213c <_svfprintf_r+0x1a4>
  4023d2:	9c27      	ldr	r4, [sp, #156]	; 0x9c
  4023d4:	9b09      	ldr	r3, [sp, #36]	; 0x24
  4023d6:	9a0d      	ldr	r2, [sp, #52]	; 0x34
  4023d8:	9908      	ldr	r1, [sp, #32]
  4023da:	428a      	cmp	r2, r1
  4023dc:	bfac      	ite	ge
  4023de:	189b      	addge	r3, r3, r2
  4023e0:	185b      	addlt	r3, r3, r1
  4023e2:	9309      	str	r3, [sp, #36]	; 0x24
  4023e4:	2c00      	cmp	r4, #0
  4023e6:	f040 830d 	bne.w	402a04 <_svfprintf_r+0xa6c>
  4023ea:	2300      	movs	r3, #0
  4023ec:	9326      	str	r3, [sp, #152]	; 0x98
  4023ee:	46c8      	mov	r8, r9
  4023f0:	e5f9      	b.n	401fe6 <_svfprintf_r+0x4e>
  4023f2:	9311      	str	r3, [sp, #68]	; 0x44
  4023f4:	f01b 0320 	ands.w	r3, fp, #32
  4023f8:	f040 81e3 	bne.w	4027c2 <_svfprintf_r+0x82a>
  4023fc:	f01b 0210 	ands.w	r2, fp, #16
  402400:	f040 842e 	bne.w	402c60 <_svfprintf_r+0xcc8>
  402404:	f01b 0340 	ands.w	r3, fp, #64	; 0x40
  402408:	f000 842a 	beq.w	402c60 <_svfprintf_r+0xcc8>
  40240c:	990f      	ldr	r1, [sp, #60]	; 0x3c
  40240e:	4613      	mov	r3, r2
  402410:	460a      	mov	r2, r1
  402412:	3204      	adds	r2, #4
  402414:	880c      	ldrh	r4, [r1, #0]
  402416:	920f      	str	r2, [sp, #60]	; 0x3c
  402418:	2500      	movs	r5, #0
  40241a:	e6b0      	b.n	40217e <_svfprintf_r+0x1e6>
  40241c:	9a0f      	ldr	r2, [sp, #60]	; 0x3c
  40241e:	9311      	str	r3, [sp, #68]	; 0x44
  402420:	6816      	ldr	r6, [r2, #0]
  402422:	2400      	movs	r4, #0
  402424:	f88d 4077 	strb.w	r4, [sp, #119]	; 0x77
  402428:	1d15      	adds	r5, r2, #4
  40242a:	2e00      	cmp	r6, #0
  40242c:	f000 86a7 	beq.w	40317e <_svfprintf_r+0x11e6>
  402430:	9a0a      	ldr	r2, [sp, #40]	; 0x28
  402432:	1c53      	adds	r3, r2, #1
  402434:	f000 8609 	beq.w	40304a <_svfprintf_r+0x10b2>
  402438:	4621      	mov	r1, r4
  40243a:	4630      	mov	r0, r6
  40243c:	f003 fee8 	bl	406210 <memchr>
  402440:	2800      	cmp	r0, #0
  402442:	f000 86e1 	beq.w	403208 <_svfprintf_r+0x1270>
  402446:	1b83      	subs	r3, r0, r6
  402448:	930e      	str	r3, [sp, #56]	; 0x38
  40244a:	940a      	str	r4, [sp, #40]	; 0x28
  40244c:	950f      	str	r5, [sp, #60]	; 0x3c
  40244e:	f8cd b01c 	str.w	fp, [sp, #28]
  402452:	ea23 73e3 	bic.w	r3, r3, r3, asr #31
  402456:	9308      	str	r3, [sp, #32]
  402458:	9412      	str	r4, [sp, #72]	; 0x48
  40245a:	f89d 7077 	ldrb.w	r7, [sp, #119]	; 0x77
  40245e:	e6b3      	b.n	4021c8 <_svfprintf_r+0x230>
  402460:	f89a 3000 	ldrb.w	r3, [sl]
  402464:	2201      	movs	r2, #1
  402466:	212b      	movs	r1, #43	; 0x2b
  402468:	e5ee      	b.n	402048 <_svfprintf_r+0xb0>
  40246a:	f04b 0b20 	orr.w	fp, fp, #32
  40246e:	f89a 3000 	ldrb.w	r3, [sl]
  402472:	e5e9      	b.n	402048 <_svfprintf_r+0xb0>
  402474:	9311      	str	r3, [sp, #68]	; 0x44
  402476:	2a00      	cmp	r2, #0
  402478:	f040 8795 	bne.w	4033a6 <_svfprintf_r+0x140e>
  40247c:	4b22      	ldr	r3, [pc, #136]	; (402508 <_svfprintf_r+0x570>)
  40247e:	9318      	str	r3, [sp, #96]	; 0x60
  402480:	f01b 0f20 	tst.w	fp, #32
  402484:	f040 8111 	bne.w	4026aa <_svfprintf_r+0x712>
  402488:	9a0f      	ldr	r2, [sp, #60]	; 0x3c
  40248a:	f01b 0f10 	tst.w	fp, #16
  40248e:	4613      	mov	r3, r2
  402490:	f040 83e1 	bne.w	402c56 <_svfprintf_r+0xcbe>
  402494:	f01b 0f40 	tst.w	fp, #64	; 0x40
  402498:	f000 83dd 	beq.w	402c56 <_svfprintf_r+0xcbe>
  40249c:	3304      	adds	r3, #4
  40249e:	8814      	ldrh	r4, [r2, #0]
  4024a0:	930f      	str	r3, [sp, #60]	; 0x3c
  4024a2:	2500      	movs	r5, #0
  4024a4:	f01b 0f01 	tst.w	fp, #1
  4024a8:	f000 810c 	beq.w	4026c4 <_svfprintf_r+0x72c>
  4024ac:	ea54 0305 	orrs.w	r3, r4, r5
  4024b0:	f000 8108 	beq.w	4026c4 <_svfprintf_r+0x72c>
  4024b4:	2330      	movs	r3, #48	; 0x30
  4024b6:	f89d 2044 	ldrb.w	r2, [sp, #68]	; 0x44
  4024ba:	f88d 3078 	strb.w	r3, [sp, #120]	; 0x78
  4024be:	f88d 2079 	strb.w	r2, [sp, #121]	; 0x79
  4024c2:	f04b 0b02 	orr.w	fp, fp, #2
  4024c6:	2302      	movs	r3, #2
  4024c8:	e659      	b.n	40217e <_svfprintf_r+0x1e6>
  4024ca:	f89a 3000 	ldrb.w	r3, [sl]
  4024ce:	2900      	cmp	r1, #0
  4024d0:	f47f adba 	bne.w	402048 <_svfprintf_r+0xb0>
  4024d4:	2201      	movs	r2, #1
  4024d6:	2120      	movs	r1, #32
  4024d8:	e5b6      	b.n	402048 <_svfprintf_r+0xb0>
  4024da:	f04b 0b01 	orr.w	fp, fp, #1
  4024de:	f89a 3000 	ldrb.w	r3, [sl]
  4024e2:	e5b1      	b.n	402048 <_svfprintf_r+0xb0>
  4024e4:	9c0f      	ldr	r4, [sp, #60]	; 0x3c
  4024e6:	6823      	ldr	r3, [r4, #0]
  4024e8:	930d      	str	r3, [sp, #52]	; 0x34
  4024ea:	4618      	mov	r0, r3
  4024ec:	2800      	cmp	r0, #0
  4024ee:	4623      	mov	r3, r4
  4024f0:	f103 0304 	add.w	r3, r3, #4
  4024f4:	f6ff ae0a 	blt.w	40210c <_svfprintf_r+0x174>
  4024f8:	930f      	str	r3, [sp, #60]	; 0x3c
  4024fa:	f89a 3000 	ldrb.w	r3, [sl]
  4024fe:	e5a3      	b.n	402048 <_svfprintf_r+0xb0>
  402500:	00410ab8 	.word	0x00410ab8
  402504:	00410ac8 	.word	0x00410ac8
  402508:	00410a98 	.word	0x00410a98
  40250c:	f04b 0b10 	orr.w	fp, fp, #16
  402510:	f01b 0f20 	tst.w	fp, #32
  402514:	9311      	str	r3, [sp, #68]	; 0x44
  402516:	f43f ae23 	beq.w	402160 <_svfprintf_r+0x1c8>
  40251a:	9d0f      	ldr	r5, [sp, #60]	; 0x3c
  40251c:	3507      	adds	r5, #7
  40251e:	f025 0307 	bic.w	r3, r5, #7
  402522:	f103 0208 	add.w	r2, r3, #8
  402526:	e9d3 4500 	ldrd	r4, r5, [r3]
  40252a:	920f      	str	r2, [sp, #60]	; 0x3c
  40252c:	2301      	movs	r3, #1
  40252e:	e626      	b.n	40217e <_svfprintf_r+0x1e6>
  402530:	f89a 3000 	ldrb.w	r3, [sl]
  402534:	2b2a      	cmp	r3, #42	; 0x2a
  402536:	f10a 0401 	add.w	r4, sl, #1
  40253a:	f000 8727 	beq.w	40338c <_svfprintf_r+0x13f4>
  40253e:	f1a3 0030 	sub.w	r0, r3, #48	; 0x30
  402542:	2809      	cmp	r0, #9
  402544:	46a2      	mov	sl, r4
  402546:	f200 86ad 	bhi.w	4032a4 <_svfprintf_r+0x130c>
  40254a:	2300      	movs	r3, #0
  40254c:	461c      	mov	r4, r3
  40254e:	f81a 3b01 	ldrb.w	r3, [sl], #1
  402552:	eb04 0484 	add.w	r4, r4, r4, lsl #2
  402556:	eb00 0444 	add.w	r4, r0, r4, lsl #1
  40255a:	f1a3 0030 	sub.w	r0, r3, #48	; 0x30
  40255e:	2809      	cmp	r0, #9
  402560:	d9f5      	bls.n	40254e <_svfprintf_r+0x5b6>
  402562:	940a      	str	r4, [sp, #40]	; 0x28
  402564:	e572      	b.n	40204c <_svfprintf_r+0xb4>
  402566:	f04b 0b80 	orr.w	fp, fp, #128	; 0x80
  40256a:	f89a 3000 	ldrb.w	r3, [sl]
  40256e:	e56b      	b.n	402048 <_svfprintf_r+0xb0>
  402570:	f04b 0b40 	orr.w	fp, fp, #64	; 0x40
  402574:	f89a 3000 	ldrb.w	r3, [sl]
  402578:	e566      	b.n	402048 <_svfprintf_r+0xb0>
  40257a:	f89a 3000 	ldrb.w	r3, [sl]
  40257e:	2b6c      	cmp	r3, #108	; 0x6c
  402580:	bf03      	ittte	eq
  402582:	f89a 3001 	ldrbeq.w	r3, [sl, #1]
  402586:	f04b 0b20 	orreq.w	fp, fp, #32
  40258a:	f10a 0a01 	addeq.w	sl, sl, #1
  40258e:	f04b 0b10 	orrne.w	fp, fp, #16
  402592:	e559      	b.n	402048 <_svfprintf_r+0xb0>
  402594:	2a00      	cmp	r2, #0
  402596:	f040 8711 	bne.w	4033bc <_svfprintf_r+0x1424>
  40259a:	f01b 0f20 	tst.w	fp, #32
  40259e:	f040 84f9 	bne.w	402f94 <_svfprintf_r+0xffc>
  4025a2:	f01b 0f10 	tst.w	fp, #16
  4025a6:	f040 84ac 	bne.w	402f02 <_svfprintf_r+0xf6a>
  4025aa:	f01b 0f40 	tst.w	fp, #64	; 0x40
  4025ae:	f000 84a8 	beq.w	402f02 <_svfprintf_r+0xf6a>
  4025b2:	9a0f      	ldr	r2, [sp, #60]	; 0x3c
  4025b4:	6813      	ldr	r3, [r2, #0]
  4025b6:	3204      	adds	r2, #4
  4025b8:	920f      	str	r2, [sp, #60]	; 0x3c
  4025ba:	f8bd 2024 	ldrh.w	r2, [sp, #36]	; 0x24
  4025be:	801a      	strh	r2, [r3, #0]
  4025c0:	e511      	b.n	401fe6 <_svfprintf_r+0x4e>
  4025c2:	990f      	ldr	r1, [sp, #60]	; 0x3c
  4025c4:	4bb3      	ldr	r3, [pc, #716]	; (402894 <_svfprintf_r+0x8fc>)
  4025c6:	680c      	ldr	r4, [r1, #0]
  4025c8:	9318      	str	r3, [sp, #96]	; 0x60
  4025ca:	2230      	movs	r2, #48	; 0x30
  4025cc:	2378      	movs	r3, #120	; 0x78
  4025ce:	3104      	adds	r1, #4
  4025d0:	f88d 3079 	strb.w	r3, [sp, #121]	; 0x79
  4025d4:	9311      	str	r3, [sp, #68]	; 0x44
  4025d6:	f04b 0b02 	orr.w	fp, fp, #2
  4025da:	910f      	str	r1, [sp, #60]	; 0x3c
  4025dc:	2500      	movs	r5, #0
  4025de:	f88d 2078 	strb.w	r2, [sp, #120]	; 0x78
  4025e2:	2302      	movs	r3, #2
  4025e4:	e5cb      	b.n	40217e <_svfprintf_r+0x1e6>
  4025e6:	990f      	ldr	r1, [sp, #60]	; 0x3c
  4025e8:	9311      	str	r3, [sp, #68]	; 0x44
  4025ea:	680a      	ldr	r2, [r1, #0]
  4025ec:	f88d 20a0 	strb.w	r2, [sp, #160]	; 0xa0
  4025f0:	2300      	movs	r3, #0
  4025f2:	460a      	mov	r2, r1
  4025f4:	461f      	mov	r7, r3
  4025f6:	f88d 3077 	strb.w	r3, [sp, #119]	; 0x77
  4025fa:	3204      	adds	r2, #4
  4025fc:	2301      	movs	r3, #1
  4025fe:	9308      	str	r3, [sp, #32]
  402600:	f8cd b01c 	str.w	fp, [sp, #28]
  402604:	970a      	str	r7, [sp, #40]	; 0x28
  402606:	9712      	str	r7, [sp, #72]	; 0x48
  402608:	920f      	str	r2, [sp, #60]	; 0x3c
  40260a:	930e      	str	r3, [sp, #56]	; 0x38
  40260c:	ae28      	add	r6, sp, #160	; 0xa0
  40260e:	e5df      	b.n	4021d0 <_svfprintf_r+0x238>
  402610:	9311      	str	r3, [sp, #68]	; 0x44
  402612:	2a00      	cmp	r2, #0
  402614:	f040 86ea 	bne.w	4033ec <_svfprintf_r+0x1454>
  402618:	f01b 0f20 	tst.w	fp, #32
  40261c:	d15d      	bne.n	4026da <_svfprintf_r+0x742>
  40261e:	f01b 0f10 	tst.w	fp, #16
  402622:	f040 8308 	bne.w	402c36 <_svfprintf_r+0xc9e>
  402626:	f01b 0f40 	tst.w	fp, #64	; 0x40
  40262a:	f000 8304 	beq.w	402c36 <_svfprintf_r+0xc9e>
  40262e:	990f      	ldr	r1, [sp, #60]	; 0x3c
  402630:	f9b1 4000 	ldrsh.w	r4, [r1]
  402634:	3104      	adds	r1, #4
  402636:	17e5      	asrs	r5, r4, #31
  402638:	4622      	mov	r2, r4
  40263a:	462b      	mov	r3, r5
  40263c:	910f      	str	r1, [sp, #60]	; 0x3c
  40263e:	2a00      	cmp	r2, #0
  402640:	f173 0300 	sbcs.w	r3, r3, #0
  402644:	db58      	blt.n	4026f8 <_svfprintf_r+0x760>
  402646:	990a      	ldr	r1, [sp, #40]	; 0x28
  402648:	f89d 7077 	ldrb.w	r7, [sp, #119]	; 0x77
  40264c:	1c4a      	adds	r2, r1, #1
  40264e:	f04f 0301 	mov.w	r3, #1
  402652:	f47f ad9b 	bne.w	40218c <_svfprintf_r+0x1f4>
  402656:	ea54 0205 	orrs.w	r2, r4, r5
  40265a:	f000 81df 	beq.w	402a1c <_svfprintf_r+0xa84>
  40265e:	f8cd b01c 	str.w	fp, [sp, #28]
  402662:	2b01      	cmp	r3, #1
  402664:	f000 827b 	beq.w	402b5e <_svfprintf_r+0xbc6>
  402668:	2b02      	cmp	r3, #2
  40266a:	f040 8206 	bne.w	402a7a <_svfprintf_r+0xae2>
  40266e:	9818      	ldr	r0, [sp, #96]	; 0x60
  402670:	464e      	mov	r6, r9
  402672:	0923      	lsrs	r3, r4, #4
  402674:	f004 010f 	and.w	r1, r4, #15
  402678:	ea43 7305 	orr.w	r3, r3, r5, lsl #28
  40267c:	092a      	lsrs	r2, r5, #4
  40267e:	461c      	mov	r4, r3
  402680:	4615      	mov	r5, r2
  402682:	5c43      	ldrb	r3, [r0, r1]
  402684:	f806 3d01 	strb.w	r3, [r6, #-1]!
  402688:	ea54 0305 	orrs.w	r3, r4, r5
  40268c:	d1f1      	bne.n	402672 <_svfprintf_r+0x6da>
  40268e:	eba9 0306 	sub.w	r3, r9, r6
  402692:	930e      	str	r3, [sp, #56]	; 0x38
  402694:	e590      	b.n	4021b8 <_svfprintf_r+0x220>
  402696:	9311      	str	r3, [sp, #68]	; 0x44
  402698:	2a00      	cmp	r2, #0
  40269a:	f040 86a3 	bne.w	4033e4 <_svfprintf_r+0x144c>
  40269e:	4b7e      	ldr	r3, [pc, #504]	; (402898 <_svfprintf_r+0x900>)
  4026a0:	9318      	str	r3, [sp, #96]	; 0x60
  4026a2:	f01b 0f20 	tst.w	fp, #32
  4026a6:	f43f aeef 	beq.w	402488 <_svfprintf_r+0x4f0>
  4026aa:	9d0f      	ldr	r5, [sp, #60]	; 0x3c
  4026ac:	3507      	adds	r5, #7
  4026ae:	f025 0307 	bic.w	r3, r5, #7
  4026b2:	f103 0208 	add.w	r2, r3, #8
  4026b6:	f01b 0f01 	tst.w	fp, #1
  4026ba:	920f      	str	r2, [sp, #60]	; 0x3c
  4026bc:	e9d3 4500 	ldrd	r4, r5, [r3]
  4026c0:	f47f aef4 	bne.w	4024ac <_svfprintf_r+0x514>
  4026c4:	2302      	movs	r3, #2
  4026c6:	e55a      	b.n	40217e <_svfprintf_r+0x1e6>
  4026c8:	9311      	str	r3, [sp, #68]	; 0x44
  4026ca:	2a00      	cmp	r2, #0
  4026cc:	f040 8686 	bne.w	4033dc <_svfprintf_r+0x1444>
  4026d0:	f04b 0b10 	orr.w	fp, fp, #16
  4026d4:	f01b 0f20 	tst.w	fp, #32
  4026d8:	d0a1      	beq.n	40261e <_svfprintf_r+0x686>
  4026da:	9d0f      	ldr	r5, [sp, #60]	; 0x3c
  4026dc:	3507      	adds	r5, #7
  4026de:	f025 0507 	bic.w	r5, r5, #7
  4026e2:	e9d5 2300 	ldrd	r2, r3, [r5]
  4026e6:	2a00      	cmp	r2, #0
  4026e8:	f105 0108 	add.w	r1, r5, #8
  4026ec:	461d      	mov	r5, r3
  4026ee:	f173 0300 	sbcs.w	r3, r3, #0
  4026f2:	910f      	str	r1, [sp, #60]	; 0x3c
  4026f4:	4614      	mov	r4, r2
  4026f6:	daa6      	bge.n	402646 <_svfprintf_r+0x6ae>
  4026f8:	272d      	movs	r7, #45	; 0x2d
  4026fa:	4264      	negs	r4, r4
  4026fc:	eb65 0545 	sbc.w	r5, r5, r5, lsl #1
  402700:	f88d 7077 	strb.w	r7, [sp, #119]	; 0x77
  402704:	2301      	movs	r3, #1
  402706:	e53d      	b.n	402184 <_svfprintf_r+0x1ec>
  402708:	9311      	str	r3, [sp, #68]	; 0x44
  40270a:	2a00      	cmp	r2, #0
  40270c:	f040 8662 	bne.w	4033d4 <_svfprintf_r+0x143c>
  402710:	9d0f      	ldr	r5, [sp, #60]	; 0x3c
  402712:	3507      	adds	r5, #7
  402714:	f025 0307 	bic.w	r3, r5, #7
  402718:	f103 0208 	add.w	r2, r3, #8
  40271c:	920f      	str	r2, [sp, #60]	; 0x3c
  40271e:	681a      	ldr	r2, [r3, #0]
  402720:	9215      	str	r2, [sp, #84]	; 0x54
  402722:	685b      	ldr	r3, [r3, #4]
  402724:	9314      	str	r3, [sp, #80]	; 0x50
  402726:	9b14      	ldr	r3, [sp, #80]	; 0x50
  402728:	9d15      	ldr	r5, [sp, #84]	; 0x54
  40272a:	f023 4400 	bic.w	r4, r3, #2147483648	; 0x80000000
  40272e:	4628      	mov	r0, r5
  402730:	4621      	mov	r1, r4
  402732:	f04f 32ff 	mov.w	r2, #4294967295
  402736:	4b59      	ldr	r3, [pc, #356]	; (40289c <_svfprintf_r+0x904>)
  402738:	f005 fa5e 	bl	407bf8 <__aeabi_dcmpun>
  40273c:	2800      	cmp	r0, #0
  40273e:	f040 834a 	bne.w	402dd6 <_svfprintf_r+0xe3e>
  402742:	4628      	mov	r0, r5
  402744:	4621      	mov	r1, r4
  402746:	f04f 32ff 	mov.w	r2, #4294967295
  40274a:	4b54      	ldr	r3, [pc, #336]	; (40289c <_svfprintf_r+0x904>)
  40274c:	f005 fa36 	bl	407bbc <__aeabi_dcmple>
  402750:	2800      	cmp	r0, #0
  402752:	f040 8340 	bne.w	402dd6 <_svfprintf_r+0xe3e>
  402756:	a815      	add	r0, sp, #84	; 0x54
  402758:	c80d      	ldmia	r0, {r0, r2, r3}
  40275a:	9914      	ldr	r1, [sp, #80]	; 0x50
  40275c:	f005 fa24 	bl	407ba8 <__aeabi_dcmplt>
  402760:	2800      	cmp	r0, #0
  402762:	f040 8530 	bne.w	4031c6 <_svfprintf_r+0x122e>
  402766:	f89d 7077 	ldrb.w	r7, [sp, #119]	; 0x77
  40276a:	4e4d      	ldr	r6, [pc, #308]	; (4028a0 <_svfprintf_r+0x908>)
  40276c:	4b4d      	ldr	r3, [pc, #308]	; (4028a4 <_svfprintf_r+0x90c>)
  40276e:	f02b 0080 	bic.w	r0, fp, #128	; 0x80
  402772:	9007      	str	r0, [sp, #28]
  402774:	9811      	ldr	r0, [sp, #68]	; 0x44
  402776:	2203      	movs	r2, #3
  402778:	2100      	movs	r1, #0
  40277a:	9208      	str	r2, [sp, #32]
  40277c:	910a      	str	r1, [sp, #40]	; 0x28
  40277e:	2847      	cmp	r0, #71	; 0x47
  402780:	bfd8      	it	le
  402782:	461e      	movle	r6, r3
  402784:	920e      	str	r2, [sp, #56]	; 0x38
  402786:	9112      	str	r1, [sp, #72]	; 0x48
  402788:	e51e      	b.n	4021c8 <_svfprintf_r+0x230>
  40278a:	f04b 0b08 	orr.w	fp, fp, #8
  40278e:	f89a 3000 	ldrb.w	r3, [sl]
  402792:	e459      	b.n	402048 <_svfprintf_r+0xb0>
  402794:	f1a3 0030 	sub.w	r0, r3, #48	; 0x30
  402798:	2300      	movs	r3, #0
  40279a:	461c      	mov	r4, r3
  40279c:	f81a 3b01 	ldrb.w	r3, [sl], #1
  4027a0:	eb04 0484 	add.w	r4, r4, r4, lsl #2
  4027a4:	eb00 0444 	add.w	r4, r0, r4, lsl #1
  4027a8:	f1a3 0030 	sub.w	r0, r3, #48	; 0x30
  4027ac:	2809      	cmp	r0, #9
  4027ae:	d9f5      	bls.n	40279c <_svfprintf_r+0x804>
  4027b0:	940d      	str	r4, [sp, #52]	; 0x34
  4027b2:	e44b      	b.n	40204c <_svfprintf_r+0xb4>
  4027b4:	f04b 0b10 	orr.w	fp, fp, #16
  4027b8:	9311      	str	r3, [sp, #68]	; 0x44
  4027ba:	f01b 0320 	ands.w	r3, fp, #32
  4027be:	f43f ae1d 	beq.w	4023fc <_svfprintf_r+0x464>
  4027c2:	9d0f      	ldr	r5, [sp, #60]	; 0x3c
  4027c4:	3507      	adds	r5, #7
  4027c6:	f025 0307 	bic.w	r3, r5, #7
  4027ca:	f103 0208 	add.w	r2, r3, #8
  4027ce:	e9d3 4500 	ldrd	r4, r5, [r3]
  4027d2:	920f      	str	r2, [sp, #60]	; 0x3c
  4027d4:	2300      	movs	r3, #0
  4027d6:	e4d2      	b.n	40217e <_svfprintf_r+0x1e6>
  4027d8:	9311      	str	r3, [sp, #68]	; 0x44
  4027da:	2a00      	cmp	r2, #0
  4027dc:	f040 85e7 	bne.w	4033ae <_svfprintf_r+0x1416>
  4027e0:	9a11      	ldr	r2, [sp, #68]	; 0x44
  4027e2:	2a00      	cmp	r2, #0
  4027e4:	f43f aca3 	beq.w	40212e <_svfprintf_r+0x196>
  4027e8:	2300      	movs	r3, #0
  4027ea:	2101      	movs	r1, #1
  4027ec:	461f      	mov	r7, r3
  4027ee:	9108      	str	r1, [sp, #32]
  4027f0:	f88d 20a0 	strb.w	r2, [sp, #160]	; 0xa0
  4027f4:	f8cd b01c 	str.w	fp, [sp, #28]
  4027f8:	f88d 3077 	strb.w	r3, [sp, #119]	; 0x77
  4027fc:	930a      	str	r3, [sp, #40]	; 0x28
  4027fe:	9312      	str	r3, [sp, #72]	; 0x48
  402800:	910e      	str	r1, [sp, #56]	; 0x38
  402802:	ae28      	add	r6, sp, #160	; 0xa0
  402804:	e4e4      	b.n	4021d0 <_svfprintf_r+0x238>
  402806:	9c27      	ldr	r4, [sp, #156]	; 0x9c
  402808:	e534      	b.n	402274 <_svfprintf_r+0x2dc>
  40280a:	9b11      	ldr	r3, [sp, #68]	; 0x44
  40280c:	2b65      	cmp	r3, #101	; 0x65
  40280e:	f340 80a7 	ble.w	402960 <_svfprintf_r+0x9c8>
  402812:	a815      	add	r0, sp, #84	; 0x54
  402814:	c80d      	ldmia	r0, {r0, r2, r3}
  402816:	9914      	ldr	r1, [sp, #80]	; 0x50
  402818:	f005 f9bc 	bl	407b94 <__aeabi_dcmpeq>
  40281c:	2800      	cmp	r0, #0
  40281e:	f000 8150 	beq.w	402ac2 <_svfprintf_r+0xb2a>
  402822:	9b26      	ldr	r3, [sp, #152]	; 0x98
  402824:	4a20      	ldr	r2, [pc, #128]	; (4028a8 <_svfprintf_r+0x910>)
  402826:	f8c8 2000 	str.w	r2, [r8]
  40282a:	3301      	adds	r3, #1
  40282c:	3401      	adds	r4, #1
  40282e:	2201      	movs	r2, #1
  402830:	2b07      	cmp	r3, #7
  402832:	9427      	str	r4, [sp, #156]	; 0x9c
  402834:	9326      	str	r3, [sp, #152]	; 0x98
  402836:	f8c8 2004 	str.w	r2, [r8, #4]
  40283a:	f300 836a 	bgt.w	402f12 <_svfprintf_r+0xf7a>
  40283e:	f108 0808 	add.w	r8, r8, #8
  402842:	9b1f      	ldr	r3, [sp, #124]	; 0x7c
  402844:	9a13      	ldr	r2, [sp, #76]	; 0x4c
  402846:	9c27      	ldr	r4, [sp, #156]	; 0x9c
  402848:	4293      	cmp	r3, r2
  40284a:	db03      	blt.n	402854 <_svfprintf_r+0x8bc>
  40284c:	9b07      	ldr	r3, [sp, #28]
  40284e:	07dd      	lsls	r5, r3, #31
  402850:	f57f ad82 	bpl.w	402358 <_svfprintf_r+0x3c0>
  402854:	9b26      	ldr	r3, [sp, #152]	; 0x98
  402856:	9919      	ldr	r1, [sp, #100]	; 0x64
  402858:	9a1a      	ldr	r2, [sp, #104]	; 0x68
  40285a:	f8c8 2000 	str.w	r2, [r8]
  40285e:	3301      	adds	r3, #1
  402860:	440c      	add	r4, r1
  402862:	2b07      	cmp	r3, #7
  402864:	f8c8 1004 	str.w	r1, [r8, #4]
  402868:	9427      	str	r4, [sp, #156]	; 0x9c
  40286a:	9326      	str	r3, [sp, #152]	; 0x98
  40286c:	f300 839e 	bgt.w	402fac <_svfprintf_r+0x1014>
  402870:	f108 0808 	add.w	r8, r8, #8
  402874:	9b13      	ldr	r3, [sp, #76]	; 0x4c
  402876:	1e5e      	subs	r6, r3, #1
  402878:	2e00      	cmp	r6, #0
  40287a:	f77f ad6d 	ble.w	402358 <_svfprintf_r+0x3c0>
  40287e:	2e10      	cmp	r6, #16
  402880:	9b26      	ldr	r3, [sp, #152]	; 0x98
  402882:	4d0a      	ldr	r5, [pc, #40]	; (4028ac <_svfprintf_r+0x914>)
  402884:	f340 81f5 	ble.w	402c72 <_svfprintf_r+0xcda>
  402888:	4622      	mov	r2, r4
  40288a:	2710      	movs	r7, #16
  40288c:	f8dd b030 	ldr.w	fp, [sp, #48]	; 0x30
  402890:	9c0b      	ldr	r4, [sp, #44]	; 0x2c
  402892:	e013      	b.n	4028bc <_svfprintf_r+0x924>
  402894:	00410a98 	.word	0x00410a98
  402898:	00410a84 	.word	0x00410a84
  40289c:	7fefffff 	.word	0x7fefffff
  4028a0:	00410a78 	.word	0x00410a78
  4028a4:	00410a74 	.word	0x00410a74
  4028a8:	00410ab4 	.word	0x00410ab4
  4028ac:	00410ac8 	.word	0x00410ac8
  4028b0:	f108 0808 	add.w	r8, r8, #8
  4028b4:	3e10      	subs	r6, #16
  4028b6:	2e10      	cmp	r6, #16
  4028b8:	f340 81da 	ble.w	402c70 <_svfprintf_r+0xcd8>
  4028bc:	3301      	adds	r3, #1
  4028be:	3210      	adds	r2, #16
  4028c0:	2b07      	cmp	r3, #7
  4028c2:	9227      	str	r2, [sp, #156]	; 0x9c
  4028c4:	9326      	str	r3, [sp, #152]	; 0x98
  4028c6:	e888 00a0 	stmia.w	r8, {r5, r7}
  4028ca:	ddf1      	ble.n	4028b0 <_svfprintf_r+0x918>
  4028cc:	aa25      	add	r2, sp, #148	; 0x94
  4028ce:	4621      	mov	r1, r4
  4028d0:	4658      	mov	r0, fp
  4028d2:	f004 fac3 	bl	406e5c <__ssprint_r>
  4028d6:	2800      	cmp	r0, #0
  4028d8:	f47f ac30 	bne.w	40213c <_svfprintf_r+0x1a4>
  4028dc:	9a27      	ldr	r2, [sp, #156]	; 0x9c
  4028de:	9b26      	ldr	r3, [sp, #152]	; 0x98
  4028e0:	46c8      	mov	r8, r9
  4028e2:	e7e7      	b.n	4028b4 <_svfprintf_r+0x91c>
  4028e4:	9b0d      	ldr	r3, [sp, #52]	; 0x34
  4028e6:	9a08      	ldr	r2, [sp, #32]
  4028e8:	1a9f      	subs	r7, r3, r2
  4028ea:	2f00      	cmp	r7, #0
  4028ec:	f77f ace5 	ble.w	4022ba <_svfprintf_r+0x322>
  4028f0:	2f10      	cmp	r7, #16
  4028f2:	9b26      	ldr	r3, [sp, #152]	; 0x98
  4028f4:	4db6      	ldr	r5, [pc, #728]	; (402bd0 <_svfprintf_r+0xc38>)
  4028f6:	dd27      	ble.n	402948 <_svfprintf_r+0x9b0>
  4028f8:	4642      	mov	r2, r8
  4028fa:	4621      	mov	r1, r4
  4028fc:	46b0      	mov	r8, r6
  4028fe:	f04f 0b10 	mov.w	fp, #16
  402902:	462e      	mov	r6, r5
  402904:	9c0c      	ldr	r4, [sp, #48]	; 0x30
  402906:	9d0b      	ldr	r5, [sp, #44]	; 0x2c
  402908:	e004      	b.n	402914 <_svfprintf_r+0x97c>
  40290a:	3f10      	subs	r7, #16
  40290c:	2f10      	cmp	r7, #16
  40290e:	f102 0208 	add.w	r2, r2, #8
  402912:	dd15      	ble.n	402940 <_svfprintf_r+0x9a8>
  402914:	3301      	adds	r3, #1
  402916:	3110      	adds	r1, #16
  402918:	2b07      	cmp	r3, #7
  40291a:	9127      	str	r1, [sp, #156]	; 0x9c
  40291c:	9326      	str	r3, [sp, #152]	; 0x98
  40291e:	e882 0840 	stmia.w	r2, {r6, fp}
  402922:	ddf2      	ble.n	40290a <_svfprintf_r+0x972>
  402924:	aa25      	add	r2, sp, #148	; 0x94
  402926:	4629      	mov	r1, r5
  402928:	4620      	mov	r0, r4
  40292a:	f004 fa97 	bl	406e5c <__ssprint_r>
  40292e:	2800      	cmp	r0, #0
  402930:	f47f ac04 	bne.w	40213c <_svfprintf_r+0x1a4>
  402934:	3f10      	subs	r7, #16
  402936:	2f10      	cmp	r7, #16
  402938:	9927      	ldr	r1, [sp, #156]	; 0x9c
  40293a:	9b26      	ldr	r3, [sp, #152]	; 0x98
  40293c:	464a      	mov	r2, r9
  40293e:	dce9      	bgt.n	402914 <_svfprintf_r+0x97c>
  402940:	4635      	mov	r5, r6
  402942:	460c      	mov	r4, r1
  402944:	4646      	mov	r6, r8
  402946:	4690      	mov	r8, r2
  402948:	3301      	adds	r3, #1
  40294a:	443c      	add	r4, r7
  40294c:	2b07      	cmp	r3, #7
  40294e:	9427      	str	r4, [sp, #156]	; 0x9c
  402950:	9326      	str	r3, [sp, #152]	; 0x98
  402952:	e888 00a0 	stmia.w	r8, {r5, r7}
  402956:	f300 8232 	bgt.w	402dbe <_svfprintf_r+0xe26>
  40295a:	f108 0808 	add.w	r8, r8, #8
  40295e:	e4ac      	b.n	4022ba <_svfprintf_r+0x322>
  402960:	9b13      	ldr	r3, [sp, #76]	; 0x4c
  402962:	9f26      	ldr	r7, [sp, #152]	; 0x98
  402964:	2b01      	cmp	r3, #1
  402966:	f340 81fe 	ble.w	402d66 <_svfprintf_r+0xdce>
  40296a:	3701      	adds	r7, #1
  40296c:	3401      	adds	r4, #1
  40296e:	2301      	movs	r3, #1
  402970:	2f07      	cmp	r7, #7
  402972:	9427      	str	r4, [sp, #156]	; 0x9c
  402974:	9726      	str	r7, [sp, #152]	; 0x98
  402976:	f8c8 6000 	str.w	r6, [r8]
  40297a:	f8c8 3004 	str.w	r3, [r8, #4]
  40297e:	f300 8203 	bgt.w	402d88 <_svfprintf_r+0xdf0>
  402982:	f108 0808 	add.w	r8, r8, #8
  402986:	9a19      	ldr	r2, [sp, #100]	; 0x64
  402988:	9b1a      	ldr	r3, [sp, #104]	; 0x68
  40298a:	f8c8 3000 	str.w	r3, [r8]
  40298e:	3701      	adds	r7, #1
  402990:	4414      	add	r4, r2
  402992:	2f07      	cmp	r7, #7
  402994:	9427      	str	r4, [sp, #156]	; 0x9c
  402996:	9726      	str	r7, [sp, #152]	; 0x98
  402998:	f8c8 2004 	str.w	r2, [r8, #4]
  40299c:	f300 8200 	bgt.w	402da0 <_svfprintf_r+0xe08>
  4029a0:	f108 0808 	add.w	r8, r8, #8
  4029a4:	a815      	add	r0, sp, #84	; 0x54
  4029a6:	c80d      	ldmia	r0, {r0, r2, r3}
  4029a8:	9914      	ldr	r1, [sp, #80]	; 0x50
  4029aa:	f005 f8f3 	bl	407b94 <__aeabi_dcmpeq>
  4029ae:	9b13      	ldr	r3, [sp, #76]	; 0x4c
  4029b0:	2800      	cmp	r0, #0
  4029b2:	f040 8101 	bne.w	402bb8 <_svfprintf_r+0xc20>
  4029b6:	3b01      	subs	r3, #1
  4029b8:	3701      	adds	r7, #1
  4029ba:	3601      	adds	r6, #1
  4029bc:	441c      	add	r4, r3
  4029be:	2f07      	cmp	r7, #7
  4029c0:	9726      	str	r7, [sp, #152]	; 0x98
  4029c2:	9427      	str	r4, [sp, #156]	; 0x9c
  4029c4:	f8c8 6000 	str.w	r6, [r8]
  4029c8:	f8c8 3004 	str.w	r3, [r8, #4]
  4029cc:	f300 8127 	bgt.w	402c1e <_svfprintf_r+0xc86>
  4029d0:	f108 0808 	add.w	r8, r8, #8
  4029d4:	9a1b      	ldr	r2, [sp, #108]	; 0x6c
  4029d6:	f8c8 2004 	str.w	r2, [r8, #4]
  4029da:	3701      	adds	r7, #1
  4029dc:	4414      	add	r4, r2
  4029de:	ab21      	add	r3, sp, #132	; 0x84
  4029e0:	2f07      	cmp	r7, #7
  4029e2:	9427      	str	r4, [sp, #156]	; 0x9c
  4029e4:	9726      	str	r7, [sp, #152]	; 0x98
  4029e6:	f8c8 3000 	str.w	r3, [r8]
  4029ea:	f77f acb3 	ble.w	402354 <_svfprintf_r+0x3bc>
  4029ee:	aa25      	add	r2, sp, #148	; 0x94
  4029f0:	990b      	ldr	r1, [sp, #44]	; 0x2c
  4029f2:	980c      	ldr	r0, [sp, #48]	; 0x30
  4029f4:	f004 fa32 	bl	406e5c <__ssprint_r>
  4029f8:	2800      	cmp	r0, #0
  4029fa:	f47f ab9f 	bne.w	40213c <_svfprintf_r+0x1a4>
  4029fe:	9c27      	ldr	r4, [sp, #156]	; 0x9c
  402a00:	46c8      	mov	r8, r9
  402a02:	e4a9      	b.n	402358 <_svfprintf_r+0x3c0>
  402a04:	aa25      	add	r2, sp, #148	; 0x94
  402a06:	990b      	ldr	r1, [sp, #44]	; 0x2c
  402a08:	980c      	ldr	r0, [sp, #48]	; 0x30
  402a0a:	f004 fa27 	bl	406e5c <__ssprint_r>
  402a0e:	2800      	cmp	r0, #0
  402a10:	f43f aceb 	beq.w	4023ea <_svfprintf_r+0x452>
  402a14:	f7ff bb92 	b.w	40213c <_svfprintf_r+0x1a4>
  402a18:	f8dd b01c 	ldr.w	fp, [sp, #28]
  402a1c:	2b01      	cmp	r3, #1
  402a1e:	f000 8134 	beq.w	402c8a <_svfprintf_r+0xcf2>
  402a22:	2b02      	cmp	r3, #2
  402a24:	d125      	bne.n	402a72 <_svfprintf_r+0xada>
  402a26:	f8cd b01c 	str.w	fp, [sp, #28]
  402a2a:	2400      	movs	r4, #0
  402a2c:	2500      	movs	r5, #0
  402a2e:	e61e      	b.n	40266e <_svfprintf_r+0x6d6>
  402a30:	aa25      	add	r2, sp, #148	; 0x94
  402a32:	990b      	ldr	r1, [sp, #44]	; 0x2c
  402a34:	980c      	ldr	r0, [sp, #48]	; 0x30
  402a36:	f004 fa11 	bl	406e5c <__ssprint_r>
  402a3a:	2800      	cmp	r0, #0
  402a3c:	f47f ab7e 	bne.w	40213c <_svfprintf_r+0x1a4>
  402a40:	9c27      	ldr	r4, [sp, #156]	; 0x9c
  402a42:	46c8      	mov	r8, r9
  402a44:	e475      	b.n	402332 <_svfprintf_r+0x39a>
  402a46:	aa25      	add	r2, sp, #148	; 0x94
  402a48:	990b      	ldr	r1, [sp, #44]	; 0x2c
  402a4a:	980c      	ldr	r0, [sp, #48]	; 0x30
  402a4c:	f004 fa06 	bl	406e5c <__ssprint_r>
  402a50:	2800      	cmp	r0, #0
  402a52:	f47f ab73 	bne.w	40213c <_svfprintf_r+0x1a4>
  402a56:	9c27      	ldr	r4, [sp, #156]	; 0x9c
  402a58:	46c8      	mov	r8, r9
  402a5a:	e41b      	b.n	402294 <_svfprintf_r+0x2fc>
  402a5c:	aa25      	add	r2, sp, #148	; 0x94
  402a5e:	990b      	ldr	r1, [sp, #44]	; 0x2c
  402a60:	980c      	ldr	r0, [sp, #48]	; 0x30
  402a62:	f004 f9fb 	bl	406e5c <__ssprint_r>
  402a66:	2800      	cmp	r0, #0
  402a68:	f47f ab68 	bne.w	40213c <_svfprintf_r+0x1a4>
  402a6c:	9c27      	ldr	r4, [sp, #156]	; 0x9c
  402a6e:	46c8      	mov	r8, r9
  402a70:	e420      	b.n	4022b4 <_svfprintf_r+0x31c>
  402a72:	f8cd b01c 	str.w	fp, [sp, #28]
  402a76:	2400      	movs	r4, #0
  402a78:	2500      	movs	r5, #0
  402a7a:	4649      	mov	r1, r9
  402a7c:	e000      	b.n	402a80 <_svfprintf_r+0xae8>
  402a7e:	4631      	mov	r1, r6
  402a80:	08e2      	lsrs	r2, r4, #3
  402a82:	ea42 7245 	orr.w	r2, r2, r5, lsl #29
  402a86:	08e8      	lsrs	r0, r5, #3
  402a88:	f004 0307 	and.w	r3, r4, #7
  402a8c:	4605      	mov	r5, r0
  402a8e:	4614      	mov	r4, r2
  402a90:	3330      	adds	r3, #48	; 0x30
  402a92:	ea54 0205 	orrs.w	r2, r4, r5
  402a96:	f801 3c01 	strb.w	r3, [r1, #-1]
  402a9a:	f101 36ff 	add.w	r6, r1, #4294967295
  402a9e:	d1ee      	bne.n	402a7e <_svfprintf_r+0xae6>
  402aa0:	9a07      	ldr	r2, [sp, #28]
  402aa2:	07d2      	lsls	r2, r2, #31
  402aa4:	f57f adf3 	bpl.w	40268e <_svfprintf_r+0x6f6>
  402aa8:	2b30      	cmp	r3, #48	; 0x30
  402aaa:	f43f adf0 	beq.w	40268e <_svfprintf_r+0x6f6>
  402aae:	3902      	subs	r1, #2
  402ab0:	2330      	movs	r3, #48	; 0x30
  402ab2:	f806 3c01 	strb.w	r3, [r6, #-1]
  402ab6:	eba9 0301 	sub.w	r3, r9, r1
  402aba:	930e      	str	r3, [sp, #56]	; 0x38
  402abc:	460e      	mov	r6, r1
  402abe:	f7ff bb7b 	b.w	4021b8 <_svfprintf_r+0x220>
  402ac2:	991f      	ldr	r1, [sp, #124]	; 0x7c
  402ac4:	2900      	cmp	r1, #0
  402ac6:	f340 822e 	ble.w	402f26 <_svfprintf_r+0xf8e>
  402aca:	9b12      	ldr	r3, [sp, #72]	; 0x48
  402acc:	9a13      	ldr	r2, [sp, #76]	; 0x4c
  402ace:	4293      	cmp	r3, r2
  402ad0:	bfa8      	it	ge
  402ad2:	4613      	movge	r3, r2
  402ad4:	2b00      	cmp	r3, #0
  402ad6:	461f      	mov	r7, r3
  402ad8:	dd0d      	ble.n	402af6 <_svfprintf_r+0xb5e>
  402ada:	9b26      	ldr	r3, [sp, #152]	; 0x98
  402adc:	f8c8 6000 	str.w	r6, [r8]
  402ae0:	3301      	adds	r3, #1
  402ae2:	443c      	add	r4, r7
  402ae4:	2b07      	cmp	r3, #7
  402ae6:	9427      	str	r4, [sp, #156]	; 0x9c
  402ae8:	f8c8 7004 	str.w	r7, [r8, #4]
  402aec:	9326      	str	r3, [sp, #152]	; 0x98
  402aee:	f300 831f 	bgt.w	403130 <_svfprintf_r+0x1198>
  402af2:	f108 0808 	add.w	r8, r8, #8
  402af6:	9b12      	ldr	r3, [sp, #72]	; 0x48
  402af8:	2f00      	cmp	r7, #0
  402afa:	bfa8      	it	ge
  402afc:	1bdb      	subge	r3, r3, r7
  402afe:	2b00      	cmp	r3, #0
  402b00:	461f      	mov	r7, r3
  402b02:	f340 80d6 	ble.w	402cb2 <_svfprintf_r+0xd1a>
  402b06:	2f10      	cmp	r7, #16
  402b08:	9b26      	ldr	r3, [sp, #152]	; 0x98
  402b0a:	4d31      	ldr	r5, [pc, #196]	; (402bd0 <_svfprintf_r+0xc38>)
  402b0c:	f340 81ed 	ble.w	402eea <_svfprintf_r+0xf52>
  402b10:	4642      	mov	r2, r8
  402b12:	4621      	mov	r1, r4
  402b14:	46b0      	mov	r8, r6
  402b16:	f04f 0b10 	mov.w	fp, #16
  402b1a:	462e      	mov	r6, r5
  402b1c:	9c0c      	ldr	r4, [sp, #48]	; 0x30
  402b1e:	9d0b      	ldr	r5, [sp, #44]	; 0x2c
  402b20:	e004      	b.n	402b2c <_svfprintf_r+0xb94>
  402b22:	3208      	adds	r2, #8
  402b24:	3f10      	subs	r7, #16
  402b26:	2f10      	cmp	r7, #16
  402b28:	f340 81db 	ble.w	402ee2 <_svfprintf_r+0xf4a>
  402b2c:	3301      	adds	r3, #1
  402b2e:	3110      	adds	r1, #16
  402b30:	2b07      	cmp	r3, #7
  402b32:	9127      	str	r1, [sp, #156]	; 0x9c
  402b34:	9326      	str	r3, [sp, #152]	; 0x98
  402b36:	e882 0840 	stmia.w	r2, {r6, fp}
  402b3a:	ddf2      	ble.n	402b22 <_svfprintf_r+0xb8a>
  402b3c:	aa25      	add	r2, sp, #148	; 0x94
  402b3e:	4629      	mov	r1, r5
  402b40:	4620      	mov	r0, r4
  402b42:	f004 f98b 	bl	406e5c <__ssprint_r>
  402b46:	2800      	cmp	r0, #0
  402b48:	f47f aaf8 	bne.w	40213c <_svfprintf_r+0x1a4>
  402b4c:	9927      	ldr	r1, [sp, #156]	; 0x9c
  402b4e:	9b26      	ldr	r3, [sp, #152]	; 0x98
  402b50:	464a      	mov	r2, r9
  402b52:	e7e7      	b.n	402b24 <_svfprintf_r+0xb8c>
  402b54:	9b0a      	ldr	r3, [sp, #40]	; 0x28
  402b56:	930e      	str	r3, [sp, #56]	; 0x38
  402b58:	464e      	mov	r6, r9
  402b5a:	f7ff bb2d 	b.w	4021b8 <_svfprintf_r+0x220>
  402b5e:	2d00      	cmp	r5, #0
  402b60:	bf08      	it	eq
  402b62:	2c0a      	cmpeq	r4, #10
  402b64:	f0c0 808f 	bcc.w	402c86 <_svfprintf_r+0xcee>
  402b68:	464e      	mov	r6, r9
  402b6a:	4620      	mov	r0, r4
  402b6c:	4629      	mov	r1, r5
  402b6e:	220a      	movs	r2, #10
  402b70:	2300      	movs	r3, #0
  402b72:	f005 f87f 	bl	407c74 <__aeabi_uldivmod>
  402b76:	3230      	adds	r2, #48	; 0x30
  402b78:	f806 2d01 	strb.w	r2, [r6, #-1]!
  402b7c:	4620      	mov	r0, r4
  402b7e:	4629      	mov	r1, r5
  402b80:	2300      	movs	r3, #0
  402b82:	220a      	movs	r2, #10
  402b84:	f005 f876 	bl	407c74 <__aeabi_uldivmod>
  402b88:	4604      	mov	r4, r0
  402b8a:	460d      	mov	r5, r1
  402b8c:	ea54 0305 	orrs.w	r3, r4, r5
  402b90:	d1eb      	bne.n	402b6a <_svfprintf_r+0xbd2>
  402b92:	eba9 0306 	sub.w	r3, r9, r6
  402b96:	930e      	str	r3, [sp, #56]	; 0x38
  402b98:	f7ff bb0e 	b.w	4021b8 <_svfprintf_r+0x220>
  402b9c:	aa25      	add	r2, sp, #148	; 0x94
  402b9e:	990b      	ldr	r1, [sp, #44]	; 0x2c
  402ba0:	980c      	ldr	r0, [sp, #48]	; 0x30
  402ba2:	f004 f95b 	bl	406e5c <__ssprint_r>
  402ba6:	2800      	cmp	r0, #0
  402ba8:	f47f aac8 	bne.w	40213c <_svfprintf_r+0x1a4>
  402bac:	f89d 7077 	ldrb.w	r7, [sp, #119]	; 0x77
  402bb0:	9c27      	ldr	r4, [sp, #156]	; 0x9c
  402bb2:	46c8      	mov	r8, r9
  402bb4:	f7ff bb5e 	b.w	402274 <_svfprintf_r+0x2dc>
  402bb8:	1e5e      	subs	r6, r3, #1
  402bba:	2e00      	cmp	r6, #0
  402bbc:	f77f af0a 	ble.w	4029d4 <_svfprintf_r+0xa3c>
  402bc0:	2e10      	cmp	r6, #16
  402bc2:	4d03      	ldr	r5, [pc, #12]	; (402bd0 <_svfprintf_r+0xc38>)
  402bc4:	dd22      	ble.n	402c0c <_svfprintf_r+0xc74>
  402bc6:	4622      	mov	r2, r4
  402bc8:	f04f 0b10 	mov.w	fp, #16
  402bcc:	9c0c      	ldr	r4, [sp, #48]	; 0x30
  402bce:	e006      	b.n	402bde <_svfprintf_r+0xc46>
  402bd0:	00410ac8 	.word	0x00410ac8
  402bd4:	3e10      	subs	r6, #16
  402bd6:	2e10      	cmp	r6, #16
  402bd8:	f108 0808 	add.w	r8, r8, #8
  402bdc:	dd15      	ble.n	402c0a <_svfprintf_r+0xc72>
  402bde:	3701      	adds	r7, #1
  402be0:	3210      	adds	r2, #16
  402be2:	2f07      	cmp	r7, #7
  402be4:	9227      	str	r2, [sp, #156]	; 0x9c
  402be6:	9726      	str	r7, [sp, #152]	; 0x98
  402be8:	e888 0820 	stmia.w	r8, {r5, fp}
  402bec:	ddf2      	ble.n	402bd4 <_svfprintf_r+0xc3c>
  402bee:	aa25      	add	r2, sp, #148	; 0x94
  402bf0:	990b      	ldr	r1, [sp, #44]	; 0x2c
  402bf2:	4620      	mov	r0, r4
  402bf4:	f004 f932 	bl	406e5c <__ssprint_r>
  402bf8:	2800      	cmp	r0, #0
  402bfa:	f47f aa9f 	bne.w	40213c <_svfprintf_r+0x1a4>
  402bfe:	3e10      	subs	r6, #16
  402c00:	2e10      	cmp	r6, #16
  402c02:	9a27      	ldr	r2, [sp, #156]	; 0x9c
  402c04:	9f26      	ldr	r7, [sp, #152]	; 0x98
  402c06:	46c8      	mov	r8, r9
  402c08:	dce9      	bgt.n	402bde <_svfprintf_r+0xc46>
  402c0a:	4614      	mov	r4, r2
  402c0c:	3701      	adds	r7, #1
  402c0e:	4434      	add	r4, r6
  402c10:	2f07      	cmp	r7, #7
  402c12:	9427      	str	r4, [sp, #156]	; 0x9c
  402c14:	9726      	str	r7, [sp, #152]	; 0x98
  402c16:	e888 0060 	stmia.w	r8, {r5, r6}
  402c1a:	f77f aed9 	ble.w	4029d0 <_svfprintf_r+0xa38>
  402c1e:	aa25      	add	r2, sp, #148	; 0x94
  402c20:	990b      	ldr	r1, [sp, #44]	; 0x2c
  402c22:	980c      	ldr	r0, [sp, #48]	; 0x30
  402c24:	f004 f91a 	bl	406e5c <__ssprint_r>
  402c28:	2800      	cmp	r0, #0
  402c2a:	f47f aa87 	bne.w	40213c <_svfprintf_r+0x1a4>
  402c2e:	9c27      	ldr	r4, [sp, #156]	; 0x9c
  402c30:	9f26      	ldr	r7, [sp, #152]	; 0x98
  402c32:	46c8      	mov	r8, r9
  402c34:	e6ce      	b.n	4029d4 <_svfprintf_r+0xa3c>
  402c36:	9a0f      	ldr	r2, [sp, #60]	; 0x3c
  402c38:	6814      	ldr	r4, [r2, #0]
  402c3a:	4613      	mov	r3, r2
  402c3c:	3304      	adds	r3, #4
  402c3e:	17e5      	asrs	r5, r4, #31
  402c40:	930f      	str	r3, [sp, #60]	; 0x3c
  402c42:	4622      	mov	r2, r4
  402c44:	462b      	mov	r3, r5
  402c46:	e4fa      	b.n	40263e <_svfprintf_r+0x6a6>
  402c48:	3204      	adds	r2, #4
  402c4a:	681c      	ldr	r4, [r3, #0]
  402c4c:	920f      	str	r2, [sp, #60]	; 0x3c
  402c4e:	2301      	movs	r3, #1
  402c50:	2500      	movs	r5, #0
  402c52:	f7ff ba94 	b.w	40217e <_svfprintf_r+0x1e6>
  402c56:	681c      	ldr	r4, [r3, #0]
  402c58:	3304      	adds	r3, #4
  402c5a:	930f      	str	r3, [sp, #60]	; 0x3c
  402c5c:	2500      	movs	r5, #0
  402c5e:	e421      	b.n	4024a4 <_svfprintf_r+0x50c>
  402c60:	990f      	ldr	r1, [sp, #60]	; 0x3c
  402c62:	460a      	mov	r2, r1
  402c64:	3204      	adds	r2, #4
  402c66:	680c      	ldr	r4, [r1, #0]
  402c68:	920f      	str	r2, [sp, #60]	; 0x3c
  402c6a:	2500      	movs	r5, #0
  402c6c:	f7ff ba87 	b.w	40217e <_svfprintf_r+0x1e6>
  402c70:	4614      	mov	r4, r2
  402c72:	3301      	adds	r3, #1
  402c74:	4434      	add	r4, r6
  402c76:	2b07      	cmp	r3, #7
  402c78:	9427      	str	r4, [sp, #156]	; 0x9c
  402c7a:	9326      	str	r3, [sp, #152]	; 0x98
  402c7c:	e888 0060 	stmia.w	r8, {r5, r6}
  402c80:	f77f ab68 	ble.w	402354 <_svfprintf_r+0x3bc>
  402c84:	e6b3      	b.n	4029ee <_svfprintf_r+0xa56>
  402c86:	f8dd b01c 	ldr.w	fp, [sp, #28]
  402c8a:	f8cd b01c 	str.w	fp, [sp, #28]
  402c8e:	ae42      	add	r6, sp, #264	; 0x108
  402c90:	3430      	adds	r4, #48	; 0x30
  402c92:	2301      	movs	r3, #1
  402c94:	f806 4d41 	strb.w	r4, [r6, #-65]!
  402c98:	930e      	str	r3, [sp, #56]	; 0x38
  402c9a:	f7ff ba8d 	b.w	4021b8 <_svfprintf_r+0x220>
  402c9e:	aa25      	add	r2, sp, #148	; 0x94
  402ca0:	990b      	ldr	r1, [sp, #44]	; 0x2c
  402ca2:	980c      	ldr	r0, [sp, #48]	; 0x30
  402ca4:	f004 f8da 	bl	406e5c <__ssprint_r>
  402ca8:	2800      	cmp	r0, #0
  402caa:	f47f aa47 	bne.w	40213c <_svfprintf_r+0x1a4>
  402cae:	9c27      	ldr	r4, [sp, #156]	; 0x9c
  402cb0:	46c8      	mov	r8, r9
  402cb2:	9a1f      	ldr	r2, [sp, #124]	; 0x7c
  402cb4:	9b13      	ldr	r3, [sp, #76]	; 0x4c
  402cb6:	429a      	cmp	r2, r3
  402cb8:	db44      	blt.n	402d44 <_svfprintf_r+0xdac>
  402cba:	9b07      	ldr	r3, [sp, #28]
  402cbc:	07d9      	lsls	r1, r3, #31
  402cbe:	d441      	bmi.n	402d44 <_svfprintf_r+0xdac>
  402cc0:	9b13      	ldr	r3, [sp, #76]	; 0x4c
  402cc2:	9812      	ldr	r0, [sp, #72]	; 0x48
  402cc4:	1a9a      	subs	r2, r3, r2
  402cc6:	1a1d      	subs	r5, r3, r0
  402cc8:	4295      	cmp	r5, r2
  402cca:	bfa8      	it	ge
  402ccc:	4615      	movge	r5, r2
  402cce:	2d00      	cmp	r5, #0
  402cd0:	dd0e      	ble.n	402cf0 <_svfprintf_r+0xd58>
  402cd2:	9926      	ldr	r1, [sp, #152]	; 0x98
  402cd4:	f8c8 5004 	str.w	r5, [r8, #4]
  402cd8:	3101      	adds	r1, #1
  402cda:	4406      	add	r6, r0
  402cdc:	442c      	add	r4, r5
  402cde:	2907      	cmp	r1, #7
  402ce0:	f8c8 6000 	str.w	r6, [r8]
  402ce4:	9427      	str	r4, [sp, #156]	; 0x9c
  402ce6:	9126      	str	r1, [sp, #152]	; 0x98
  402ce8:	f300 823b 	bgt.w	403162 <_svfprintf_r+0x11ca>
  402cec:	f108 0808 	add.w	r8, r8, #8
  402cf0:	2d00      	cmp	r5, #0
  402cf2:	bfac      	ite	ge
  402cf4:	1b56      	subge	r6, r2, r5
  402cf6:	4616      	movlt	r6, r2
  402cf8:	2e00      	cmp	r6, #0
  402cfa:	f77f ab2d 	ble.w	402358 <_svfprintf_r+0x3c0>
  402cfe:	2e10      	cmp	r6, #16
  402d00:	9b26      	ldr	r3, [sp, #152]	; 0x98
  402d02:	4db0      	ldr	r5, [pc, #704]	; (402fc4 <_svfprintf_r+0x102c>)
  402d04:	ddb5      	ble.n	402c72 <_svfprintf_r+0xcda>
  402d06:	4622      	mov	r2, r4
  402d08:	2710      	movs	r7, #16
  402d0a:	f8dd b030 	ldr.w	fp, [sp, #48]	; 0x30
  402d0e:	9c0b      	ldr	r4, [sp, #44]	; 0x2c
  402d10:	e004      	b.n	402d1c <_svfprintf_r+0xd84>
  402d12:	f108 0808 	add.w	r8, r8, #8
  402d16:	3e10      	subs	r6, #16
  402d18:	2e10      	cmp	r6, #16
  402d1a:	dda9      	ble.n	402c70 <_svfprintf_r+0xcd8>
  402d1c:	3301      	adds	r3, #1
  402d1e:	3210      	adds	r2, #16
  402d20:	2b07      	cmp	r3, #7
  402d22:	9227      	str	r2, [sp, #156]	; 0x9c
  402d24:	9326      	str	r3, [sp, #152]	; 0x98
  402d26:	e888 00a0 	stmia.w	r8, {r5, r7}
  402d2a:	ddf2      	ble.n	402d12 <_svfprintf_r+0xd7a>
  402d2c:	aa25      	add	r2, sp, #148	; 0x94
  402d2e:	4621      	mov	r1, r4
  402d30:	4658      	mov	r0, fp
  402d32:	f004 f893 	bl	406e5c <__ssprint_r>
  402d36:	2800      	cmp	r0, #0
  402d38:	f47f aa00 	bne.w	40213c <_svfprintf_r+0x1a4>
  402d3c:	9a27      	ldr	r2, [sp, #156]	; 0x9c
  402d3e:	9b26      	ldr	r3, [sp, #152]	; 0x98
  402d40:	46c8      	mov	r8, r9
  402d42:	e7e8      	b.n	402d16 <_svfprintf_r+0xd7e>
  402d44:	9b26      	ldr	r3, [sp, #152]	; 0x98
  402d46:	9819      	ldr	r0, [sp, #100]	; 0x64
  402d48:	991a      	ldr	r1, [sp, #104]	; 0x68
  402d4a:	f8c8 1000 	str.w	r1, [r8]
  402d4e:	3301      	adds	r3, #1
  402d50:	4404      	add	r4, r0
  402d52:	2b07      	cmp	r3, #7
  402d54:	9427      	str	r4, [sp, #156]	; 0x9c
  402d56:	f8c8 0004 	str.w	r0, [r8, #4]
  402d5a:	9326      	str	r3, [sp, #152]	; 0x98
  402d5c:	f300 81f5 	bgt.w	40314a <_svfprintf_r+0x11b2>
  402d60:	f108 0808 	add.w	r8, r8, #8
  402d64:	e7ac      	b.n	402cc0 <_svfprintf_r+0xd28>
  402d66:	9b07      	ldr	r3, [sp, #28]
  402d68:	07da      	lsls	r2, r3, #31
  402d6a:	f53f adfe 	bmi.w	40296a <_svfprintf_r+0x9d2>
  402d6e:	3701      	adds	r7, #1
  402d70:	3401      	adds	r4, #1
  402d72:	2301      	movs	r3, #1
  402d74:	2f07      	cmp	r7, #7
  402d76:	9427      	str	r4, [sp, #156]	; 0x9c
  402d78:	9726      	str	r7, [sp, #152]	; 0x98
  402d7a:	f8c8 6000 	str.w	r6, [r8]
  402d7e:	f8c8 3004 	str.w	r3, [r8, #4]
  402d82:	f77f ae25 	ble.w	4029d0 <_svfprintf_r+0xa38>
  402d86:	e74a      	b.n	402c1e <_svfprintf_r+0xc86>
  402d88:	aa25      	add	r2, sp, #148	; 0x94
  402d8a:	990b      	ldr	r1, [sp, #44]	; 0x2c
  402d8c:	980c      	ldr	r0, [sp, #48]	; 0x30
  402d8e:	f004 f865 	bl	406e5c <__ssprint_r>
  402d92:	2800      	cmp	r0, #0
  402d94:	f47f a9d2 	bne.w	40213c <_svfprintf_r+0x1a4>
  402d98:	9c27      	ldr	r4, [sp, #156]	; 0x9c
  402d9a:	9f26      	ldr	r7, [sp, #152]	; 0x98
  402d9c:	46c8      	mov	r8, r9
  402d9e:	e5f2      	b.n	402986 <_svfprintf_r+0x9ee>
  402da0:	aa25      	add	r2, sp, #148	; 0x94
  402da2:	990b      	ldr	r1, [sp, #44]	; 0x2c
  402da4:	980c      	ldr	r0, [sp, #48]	; 0x30
  402da6:	f004 f859 	bl	406e5c <__ssprint_r>
  402daa:	2800      	cmp	r0, #0
  402dac:	f47f a9c6 	bne.w	40213c <_svfprintf_r+0x1a4>
  402db0:	9c27      	ldr	r4, [sp, #156]	; 0x9c
  402db2:	9f26      	ldr	r7, [sp, #152]	; 0x98
  402db4:	46c8      	mov	r8, r9
  402db6:	e5f5      	b.n	4029a4 <_svfprintf_r+0xa0c>
  402db8:	464e      	mov	r6, r9
  402dba:	f7ff b9fd 	b.w	4021b8 <_svfprintf_r+0x220>
  402dbe:	aa25      	add	r2, sp, #148	; 0x94
  402dc0:	990b      	ldr	r1, [sp, #44]	; 0x2c
  402dc2:	980c      	ldr	r0, [sp, #48]	; 0x30
  402dc4:	f004 f84a 	bl	406e5c <__ssprint_r>
  402dc8:	2800      	cmp	r0, #0
  402dca:	f47f a9b7 	bne.w	40213c <_svfprintf_r+0x1a4>
  402dce:	9c27      	ldr	r4, [sp, #156]	; 0x9c
  402dd0:	46c8      	mov	r8, r9
  402dd2:	f7ff ba72 	b.w	4022ba <_svfprintf_r+0x322>
  402dd6:	9c15      	ldr	r4, [sp, #84]	; 0x54
  402dd8:	4622      	mov	r2, r4
  402dda:	4620      	mov	r0, r4
  402ddc:	9c14      	ldr	r4, [sp, #80]	; 0x50
  402dde:	4623      	mov	r3, r4
  402de0:	4621      	mov	r1, r4
  402de2:	f004 ff09 	bl	407bf8 <__aeabi_dcmpun>
  402de6:	2800      	cmp	r0, #0
  402de8:	f040 8286 	bne.w	4032f8 <_svfprintf_r+0x1360>
  402dec:	9b0a      	ldr	r3, [sp, #40]	; 0x28
  402dee:	3301      	adds	r3, #1
  402df0:	9b11      	ldr	r3, [sp, #68]	; 0x44
  402df2:	f023 0320 	bic.w	r3, r3, #32
  402df6:	930e      	str	r3, [sp, #56]	; 0x38
  402df8:	f000 81e2 	beq.w	4031c0 <_svfprintf_r+0x1228>
  402dfc:	2b47      	cmp	r3, #71	; 0x47
  402dfe:	f000 811e 	beq.w	40303e <_svfprintf_r+0x10a6>
  402e02:	f44b 7380 	orr.w	r3, fp, #256	; 0x100
  402e06:	9307      	str	r3, [sp, #28]
  402e08:	9b14      	ldr	r3, [sp, #80]	; 0x50
  402e0a:	1e1f      	subs	r7, r3, #0
  402e0c:	9b15      	ldr	r3, [sp, #84]	; 0x54
  402e0e:	9308      	str	r3, [sp, #32]
  402e10:	bfbb      	ittet	lt
  402e12:	463b      	movlt	r3, r7
  402e14:	f103 4700 	addlt.w	r7, r3, #2147483648	; 0x80000000
  402e18:	2300      	movge	r3, #0
  402e1a:	232d      	movlt	r3, #45	; 0x2d
  402e1c:	9310      	str	r3, [sp, #64]	; 0x40
  402e1e:	9b11      	ldr	r3, [sp, #68]	; 0x44
  402e20:	2b66      	cmp	r3, #102	; 0x66
  402e22:	f000 81bb 	beq.w	40319c <_svfprintf_r+0x1204>
  402e26:	2b46      	cmp	r3, #70	; 0x46
  402e28:	f000 80df 	beq.w	402fea <_svfprintf_r+0x1052>
  402e2c:	9b0e      	ldr	r3, [sp, #56]	; 0x38
  402e2e:	9a08      	ldr	r2, [sp, #32]
  402e30:	2b45      	cmp	r3, #69	; 0x45
  402e32:	bf0c      	ite	eq
  402e34:	9b0a      	ldreq	r3, [sp, #40]	; 0x28
  402e36:	9d0a      	ldrne	r5, [sp, #40]	; 0x28
  402e38:	a823      	add	r0, sp, #140	; 0x8c
  402e3a:	a920      	add	r1, sp, #128	; 0x80
  402e3c:	bf08      	it	eq
  402e3e:	1c5d      	addeq	r5, r3, #1
  402e40:	9004      	str	r0, [sp, #16]
  402e42:	9103      	str	r1, [sp, #12]
  402e44:	a81f      	add	r0, sp, #124	; 0x7c
  402e46:	2102      	movs	r1, #2
  402e48:	463b      	mov	r3, r7
  402e4a:	9002      	str	r0, [sp, #8]
  402e4c:	9501      	str	r5, [sp, #4]
  402e4e:	9100      	str	r1, [sp, #0]
  402e50:	980c      	ldr	r0, [sp, #48]	; 0x30
  402e52:	f001 faa1 	bl	404398 <_dtoa_r>
  402e56:	9b11      	ldr	r3, [sp, #68]	; 0x44
  402e58:	2b67      	cmp	r3, #103	; 0x67
  402e5a:	4606      	mov	r6, r0
  402e5c:	f040 81e0 	bne.w	403220 <_svfprintf_r+0x1288>
  402e60:	f01b 0f01 	tst.w	fp, #1
  402e64:	f000 8246 	beq.w	4032f4 <_svfprintf_r+0x135c>
  402e68:	1974      	adds	r4, r6, r5
  402e6a:	9a16      	ldr	r2, [sp, #88]	; 0x58
  402e6c:	9808      	ldr	r0, [sp, #32]
  402e6e:	9b17      	ldr	r3, [sp, #92]	; 0x5c
  402e70:	4639      	mov	r1, r7
  402e72:	f004 fe8f 	bl	407b94 <__aeabi_dcmpeq>
  402e76:	2800      	cmp	r0, #0
  402e78:	f040 8165 	bne.w	403146 <_svfprintf_r+0x11ae>
  402e7c:	9b23      	ldr	r3, [sp, #140]	; 0x8c
  402e7e:	42a3      	cmp	r3, r4
  402e80:	d206      	bcs.n	402e90 <_svfprintf_r+0xef8>
  402e82:	2130      	movs	r1, #48	; 0x30
  402e84:	1c5a      	adds	r2, r3, #1
  402e86:	9223      	str	r2, [sp, #140]	; 0x8c
  402e88:	7019      	strb	r1, [r3, #0]
  402e8a:	9b23      	ldr	r3, [sp, #140]	; 0x8c
  402e8c:	429c      	cmp	r4, r3
  402e8e:	d8f9      	bhi.n	402e84 <_svfprintf_r+0xeec>
  402e90:	1b9b      	subs	r3, r3, r6
  402e92:	9313      	str	r3, [sp, #76]	; 0x4c
  402e94:	9b0e      	ldr	r3, [sp, #56]	; 0x38
  402e96:	2b47      	cmp	r3, #71	; 0x47
  402e98:	f000 80e9 	beq.w	40306e <_svfprintf_r+0x10d6>
  402e9c:	9b11      	ldr	r3, [sp, #68]	; 0x44
  402e9e:	2b65      	cmp	r3, #101	; 0x65
  402ea0:	f340 81cd 	ble.w	40323e <_svfprintf_r+0x12a6>
  402ea4:	9b11      	ldr	r3, [sp, #68]	; 0x44
  402ea6:	2b66      	cmp	r3, #102	; 0x66
  402ea8:	9b1f      	ldr	r3, [sp, #124]	; 0x7c
  402eaa:	9312      	str	r3, [sp, #72]	; 0x48
  402eac:	f000 819e 	beq.w	4031ec <_svfprintf_r+0x1254>
  402eb0:	9b13      	ldr	r3, [sp, #76]	; 0x4c
  402eb2:	9a12      	ldr	r2, [sp, #72]	; 0x48
  402eb4:	4619      	mov	r1, r3
  402eb6:	4291      	cmp	r1, r2
  402eb8:	f300 818a 	bgt.w	4031d0 <_svfprintf_r+0x1238>
  402ebc:	f01b 0f01 	tst.w	fp, #1
  402ec0:	f040 8213 	bne.w	4032ea <_svfprintf_r+0x1352>
  402ec4:	ea22 73e2 	bic.w	r3, r2, r2, asr #31
  402ec8:	9308      	str	r3, [sp, #32]
  402eca:	2367      	movs	r3, #103	; 0x67
  402ecc:	920e      	str	r2, [sp, #56]	; 0x38
  402ece:	9311      	str	r3, [sp, #68]	; 0x44
  402ed0:	9b10      	ldr	r3, [sp, #64]	; 0x40
  402ed2:	2b00      	cmp	r3, #0
  402ed4:	f040 80c4 	bne.w	403060 <_svfprintf_r+0x10c8>
  402ed8:	930a      	str	r3, [sp, #40]	; 0x28
  402eda:	f89d 7077 	ldrb.w	r7, [sp, #119]	; 0x77
  402ede:	f7ff b973 	b.w	4021c8 <_svfprintf_r+0x230>
  402ee2:	4635      	mov	r5, r6
  402ee4:	460c      	mov	r4, r1
  402ee6:	4646      	mov	r6, r8
  402ee8:	4690      	mov	r8, r2
  402eea:	3301      	adds	r3, #1
  402eec:	443c      	add	r4, r7
  402eee:	2b07      	cmp	r3, #7
  402ef0:	9427      	str	r4, [sp, #156]	; 0x9c
  402ef2:	9326      	str	r3, [sp, #152]	; 0x98
  402ef4:	e888 00a0 	stmia.w	r8, {r5, r7}
  402ef8:	f73f aed1 	bgt.w	402c9e <_svfprintf_r+0xd06>
  402efc:	f108 0808 	add.w	r8, r8, #8
  402f00:	e6d7      	b.n	402cb2 <_svfprintf_r+0xd1a>
  402f02:	9a0f      	ldr	r2, [sp, #60]	; 0x3c
  402f04:	6813      	ldr	r3, [r2, #0]
  402f06:	3204      	adds	r2, #4
  402f08:	920f      	str	r2, [sp, #60]	; 0x3c
  402f0a:	9a09      	ldr	r2, [sp, #36]	; 0x24
  402f0c:	601a      	str	r2, [r3, #0]
  402f0e:	f7ff b86a 	b.w	401fe6 <_svfprintf_r+0x4e>
  402f12:	aa25      	add	r2, sp, #148	; 0x94
  402f14:	990b      	ldr	r1, [sp, #44]	; 0x2c
  402f16:	980c      	ldr	r0, [sp, #48]	; 0x30
  402f18:	f003 ffa0 	bl	406e5c <__ssprint_r>
  402f1c:	2800      	cmp	r0, #0
  402f1e:	f47f a90d 	bne.w	40213c <_svfprintf_r+0x1a4>
  402f22:	46c8      	mov	r8, r9
  402f24:	e48d      	b.n	402842 <_svfprintf_r+0x8aa>
  402f26:	9b26      	ldr	r3, [sp, #152]	; 0x98
  402f28:	4a27      	ldr	r2, [pc, #156]	; (402fc8 <_svfprintf_r+0x1030>)
  402f2a:	f8c8 2000 	str.w	r2, [r8]
  402f2e:	3301      	adds	r3, #1
  402f30:	3401      	adds	r4, #1
  402f32:	2201      	movs	r2, #1
  402f34:	2b07      	cmp	r3, #7
  402f36:	9427      	str	r4, [sp, #156]	; 0x9c
  402f38:	9326      	str	r3, [sp, #152]	; 0x98
  402f3a:	f8c8 2004 	str.w	r2, [r8, #4]
  402f3e:	dc72      	bgt.n	403026 <_svfprintf_r+0x108e>
  402f40:	f108 0808 	add.w	r8, r8, #8
  402f44:	b929      	cbnz	r1, 402f52 <_svfprintf_r+0xfba>
  402f46:	9b13      	ldr	r3, [sp, #76]	; 0x4c
  402f48:	b91b      	cbnz	r3, 402f52 <_svfprintf_r+0xfba>
  402f4a:	9b07      	ldr	r3, [sp, #28]
  402f4c:	07d8      	lsls	r0, r3, #31
  402f4e:	f57f aa03 	bpl.w	402358 <_svfprintf_r+0x3c0>
  402f52:	9b26      	ldr	r3, [sp, #152]	; 0x98
  402f54:	9819      	ldr	r0, [sp, #100]	; 0x64
  402f56:	9a1a      	ldr	r2, [sp, #104]	; 0x68
  402f58:	f8c8 2000 	str.w	r2, [r8]
  402f5c:	3301      	adds	r3, #1
  402f5e:	4602      	mov	r2, r0
  402f60:	4422      	add	r2, r4
  402f62:	2b07      	cmp	r3, #7
  402f64:	9227      	str	r2, [sp, #156]	; 0x9c
  402f66:	f8c8 0004 	str.w	r0, [r8, #4]
  402f6a:	9326      	str	r3, [sp, #152]	; 0x98
  402f6c:	f300 818d 	bgt.w	40328a <_svfprintf_r+0x12f2>
  402f70:	f108 0808 	add.w	r8, r8, #8
  402f74:	2900      	cmp	r1, #0
  402f76:	f2c0 8165 	blt.w	403244 <_svfprintf_r+0x12ac>
  402f7a:	9913      	ldr	r1, [sp, #76]	; 0x4c
  402f7c:	f8c8 6000 	str.w	r6, [r8]
  402f80:	3301      	adds	r3, #1
  402f82:	188c      	adds	r4, r1, r2
  402f84:	2b07      	cmp	r3, #7
  402f86:	9427      	str	r4, [sp, #156]	; 0x9c
  402f88:	9326      	str	r3, [sp, #152]	; 0x98
  402f8a:	f8c8 1004 	str.w	r1, [r8, #4]
  402f8e:	f77f a9e1 	ble.w	402354 <_svfprintf_r+0x3bc>
  402f92:	e52c      	b.n	4029ee <_svfprintf_r+0xa56>
  402f94:	9a0f      	ldr	r2, [sp, #60]	; 0x3c
  402f96:	9909      	ldr	r1, [sp, #36]	; 0x24
  402f98:	6813      	ldr	r3, [r2, #0]
  402f9a:	17cd      	asrs	r5, r1, #31
  402f9c:	4608      	mov	r0, r1
  402f9e:	3204      	adds	r2, #4
  402fa0:	4629      	mov	r1, r5
  402fa2:	920f      	str	r2, [sp, #60]	; 0x3c
  402fa4:	e9c3 0100 	strd	r0, r1, [r3]
  402fa8:	f7ff b81d 	b.w	401fe6 <_svfprintf_r+0x4e>
  402fac:	aa25      	add	r2, sp, #148	; 0x94
  402fae:	990b      	ldr	r1, [sp, #44]	; 0x2c
  402fb0:	980c      	ldr	r0, [sp, #48]	; 0x30
  402fb2:	f003 ff53 	bl	406e5c <__ssprint_r>
  402fb6:	2800      	cmp	r0, #0
  402fb8:	f47f a8c0 	bne.w	40213c <_svfprintf_r+0x1a4>
  402fbc:	9c27      	ldr	r4, [sp, #156]	; 0x9c
  402fbe:	46c8      	mov	r8, r9
  402fc0:	e458      	b.n	402874 <_svfprintf_r+0x8dc>
  402fc2:	bf00      	nop
  402fc4:	00410ac8 	.word	0x00410ac8
  402fc8:	00410ab4 	.word	0x00410ab4
  402fcc:	2140      	movs	r1, #64	; 0x40
  402fce:	980c      	ldr	r0, [sp, #48]	; 0x30
  402fd0:	f002 fe56 	bl	405c80 <_malloc_r>
  402fd4:	9a0b      	ldr	r2, [sp, #44]	; 0x2c
  402fd6:	6010      	str	r0, [r2, #0]
  402fd8:	6110      	str	r0, [r2, #16]
  402fda:	2800      	cmp	r0, #0
  402fdc:	f000 81f2 	beq.w	4033c4 <_svfprintf_r+0x142c>
  402fe0:	9a0b      	ldr	r2, [sp, #44]	; 0x2c
  402fe2:	2340      	movs	r3, #64	; 0x40
  402fe4:	6153      	str	r3, [r2, #20]
  402fe6:	f7fe bfee 	b.w	401fc6 <_svfprintf_r+0x2e>
  402fea:	a823      	add	r0, sp, #140	; 0x8c
  402fec:	a920      	add	r1, sp, #128	; 0x80
  402fee:	9c0a      	ldr	r4, [sp, #40]	; 0x28
  402ff0:	9004      	str	r0, [sp, #16]
  402ff2:	9103      	str	r1, [sp, #12]
  402ff4:	a81f      	add	r0, sp, #124	; 0x7c
  402ff6:	2103      	movs	r1, #3
  402ff8:	9002      	str	r0, [sp, #8]
  402ffa:	9a08      	ldr	r2, [sp, #32]
  402ffc:	9401      	str	r4, [sp, #4]
  402ffe:	463b      	mov	r3, r7
  403000:	9100      	str	r1, [sp, #0]
  403002:	980c      	ldr	r0, [sp, #48]	; 0x30
  403004:	f001 f9c8 	bl	404398 <_dtoa_r>
  403008:	4625      	mov	r5, r4
  40300a:	4606      	mov	r6, r0
  40300c:	9b11      	ldr	r3, [sp, #68]	; 0x44
  40300e:	2b46      	cmp	r3, #70	; 0x46
  403010:	eb06 0405 	add.w	r4, r6, r5
  403014:	f47f af29 	bne.w	402e6a <_svfprintf_r+0xed2>
  403018:	7833      	ldrb	r3, [r6, #0]
  40301a:	2b30      	cmp	r3, #48	; 0x30
  40301c:	f000 8178 	beq.w	403310 <_svfprintf_r+0x1378>
  403020:	9d1f      	ldr	r5, [sp, #124]	; 0x7c
  403022:	442c      	add	r4, r5
  403024:	e721      	b.n	402e6a <_svfprintf_r+0xed2>
  403026:	aa25      	add	r2, sp, #148	; 0x94
  403028:	990b      	ldr	r1, [sp, #44]	; 0x2c
  40302a:	980c      	ldr	r0, [sp, #48]	; 0x30
  40302c:	f003 ff16 	bl	406e5c <__ssprint_r>
  403030:	2800      	cmp	r0, #0
  403032:	f47f a883 	bne.w	40213c <_svfprintf_r+0x1a4>
  403036:	991f      	ldr	r1, [sp, #124]	; 0x7c
  403038:	9c27      	ldr	r4, [sp, #156]	; 0x9c
  40303a:	46c8      	mov	r8, r9
  40303c:	e782      	b.n	402f44 <_svfprintf_r+0xfac>
  40303e:	9b0a      	ldr	r3, [sp, #40]	; 0x28
  403040:	2b00      	cmp	r3, #0
  403042:	bf08      	it	eq
  403044:	2301      	moveq	r3, #1
  403046:	930a      	str	r3, [sp, #40]	; 0x28
  403048:	e6db      	b.n	402e02 <_svfprintf_r+0xe6a>
  40304a:	4630      	mov	r0, r6
  40304c:	940a      	str	r4, [sp, #40]	; 0x28
  40304e:	f003 fe97 	bl	406d80 <strlen>
  403052:	950f      	str	r5, [sp, #60]	; 0x3c
  403054:	900e      	str	r0, [sp, #56]	; 0x38
  403056:	f8cd b01c 	str.w	fp, [sp, #28]
  40305a:	4603      	mov	r3, r0
  40305c:	f7ff b9f9 	b.w	402452 <_svfprintf_r+0x4ba>
  403060:	272d      	movs	r7, #45	; 0x2d
  403062:	2300      	movs	r3, #0
  403064:	f88d 7077 	strb.w	r7, [sp, #119]	; 0x77
  403068:	930a      	str	r3, [sp, #40]	; 0x28
  40306a:	f7ff b8ae 	b.w	4021ca <_svfprintf_r+0x232>
  40306e:	9b1f      	ldr	r3, [sp, #124]	; 0x7c
  403070:	9312      	str	r3, [sp, #72]	; 0x48
  403072:	461a      	mov	r2, r3
  403074:	3303      	adds	r3, #3
  403076:	db04      	blt.n	403082 <_svfprintf_r+0x10ea>
  403078:	9b0a      	ldr	r3, [sp, #40]	; 0x28
  40307a:	4619      	mov	r1, r3
  40307c:	4291      	cmp	r1, r2
  40307e:	f6bf af17 	bge.w	402eb0 <_svfprintf_r+0xf18>
  403082:	9b11      	ldr	r3, [sp, #68]	; 0x44
  403084:	3b02      	subs	r3, #2
  403086:	9311      	str	r3, [sp, #68]	; 0x44
  403088:	f89d 3044 	ldrb.w	r3, [sp, #68]	; 0x44
  40308c:	f88d 3084 	strb.w	r3, [sp, #132]	; 0x84
  403090:	9b12      	ldr	r3, [sp, #72]	; 0x48
  403092:	3b01      	subs	r3, #1
  403094:	2b00      	cmp	r3, #0
  403096:	931f      	str	r3, [sp, #124]	; 0x7c
  403098:	bfbd      	ittte	lt
  40309a:	9b12      	ldrlt	r3, [sp, #72]	; 0x48
  40309c:	f1c3 0301 	rsblt	r3, r3, #1
  4030a0:	222d      	movlt	r2, #45	; 0x2d
  4030a2:	222b      	movge	r2, #43	; 0x2b
  4030a4:	2b09      	cmp	r3, #9
  4030a6:	f88d 2085 	strb.w	r2, [sp, #133]	; 0x85
  4030aa:	f340 8116 	ble.w	4032da <_svfprintf_r+0x1342>
  4030ae:	f10d 0493 	add.w	r4, sp, #147	; 0x93
  4030b2:	4620      	mov	r0, r4
  4030b4:	4dab      	ldr	r5, [pc, #684]	; (403364 <_svfprintf_r+0x13cc>)
  4030b6:	e000      	b.n	4030ba <_svfprintf_r+0x1122>
  4030b8:	4610      	mov	r0, r2
  4030ba:	fb85 1203 	smull	r1, r2, r5, r3
  4030be:	17d9      	asrs	r1, r3, #31
  4030c0:	ebc1 01a2 	rsb	r1, r1, r2, asr #2
  4030c4:	eb01 0281 	add.w	r2, r1, r1, lsl #2
  4030c8:	eba3 0242 	sub.w	r2, r3, r2, lsl #1
  4030cc:	3230      	adds	r2, #48	; 0x30
  4030ce:	2909      	cmp	r1, #9
  4030d0:	f800 2c01 	strb.w	r2, [r0, #-1]
  4030d4:	460b      	mov	r3, r1
  4030d6:	f100 32ff 	add.w	r2, r0, #4294967295
  4030da:	dced      	bgt.n	4030b8 <_svfprintf_r+0x1120>
  4030dc:	3330      	adds	r3, #48	; 0x30
  4030de:	3802      	subs	r0, #2
  4030e0:	b2d9      	uxtb	r1, r3
  4030e2:	4284      	cmp	r4, r0
  4030e4:	f802 1c01 	strb.w	r1, [r2, #-1]
  4030e8:	f240 8165 	bls.w	4033b6 <_svfprintf_r+0x141e>
  4030ec:	f10d 0086 	add.w	r0, sp, #134	; 0x86
  4030f0:	4613      	mov	r3, r2
  4030f2:	e001      	b.n	4030f8 <_svfprintf_r+0x1160>
  4030f4:	f813 1b01 	ldrb.w	r1, [r3], #1
  4030f8:	f800 1b01 	strb.w	r1, [r0], #1
  4030fc:	42a3      	cmp	r3, r4
  4030fe:	d1f9      	bne.n	4030f4 <_svfprintf_r+0x115c>
  403100:	3301      	adds	r3, #1
  403102:	1a9b      	subs	r3, r3, r2
  403104:	f10d 0286 	add.w	r2, sp, #134	; 0x86
  403108:	4413      	add	r3, r2
  40310a:	aa21      	add	r2, sp, #132	; 0x84
  40310c:	1a9b      	subs	r3, r3, r2
  40310e:	9a13      	ldr	r2, [sp, #76]	; 0x4c
  403110:	931b      	str	r3, [sp, #108]	; 0x6c
  403112:	2a01      	cmp	r2, #1
  403114:	4413      	add	r3, r2
  403116:	930e      	str	r3, [sp, #56]	; 0x38
  403118:	f340 8119 	ble.w	40334e <_svfprintf_r+0x13b6>
  40311c:	9b0e      	ldr	r3, [sp, #56]	; 0x38
  40311e:	9a19      	ldr	r2, [sp, #100]	; 0x64
  403120:	4413      	add	r3, r2
  403122:	930e      	str	r3, [sp, #56]	; 0x38
  403124:	ea23 73e3 	bic.w	r3, r3, r3, asr #31
  403128:	9308      	str	r3, [sp, #32]
  40312a:	2300      	movs	r3, #0
  40312c:	9312      	str	r3, [sp, #72]	; 0x48
  40312e:	e6cf      	b.n	402ed0 <_svfprintf_r+0xf38>
  403130:	aa25      	add	r2, sp, #148	; 0x94
  403132:	990b      	ldr	r1, [sp, #44]	; 0x2c
  403134:	980c      	ldr	r0, [sp, #48]	; 0x30
  403136:	f003 fe91 	bl	406e5c <__ssprint_r>
  40313a:	2800      	cmp	r0, #0
  40313c:	f47e affe 	bne.w	40213c <_svfprintf_r+0x1a4>
  403140:	9c27      	ldr	r4, [sp, #156]	; 0x9c
  403142:	46c8      	mov	r8, r9
  403144:	e4d7      	b.n	402af6 <_svfprintf_r+0xb5e>
  403146:	4623      	mov	r3, r4
  403148:	e6a2      	b.n	402e90 <_svfprintf_r+0xef8>
  40314a:	aa25      	add	r2, sp, #148	; 0x94
  40314c:	990b      	ldr	r1, [sp, #44]	; 0x2c
  40314e:	980c      	ldr	r0, [sp, #48]	; 0x30
  403150:	f003 fe84 	bl	406e5c <__ssprint_r>
  403154:	2800      	cmp	r0, #0
  403156:	f47e aff1 	bne.w	40213c <_svfprintf_r+0x1a4>
  40315a:	9a1f      	ldr	r2, [sp, #124]	; 0x7c
  40315c:	9c27      	ldr	r4, [sp, #156]	; 0x9c
  40315e:	46c8      	mov	r8, r9
  403160:	e5ae      	b.n	402cc0 <_svfprintf_r+0xd28>
  403162:	aa25      	add	r2, sp, #148	; 0x94
  403164:	990b      	ldr	r1, [sp, #44]	; 0x2c
  403166:	980c      	ldr	r0, [sp, #48]	; 0x30
  403168:	f003 fe78 	bl	406e5c <__ssprint_r>
  40316c:	2800      	cmp	r0, #0
  40316e:	f47e afe5 	bne.w	40213c <_svfprintf_r+0x1a4>
  403172:	9a1f      	ldr	r2, [sp, #124]	; 0x7c
  403174:	9b13      	ldr	r3, [sp, #76]	; 0x4c
  403176:	9c27      	ldr	r4, [sp, #156]	; 0x9c
  403178:	1a9a      	subs	r2, r3, r2
  40317a:	46c8      	mov	r8, r9
  40317c:	e5b8      	b.n	402cf0 <_svfprintf_r+0xd58>
  40317e:	9b0a      	ldr	r3, [sp, #40]	; 0x28
  403180:	9612      	str	r6, [sp, #72]	; 0x48
  403182:	2b06      	cmp	r3, #6
  403184:	bf28      	it	cs
  403186:	2306      	movcs	r3, #6
  403188:	960a      	str	r6, [sp, #40]	; 0x28
  40318a:	4637      	mov	r7, r6
  40318c:	9308      	str	r3, [sp, #32]
  40318e:	950f      	str	r5, [sp, #60]	; 0x3c
  403190:	f8cd b01c 	str.w	fp, [sp, #28]
  403194:	930e      	str	r3, [sp, #56]	; 0x38
  403196:	4e74      	ldr	r6, [pc, #464]	; (403368 <_svfprintf_r+0x13d0>)
  403198:	f7ff b816 	b.w	4021c8 <_svfprintf_r+0x230>
  40319c:	a823      	add	r0, sp, #140	; 0x8c
  40319e:	a920      	add	r1, sp, #128	; 0x80
  4031a0:	9d0a      	ldr	r5, [sp, #40]	; 0x28
  4031a2:	9004      	str	r0, [sp, #16]
  4031a4:	9103      	str	r1, [sp, #12]
  4031a6:	a81f      	add	r0, sp, #124	; 0x7c
  4031a8:	2103      	movs	r1, #3
  4031aa:	9002      	str	r0, [sp, #8]
  4031ac:	9a08      	ldr	r2, [sp, #32]
  4031ae:	9501      	str	r5, [sp, #4]
  4031b0:	463b      	mov	r3, r7
  4031b2:	9100      	str	r1, [sp, #0]
  4031b4:	980c      	ldr	r0, [sp, #48]	; 0x30
  4031b6:	f001 f8ef 	bl	404398 <_dtoa_r>
  4031ba:	4606      	mov	r6, r0
  4031bc:	1944      	adds	r4, r0, r5
  4031be:	e72b      	b.n	403018 <_svfprintf_r+0x1080>
  4031c0:	2306      	movs	r3, #6
  4031c2:	930a      	str	r3, [sp, #40]	; 0x28
  4031c4:	e61d      	b.n	402e02 <_svfprintf_r+0xe6a>
  4031c6:	272d      	movs	r7, #45	; 0x2d
  4031c8:	f88d 7077 	strb.w	r7, [sp, #119]	; 0x77
  4031cc:	f7ff bacd 	b.w	40276a <_svfprintf_r+0x7d2>
  4031d0:	9a19      	ldr	r2, [sp, #100]	; 0x64
  4031d2:	9b13      	ldr	r3, [sp, #76]	; 0x4c
  4031d4:	4413      	add	r3, r2
  4031d6:	9a12      	ldr	r2, [sp, #72]	; 0x48
  4031d8:	930e      	str	r3, [sp, #56]	; 0x38
  4031da:	2a00      	cmp	r2, #0
  4031dc:	f340 80b0 	ble.w	403340 <_svfprintf_r+0x13a8>
  4031e0:	ea23 73e3 	bic.w	r3, r3, r3, asr #31
  4031e4:	9308      	str	r3, [sp, #32]
  4031e6:	2367      	movs	r3, #103	; 0x67
  4031e8:	9311      	str	r3, [sp, #68]	; 0x44
  4031ea:	e671      	b.n	402ed0 <_svfprintf_r+0xf38>
  4031ec:	2b00      	cmp	r3, #0
  4031ee:	f340 80c3 	ble.w	403378 <_svfprintf_r+0x13e0>
  4031f2:	9a0a      	ldr	r2, [sp, #40]	; 0x28
  4031f4:	2a00      	cmp	r2, #0
  4031f6:	f040 8099 	bne.w	40332c <_svfprintf_r+0x1394>
  4031fa:	f01b 0f01 	tst.w	fp, #1
  4031fe:	f040 8095 	bne.w	40332c <_svfprintf_r+0x1394>
  403202:	9308      	str	r3, [sp, #32]
  403204:	930e      	str	r3, [sp, #56]	; 0x38
  403206:	e663      	b.n	402ed0 <_svfprintf_r+0xf38>
  403208:	9b0a      	ldr	r3, [sp, #40]	; 0x28
  40320a:	9308      	str	r3, [sp, #32]
  40320c:	930e      	str	r3, [sp, #56]	; 0x38
  40320e:	900a      	str	r0, [sp, #40]	; 0x28
  403210:	950f      	str	r5, [sp, #60]	; 0x3c
  403212:	f8cd b01c 	str.w	fp, [sp, #28]
  403216:	9012      	str	r0, [sp, #72]	; 0x48
  403218:	f89d 7077 	ldrb.w	r7, [sp, #119]	; 0x77
  40321c:	f7fe bfd4 	b.w	4021c8 <_svfprintf_r+0x230>
  403220:	9b11      	ldr	r3, [sp, #68]	; 0x44
  403222:	2b47      	cmp	r3, #71	; 0x47
  403224:	f47f ae20 	bne.w	402e68 <_svfprintf_r+0xed0>
  403228:	f01b 0f01 	tst.w	fp, #1
  40322c:	f47f aeee 	bne.w	40300c <_svfprintf_r+0x1074>
  403230:	9b23      	ldr	r3, [sp, #140]	; 0x8c
  403232:	1b9b      	subs	r3, r3, r6
  403234:	9313      	str	r3, [sp, #76]	; 0x4c
  403236:	9b0e      	ldr	r3, [sp, #56]	; 0x38
  403238:	2b47      	cmp	r3, #71	; 0x47
  40323a:	f43f af18 	beq.w	40306e <_svfprintf_r+0x10d6>
  40323e:	9b1f      	ldr	r3, [sp, #124]	; 0x7c
  403240:	9312      	str	r3, [sp, #72]	; 0x48
  403242:	e721      	b.n	403088 <_svfprintf_r+0x10f0>
  403244:	424f      	negs	r7, r1
  403246:	3110      	adds	r1, #16
  403248:	4d48      	ldr	r5, [pc, #288]	; (40336c <_svfprintf_r+0x13d4>)
  40324a:	da2f      	bge.n	4032ac <_svfprintf_r+0x1314>
  40324c:	2410      	movs	r4, #16
  40324e:	f8dd b030 	ldr.w	fp, [sp, #48]	; 0x30
  403252:	e004      	b.n	40325e <_svfprintf_r+0x12c6>
  403254:	f108 0808 	add.w	r8, r8, #8
  403258:	3f10      	subs	r7, #16
  40325a:	2f10      	cmp	r7, #16
  40325c:	dd26      	ble.n	4032ac <_svfprintf_r+0x1314>
  40325e:	3301      	adds	r3, #1
  403260:	3210      	adds	r2, #16
  403262:	2b07      	cmp	r3, #7
  403264:	9227      	str	r2, [sp, #156]	; 0x9c
  403266:	9326      	str	r3, [sp, #152]	; 0x98
  403268:	f8c8 5000 	str.w	r5, [r8]
  40326c:	f8c8 4004 	str.w	r4, [r8, #4]
  403270:	ddf0      	ble.n	403254 <_svfprintf_r+0x12bc>
  403272:	aa25      	add	r2, sp, #148	; 0x94
  403274:	990b      	ldr	r1, [sp, #44]	; 0x2c
  403276:	4658      	mov	r0, fp
  403278:	f003 fdf0 	bl	406e5c <__ssprint_r>
  40327c:	2800      	cmp	r0, #0
  40327e:	f47e af5d 	bne.w	40213c <_svfprintf_r+0x1a4>
  403282:	9a27      	ldr	r2, [sp, #156]	; 0x9c
  403284:	9b26      	ldr	r3, [sp, #152]	; 0x98
  403286:	46c8      	mov	r8, r9
  403288:	e7e6      	b.n	403258 <_svfprintf_r+0x12c0>
  40328a:	aa25      	add	r2, sp, #148	; 0x94
  40328c:	990b      	ldr	r1, [sp, #44]	; 0x2c
  40328e:	980c      	ldr	r0, [sp, #48]	; 0x30
  403290:	f003 fde4 	bl	406e5c <__ssprint_r>
  403294:	2800      	cmp	r0, #0
  403296:	f47e af51 	bne.w	40213c <_svfprintf_r+0x1a4>
  40329a:	991f      	ldr	r1, [sp, #124]	; 0x7c
  40329c:	9a27      	ldr	r2, [sp, #156]	; 0x9c
  40329e:	9b26      	ldr	r3, [sp, #152]	; 0x98
  4032a0:	46c8      	mov	r8, r9
  4032a2:	e667      	b.n	402f74 <_svfprintf_r+0xfdc>
  4032a4:	2000      	movs	r0, #0
  4032a6:	900a      	str	r0, [sp, #40]	; 0x28
  4032a8:	f7fe bed0 	b.w	40204c <_svfprintf_r+0xb4>
  4032ac:	3301      	adds	r3, #1
  4032ae:	443a      	add	r2, r7
  4032b0:	2b07      	cmp	r3, #7
  4032b2:	e888 00a0 	stmia.w	r8, {r5, r7}
  4032b6:	9227      	str	r2, [sp, #156]	; 0x9c
  4032b8:	9326      	str	r3, [sp, #152]	; 0x98
  4032ba:	f108 0808 	add.w	r8, r8, #8
  4032be:	f77f ae5c 	ble.w	402f7a <_svfprintf_r+0xfe2>
  4032c2:	aa25      	add	r2, sp, #148	; 0x94
  4032c4:	990b      	ldr	r1, [sp, #44]	; 0x2c
  4032c6:	980c      	ldr	r0, [sp, #48]	; 0x30
  4032c8:	f003 fdc8 	bl	406e5c <__ssprint_r>
  4032cc:	2800      	cmp	r0, #0
  4032ce:	f47e af35 	bne.w	40213c <_svfprintf_r+0x1a4>
  4032d2:	9a27      	ldr	r2, [sp, #156]	; 0x9c
  4032d4:	9b26      	ldr	r3, [sp, #152]	; 0x98
  4032d6:	46c8      	mov	r8, r9
  4032d8:	e64f      	b.n	402f7a <_svfprintf_r+0xfe2>
  4032da:	3330      	adds	r3, #48	; 0x30
  4032dc:	2230      	movs	r2, #48	; 0x30
  4032de:	f88d 3087 	strb.w	r3, [sp, #135]	; 0x87
  4032e2:	f88d 2086 	strb.w	r2, [sp, #134]	; 0x86
  4032e6:	ab22      	add	r3, sp, #136	; 0x88
  4032e8:	e70f      	b.n	40310a <_svfprintf_r+0x1172>
  4032ea:	9b12      	ldr	r3, [sp, #72]	; 0x48
  4032ec:	9a19      	ldr	r2, [sp, #100]	; 0x64
  4032ee:	4413      	add	r3, r2
  4032f0:	930e      	str	r3, [sp, #56]	; 0x38
  4032f2:	e775      	b.n	4031e0 <_svfprintf_r+0x1248>
  4032f4:	9b23      	ldr	r3, [sp, #140]	; 0x8c
  4032f6:	e5cb      	b.n	402e90 <_svfprintf_r+0xef8>
  4032f8:	9b14      	ldr	r3, [sp, #80]	; 0x50
  4032fa:	4e1d      	ldr	r6, [pc, #116]	; (403370 <_svfprintf_r+0x13d8>)
  4032fc:	2b00      	cmp	r3, #0
  4032fe:	bfb6      	itet	lt
  403300:	272d      	movlt	r7, #45	; 0x2d
  403302:	f89d 7077 	ldrbge.w	r7, [sp, #119]	; 0x77
  403306:	f88d 7077 	strblt.w	r7, [sp, #119]	; 0x77
  40330a:	4b1a      	ldr	r3, [pc, #104]	; (403374 <_svfprintf_r+0x13dc>)
  40330c:	f7ff ba2f 	b.w	40276e <_svfprintf_r+0x7d6>
  403310:	9a16      	ldr	r2, [sp, #88]	; 0x58
  403312:	9808      	ldr	r0, [sp, #32]
  403314:	9b17      	ldr	r3, [sp, #92]	; 0x5c
  403316:	4639      	mov	r1, r7
  403318:	f004 fc3c 	bl	407b94 <__aeabi_dcmpeq>
  40331c:	2800      	cmp	r0, #0
  40331e:	f47f ae7f 	bne.w	403020 <_svfprintf_r+0x1088>
  403322:	f1c5 0501 	rsb	r5, r5, #1
  403326:	951f      	str	r5, [sp, #124]	; 0x7c
  403328:	442c      	add	r4, r5
  40332a:	e59e      	b.n	402e6a <_svfprintf_r+0xed2>
  40332c:	9b12      	ldr	r3, [sp, #72]	; 0x48
  40332e:	9a19      	ldr	r2, [sp, #100]	; 0x64
  403330:	4413      	add	r3, r2
  403332:	9a0a      	ldr	r2, [sp, #40]	; 0x28
  403334:	441a      	add	r2, r3
  403336:	ea22 73e2 	bic.w	r3, r2, r2, asr #31
  40333a:	920e      	str	r2, [sp, #56]	; 0x38
  40333c:	9308      	str	r3, [sp, #32]
  40333e:	e5c7      	b.n	402ed0 <_svfprintf_r+0xf38>
  403340:	9b12      	ldr	r3, [sp, #72]	; 0x48
  403342:	9a0e      	ldr	r2, [sp, #56]	; 0x38
  403344:	f1c3 0301 	rsb	r3, r3, #1
  403348:	441a      	add	r2, r3
  40334a:	4613      	mov	r3, r2
  40334c:	e7d0      	b.n	4032f0 <_svfprintf_r+0x1358>
  40334e:	f01b 0301 	ands.w	r3, fp, #1
  403352:	9312      	str	r3, [sp, #72]	; 0x48
  403354:	f47f aee2 	bne.w	40311c <_svfprintf_r+0x1184>
  403358:	9b0e      	ldr	r3, [sp, #56]	; 0x38
  40335a:	ea23 73e3 	bic.w	r3, r3, r3, asr #31
  40335e:	9308      	str	r3, [sp, #32]
  403360:	e5b6      	b.n	402ed0 <_svfprintf_r+0xf38>
  403362:	bf00      	nop
  403364:	66666667 	.word	0x66666667
  403368:	00410aac 	.word	0x00410aac
  40336c:	00410ac8 	.word	0x00410ac8
  403370:	00410a80 	.word	0x00410a80
  403374:	00410a7c 	.word	0x00410a7c
  403378:	9b0a      	ldr	r3, [sp, #40]	; 0x28
  40337a:	b913      	cbnz	r3, 403382 <_svfprintf_r+0x13ea>
  40337c:	f01b 0f01 	tst.w	fp, #1
  403380:	d002      	beq.n	403388 <_svfprintf_r+0x13f0>
  403382:	9b19      	ldr	r3, [sp, #100]	; 0x64
  403384:	3301      	adds	r3, #1
  403386:	e7d4      	b.n	403332 <_svfprintf_r+0x139a>
  403388:	2301      	movs	r3, #1
  40338a:	e73a      	b.n	403202 <_svfprintf_r+0x126a>
  40338c:	9d0f      	ldr	r5, [sp, #60]	; 0x3c
  40338e:	f89a 3001 	ldrb.w	r3, [sl, #1]
  403392:	6828      	ldr	r0, [r5, #0]
  403394:	ea40 70e0 	orr.w	r0, r0, r0, asr #31
  403398:	900a      	str	r0, [sp, #40]	; 0x28
  40339a:	4628      	mov	r0, r5
  40339c:	3004      	adds	r0, #4
  40339e:	46a2      	mov	sl, r4
  4033a0:	900f      	str	r0, [sp, #60]	; 0x3c
  4033a2:	f7fe be51 	b.w	402048 <_svfprintf_r+0xb0>
  4033a6:	f88d 1077 	strb.w	r1, [sp, #119]	; 0x77
  4033aa:	f7ff b867 	b.w	40247c <_svfprintf_r+0x4e4>
  4033ae:	f88d 1077 	strb.w	r1, [sp, #119]	; 0x77
  4033b2:	f7ff ba15 	b.w	4027e0 <_svfprintf_r+0x848>
  4033b6:	f10d 0386 	add.w	r3, sp, #134	; 0x86
  4033ba:	e6a6      	b.n	40310a <_svfprintf_r+0x1172>
  4033bc:	f88d 1077 	strb.w	r1, [sp, #119]	; 0x77
  4033c0:	f7ff b8eb 	b.w	40259a <_svfprintf_r+0x602>
  4033c4:	9a0c      	ldr	r2, [sp, #48]	; 0x30
  4033c6:	230c      	movs	r3, #12
  4033c8:	6013      	str	r3, [r2, #0]
  4033ca:	f04f 33ff 	mov.w	r3, #4294967295
  4033ce:	9309      	str	r3, [sp, #36]	; 0x24
  4033d0:	f7fe bebd 	b.w	40214e <_svfprintf_r+0x1b6>
  4033d4:	f88d 1077 	strb.w	r1, [sp, #119]	; 0x77
  4033d8:	f7ff b99a 	b.w	402710 <_svfprintf_r+0x778>
  4033dc:	f88d 1077 	strb.w	r1, [sp, #119]	; 0x77
  4033e0:	f7ff b976 	b.w	4026d0 <_svfprintf_r+0x738>
  4033e4:	f88d 1077 	strb.w	r1, [sp, #119]	; 0x77
  4033e8:	f7ff b959 	b.w	40269e <_svfprintf_r+0x706>
  4033ec:	f88d 1077 	strb.w	r1, [sp, #119]	; 0x77
  4033f0:	f7ff b912 	b.w	402618 <_svfprintf_r+0x680>

004033f4 <__sprint_r.part.0>:
  4033f4:	e92d 4ff8 	stmdb	sp!, {r3, r4, r5, r6, r7, r8, r9, sl, fp, lr}
  4033f8:	6e4b      	ldr	r3, [r1, #100]	; 0x64
  4033fa:	049c      	lsls	r4, r3, #18
  4033fc:	4693      	mov	fp, r2
  4033fe:	d52f      	bpl.n	403460 <__sprint_r.part.0+0x6c>
  403400:	6893      	ldr	r3, [r2, #8]
  403402:	6812      	ldr	r2, [r2, #0]
  403404:	b353      	cbz	r3, 40345c <__sprint_r.part.0+0x68>
  403406:	460e      	mov	r6, r1
  403408:	4607      	mov	r7, r0
  40340a:	f102 0908 	add.w	r9, r2, #8
  40340e:	e919 0420 	ldmdb	r9, {r5, sl}
  403412:	ea5f 089a 	movs.w	r8, sl, lsr #2
  403416:	d017      	beq.n	403448 <__sprint_r.part.0+0x54>
  403418:	3d04      	subs	r5, #4
  40341a:	2400      	movs	r4, #0
  40341c:	e001      	b.n	403422 <__sprint_r.part.0+0x2e>
  40341e:	45a0      	cmp	r8, r4
  403420:	d010      	beq.n	403444 <__sprint_r.part.0+0x50>
  403422:	4632      	mov	r2, r6
  403424:	f855 1f04 	ldr.w	r1, [r5, #4]!
  403428:	4638      	mov	r0, r7
  40342a:	f002 f879 	bl	405520 <_fputwc_r>
  40342e:	1c43      	adds	r3, r0, #1
  403430:	f104 0401 	add.w	r4, r4, #1
  403434:	d1f3      	bne.n	40341e <__sprint_r.part.0+0x2a>
  403436:	2300      	movs	r3, #0
  403438:	f8cb 3008 	str.w	r3, [fp, #8]
  40343c:	f8cb 3004 	str.w	r3, [fp, #4]
  403440:	e8bd 8ff8 	ldmia.w	sp!, {r3, r4, r5, r6, r7, r8, r9, sl, fp, pc}
  403444:	f8db 3008 	ldr.w	r3, [fp, #8]
  403448:	f02a 0a03 	bic.w	sl, sl, #3
  40344c:	eba3 030a 	sub.w	r3, r3, sl
  403450:	f8cb 3008 	str.w	r3, [fp, #8]
  403454:	f109 0908 	add.w	r9, r9, #8
  403458:	2b00      	cmp	r3, #0
  40345a:	d1d8      	bne.n	40340e <__sprint_r.part.0+0x1a>
  40345c:	2000      	movs	r0, #0
  40345e:	e7ea      	b.n	403436 <__sprint_r.part.0+0x42>
  403460:	f002 f9c8 	bl	4057f4 <__sfvwrite_r>
  403464:	2300      	movs	r3, #0
  403466:	f8cb 3008 	str.w	r3, [fp, #8]
  40346a:	f8cb 3004 	str.w	r3, [fp, #4]
  40346e:	e8bd 8ff8 	ldmia.w	sp!, {r3, r4, r5, r6, r7, r8, r9, sl, fp, pc}
  403472:	bf00      	nop

00403474 <_vfiprintf_r>:
  403474:	e92d 4ff0 	stmdb	sp!, {r4, r5, r6, r7, r8, r9, sl, fp, lr}
  403478:	b0ad      	sub	sp, #180	; 0xb4
  40347a:	461d      	mov	r5, r3
  40347c:	468b      	mov	fp, r1
  40347e:	4690      	mov	r8, r2
  403480:	9307      	str	r3, [sp, #28]
  403482:	9006      	str	r0, [sp, #24]
  403484:	b118      	cbz	r0, 40348e <_vfiprintf_r+0x1a>
  403486:	6b83      	ldr	r3, [r0, #56]	; 0x38
  403488:	2b00      	cmp	r3, #0
  40348a:	f000 80f3 	beq.w	403674 <_vfiprintf_r+0x200>
  40348e:	f8db 3064 	ldr.w	r3, [fp, #100]	; 0x64
  403492:	f9bb 000c 	ldrsh.w	r0, [fp, #12]
  403496:	07df      	lsls	r7, r3, #31
  403498:	b281      	uxth	r1, r0
  40349a:	d402      	bmi.n	4034a2 <_vfiprintf_r+0x2e>
  40349c:	058e      	lsls	r6, r1, #22
  40349e:	f140 80fc 	bpl.w	40369a <_vfiprintf_r+0x226>
  4034a2:	048c      	lsls	r4, r1, #18
  4034a4:	d40a      	bmi.n	4034bc <_vfiprintf_r+0x48>
  4034a6:	f8db 3064 	ldr.w	r3, [fp, #100]	; 0x64
  4034aa:	f440 5100 	orr.w	r1, r0, #8192	; 0x2000
  4034ae:	f423 5300 	bic.w	r3, r3, #8192	; 0x2000
  4034b2:	f8ab 100c 	strh.w	r1, [fp, #12]
  4034b6:	f8cb 3064 	str.w	r3, [fp, #100]	; 0x64
  4034ba:	b289      	uxth	r1, r1
  4034bc:	0708      	lsls	r0, r1, #28
  4034be:	f140 80b3 	bpl.w	403628 <_vfiprintf_r+0x1b4>
  4034c2:	f8db 3010 	ldr.w	r3, [fp, #16]
  4034c6:	2b00      	cmp	r3, #0
  4034c8:	f000 80ae 	beq.w	403628 <_vfiprintf_r+0x1b4>
  4034cc:	f001 031a 	and.w	r3, r1, #26
  4034d0:	2b0a      	cmp	r3, #10
  4034d2:	f000 80b5 	beq.w	403640 <_vfiprintf_r+0x1cc>
  4034d6:	2300      	movs	r3, #0
  4034d8:	f10d 0970 	add.w	r9, sp, #112	; 0x70
  4034dc:	930b      	str	r3, [sp, #44]	; 0x2c
  4034de:	9311      	str	r3, [sp, #68]	; 0x44
  4034e0:	9310      	str	r3, [sp, #64]	; 0x40
  4034e2:	9303      	str	r3, [sp, #12]
  4034e4:	f8cd 903c 	str.w	r9, [sp, #60]	; 0x3c
  4034e8:	46ca      	mov	sl, r9
  4034ea:	f8cd b010 	str.w	fp, [sp, #16]
  4034ee:	f898 3000 	ldrb.w	r3, [r8]
  4034f2:	4644      	mov	r4, r8
  4034f4:	b1fb      	cbz	r3, 403536 <_vfiprintf_r+0xc2>
  4034f6:	2b25      	cmp	r3, #37	; 0x25
  4034f8:	d102      	bne.n	403500 <_vfiprintf_r+0x8c>
  4034fa:	e01c      	b.n	403536 <_vfiprintf_r+0xc2>
  4034fc:	2b25      	cmp	r3, #37	; 0x25
  4034fe:	d003      	beq.n	403508 <_vfiprintf_r+0x94>
  403500:	f814 3f01 	ldrb.w	r3, [r4, #1]!
  403504:	2b00      	cmp	r3, #0
  403506:	d1f9      	bne.n	4034fc <_vfiprintf_r+0x88>
  403508:	eba4 0508 	sub.w	r5, r4, r8
  40350c:	b19d      	cbz	r5, 403536 <_vfiprintf_r+0xc2>
  40350e:	9b10      	ldr	r3, [sp, #64]	; 0x40
  403510:	9a11      	ldr	r2, [sp, #68]	; 0x44
  403512:	f8ca 8000 	str.w	r8, [sl]
  403516:	3301      	adds	r3, #1
  403518:	442a      	add	r2, r5
  40351a:	2b07      	cmp	r3, #7
  40351c:	f8ca 5004 	str.w	r5, [sl, #4]
  403520:	9211      	str	r2, [sp, #68]	; 0x44
  403522:	9310      	str	r3, [sp, #64]	; 0x40
  403524:	dd7a      	ble.n	40361c <_vfiprintf_r+0x1a8>
  403526:	2a00      	cmp	r2, #0
  403528:	f040 84b0 	bne.w	403e8c <_vfiprintf_r+0xa18>
  40352c:	9b03      	ldr	r3, [sp, #12]
  40352e:	9210      	str	r2, [sp, #64]	; 0x40
  403530:	442b      	add	r3, r5
  403532:	46ca      	mov	sl, r9
  403534:	9303      	str	r3, [sp, #12]
  403536:	7823      	ldrb	r3, [r4, #0]
  403538:	2b00      	cmp	r3, #0
  40353a:	f000 83e0 	beq.w	403cfe <_vfiprintf_r+0x88a>
  40353e:	2000      	movs	r0, #0
  403540:	f04f 0300 	mov.w	r3, #0
  403544:	f88d 3037 	strb.w	r3, [sp, #55]	; 0x37
  403548:	f104 0801 	add.w	r8, r4, #1
  40354c:	7862      	ldrb	r2, [r4, #1]
  40354e:	4605      	mov	r5, r0
  403550:	4606      	mov	r6, r0
  403552:	4603      	mov	r3, r0
  403554:	f04f 34ff 	mov.w	r4, #4294967295
  403558:	f108 0801 	add.w	r8, r8, #1
  40355c:	f1a2 0120 	sub.w	r1, r2, #32
  403560:	2958      	cmp	r1, #88	; 0x58
  403562:	f200 82de 	bhi.w	403b22 <_vfiprintf_r+0x6ae>
  403566:	e8df f011 	tbh	[pc, r1, lsl #1]
  40356a:	0221      	.short	0x0221
  40356c:	02dc02dc 	.word	0x02dc02dc
  403570:	02dc0229 	.word	0x02dc0229
  403574:	02dc02dc 	.word	0x02dc02dc
  403578:	02dc02dc 	.word	0x02dc02dc
  40357c:	028902dc 	.word	0x028902dc
  403580:	02dc0295 	.word	0x02dc0295
  403584:	02bd00a2 	.word	0x02bd00a2
  403588:	019f02dc 	.word	0x019f02dc
  40358c:	01a401a4 	.word	0x01a401a4
  403590:	01a401a4 	.word	0x01a401a4
  403594:	01a401a4 	.word	0x01a401a4
  403598:	01a401a4 	.word	0x01a401a4
  40359c:	02dc01a4 	.word	0x02dc01a4
  4035a0:	02dc02dc 	.word	0x02dc02dc
  4035a4:	02dc02dc 	.word	0x02dc02dc
  4035a8:	02dc02dc 	.word	0x02dc02dc
  4035ac:	02dc02dc 	.word	0x02dc02dc
  4035b0:	01b202dc 	.word	0x01b202dc
  4035b4:	02dc02dc 	.word	0x02dc02dc
  4035b8:	02dc02dc 	.word	0x02dc02dc
  4035bc:	02dc02dc 	.word	0x02dc02dc
  4035c0:	02dc02dc 	.word	0x02dc02dc
  4035c4:	02dc02dc 	.word	0x02dc02dc
  4035c8:	02dc0197 	.word	0x02dc0197
  4035cc:	02dc02dc 	.word	0x02dc02dc
  4035d0:	02dc02dc 	.word	0x02dc02dc
  4035d4:	02dc019b 	.word	0x02dc019b
  4035d8:	025302dc 	.word	0x025302dc
  4035dc:	02dc02dc 	.word	0x02dc02dc
  4035e0:	02dc02dc 	.word	0x02dc02dc
  4035e4:	02dc02dc 	.word	0x02dc02dc
  4035e8:	02dc02dc 	.word	0x02dc02dc
  4035ec:	02dc02dc 	.word	0x02dc02dc
  4035f0:	021b025a 	.word	0x021b025a
  4035f4:	02dc02dc 	.word	0x02dc02dc
  4035f8:	026e02dc 	.word	0x026e02dc
  4035fc:	02dc021b 	.word	0x02dc021b
  403600:	027302dc 	.word	0x027302dc
  403604:	01f502dc 	.word	0x01f502dc
  403608:	02090182 	.word	0x02090182
  40360c:	02dc02d7 	.word	0x02dc02d7
  403610:	02dc029a 	.word	0x02dc029a
  403614:	02dc00a7 	.word	0x02dc00a7
  403618:	022e02dc 	.word	0x022e02dc
  40361c:	f10a 0a08 	add.w	sl, sl, #8
  403620:	9b03      	ldr	r3, [sp, #12]
  403622:	442b      	add	r3, r5
  403624:	9303      	str	r3, [sp, #12]
  403626:	e786      	b.n	403536 <_vfiprintf_r+0xc2>
  403628:	4659      	mov	r1, fp
  40362a:	9806      	ldr	r0, [sp, #24]
  40362c:	f000 fdac 	bl	404188 <__swsetup_r>
  403630:	bb18      	cbnz	r0, 40367a <_vfiprintf_r+0x206>
  403632:	f8bb 100c 	ldrh.w	r1, [fp, #12]
  403636:	f001 031a 	and.w	r3, r1, #26
  40363a:	2b0a      	cmp	r3, #10
  40363c:	f47f af4b 	bne.w	4034d6 <_vfiprintf_r+0x62>
  403640:	f9bb 300e 	ldrsh.w	r3, [fp, #14]
  403644:	2b00      	cmp	r3, #0
  403646:	f6ff af46 	blt.w	4034d6 <_vfiprintf_r+0x62>
  40364a:	f8db 3064 	ldr.w	r3, [fp, #100]	; 0x64
  40364e:	07db      	lsls	r3, r3, #31
  403650:	d405      	bmi.n	40365e <_vfiprintf_r+0x1ea>
  403652:	058f      	lsls	r7, r1, #22
  403654:	d403      	bmi.n	40365e <_vfiprintf_r+0x1ea>
  403656:	f8db 0058 	ldr.w	r0, [fp, #88]	; 0x58
  40365a:	f002 fa8f 	bl	405b7c <__retarget_lock_release_recursive>
  40365e:	462b      	mov	r3, r5
  403660:	4642      	mov	r2, r8
  403662:	4659      	mov	r1, fp
  403664:	9806      	ldr	r0, [sp, #24]
  403666:	f000 fd4d 	bl	404104 <__sbprintf>
  40366a:	9003      	str	r0, [sp, #12]
  40366c:	9803      	ldr	r0, [sp, #12]
  40366e:	b02d      	add	sp, #180	; 0xb4
  403670:	e8bd 8ff0 	ldmia.w	sp!, {r4, r5, r6, r7, r8, r9, sl, fp, pc}
  403674:	f001 feb2 	bl	4053dc <__sinit>
  403678:	e709      	b.n	40348e <_vfiprintf_r+0x1a>
  40367a:	f8db 3064 	ldr.w	r3, [fp, #100]	; 0x64
  40367e:	07d9      	lsls	r1, r3, #31
  403680:	d404      	bmi.n	40368c <_vfiprintf_r+0x218>
  403682:	f8bb 300c 	ldrh.w	r3, [fp, #12]
  403686:	059a      	lsls	r2, r3, #22
  403688:	f140 84aa 	bpl.w	403fe0 <_vfiprintf_r+0xb6c>
  40368c:	f04f 33ff 	mov.w	r3, #4294967295
  403690:	9303      	str	r3, [sp, #12]
  403692:	9803      	ldr	r0, [sp, #12]
  403694:	b02d      	add	sp, #180	; 0xb4
  403696:	e8bd 8ff0 	ldmia.w	sp!, {r4, r5, r6, r7, r8, r9, sl, fp, pc}
  40369a:	f8db 0058 	ldr.w	r0, [fp, #88]	; 0x58
  40369e:	f002 fa6b 	bl	405b78 <__retarget_lock_acquire_recursive>
  4036a2:	f9bb 000c 	ldrsh.w	r0, [fp, #12]
  4036a6:	b281      	uxth	r1, r0
  4036a8:	e6fb      	b.n	4034a2 <_vfiprintf_r+0x2e>
  4036aa:	4276      	negs	r6, r6
  4036ac:	9207      	str	r2, [sp, #28]
  4036ae:	f043 0304 	orr.w	r3, r3, #4
  4036b2:	f898 2000 	ldrb.w	r2, [r8]
  4036b6:	e74f      	b.n	403558 <_vfiprintf_r+0xe4>
  4036b8:	9608      	str	r6, [sp, #32]
  4036ba:	069e      	lsls	r6, r3, #26
  4036bc:	f100 8450 	bmi.w	403f60 <_vfiprintf_r+0xaec>
  4036c0:	9907      	ldr	r1, [sp, #28]
  4036c2:	06dd      	lsls	r5, r3, #27
  4036c4:	460a      	mov	r2, r1
  4036c6:	f100 83ef 	bmi.w	403ea8 <_vfiprintf_r+0xa34>
  4036ca:	0658      	lsls	r0, r3, #25
  4036cc:	f140 83ec 	bpl.w	403ea8 <_vfiprintf_r+0xa34>
  4036d0:	880e      	ldrh	r6, [r1, #0]
  4036d2:	3104      	adds	r1, #4
  4036d4:	2700      	movs	r7, #0
  4036d6:	2201      	movs	r2, #1
  4036d8:	9107      	str	r1, [sp, #28]
  4036da:	f04f 0100 	mov.w	r1, #0
  4036de:	f88d 1037 	strb.w	r1, [sp, #55]	; 0x37
  4036e2:	2500      	movs	r5, #0
  4036e4:	1c61      	adds	r1, r4, #1
  4036e6:	f000 8116 	beq.w	403916 <_vfiprintf_r+0x4a2>
  4036ea:	f023 0180 	bic.w	r1, r3, #128	; 0x80
  4036ee:	9102      	str	r1, [sp, #8]
  4036f0:	ea56 0107 	orrs.w	r1, r6, r7
  4036f4:	f040 8114 	bne.w	403920 <_vfiprintf_r+0x4ac>
  4036f8:	2c00      	cmp	r4, #0
  4036fa:	f040 835c 	bne.w	403db6 <_vfiprintf_r+0x942>
  4036fe:	2a00      	cmp	r2, #0
  403700:	f040 83b7 	bne.w	403e72 <_vfiprintf_r+0x9fe>
  403704:	f013 0301 	ands.w	r3, r3, #1
  403708:	9305      	str	r3, [sp, #20]
  40370a:	f000 8457 	beq.w	403fbc <_vfiprintf_r+0xb48>
  40370e:	f10d 0bb0 	add.w	fp, sp, #176	; 0xb0
  403712:	2330      	movs	r3, #48	; 0x30
  403714:	f80b 3d41 	strb.w	r3, [fp, #-65]!
  403718:	9b05      	ldr	r3, [sp, #20]
  40371a:	42a3      	cmp	r3, r4
  40371c:	bfb8      	it	lt
  40371e:	4623      	movlt	r3, r4
  403720:	9301      	str	r3, [sp, #4]
  403722:	b10d      	cbz	r5, 403728 <_vfiprintf_r+0x2b4>
  403724:	3301      	adds	r3, #1
  403726:	9301      	str	r3, [sp, #4]
  403728:	9b02      	ldr	r3, [sp, #8]
  40372a:	f013 0302 	ands.w	r3, r3, #2
  40372e:	9309      	str	r3, [sp, #36]	; 0x24
  403730:	d002      	beq.n	403738 <_vfiprintf_r+0x2c4>
  403732:	9b01      	ldr	r3, [sp, #4]
  403734:	3302      	adds	r3, #2
  403736:	9301      	str	r3, [sp, #4]
  403738:	9b02      	ldr	r3, [sp, #8]
  40373a:	f013 0384 	ands.w	r3, r3, #132	; 0x84
  40373e:	930a      	str	r3, [sp, #40]	; 0x28
  403740:	f040 8217 	bne.w	403b72 <_vfiprintf_r+0x6fe>
  403744:	9b08      	ldr	r3, [sp, #32]
  403746:	9a01      	ldr	r2, [sp, #4]
  403748:	1a9d      	subs	r5, r3, r2
  40374a:	2d00      	cmp	r5, #0
  40374c:	f340 8211 	ble.w	403b72 <_vfiprintf_r+0x6fe>
  403750:	2d10      	cmp	r5, #16
  403752:	f340 8490 	ble.w	404076 <_vfiprintf_r+0xc02>
  403756:	9b10      	ldr	r3, [sp, #64]	; 0x40
  403758:	9a11      	ldr	r2, [sp, #68]	; 0x44
  40375a:	4ec4      	ldr	r6, [pc, #784]	; (403a6c <_vfiprintf_r+0x5f8>)
  40375c:	46d6      	mov	lr, sl
  40375e:	2710      	movs	r7, #16
  403760:	46a2      	mov	sl, r4
  403762:	4619      	mov	r1, r3
  403764:	9c06      	ldr	r4, [sp, #24]
  403766:	e007      	b.n	403778 <_vfiprintf_r+0x304>
  403768:	f101 0c02 	add.w	ip, r1, #2
  40376c:	f10e 0e08 	add.w	lr, lr, #8
  403770:	4601      	mov	r1, r0
  403772:	3d10      	subs	r5, #16
  403774:	2d10      	cmp	r5, #16
  403776:	dd11      	ble.n	40379c <_vfiprintf_r+0x328>
  403778:	1c48      	adds	r0, r1, #1
  40377a:	3210      	adds	r2, #16
  40377c:	2807      	cmp	r0, #7
  40377e:	9211      	str	r2, [sp, #68]	; 0x44
  403780:	e88e 00c0 	stmia.w	lr, {r6, r7}
  403784:	9010      	str	r0, [sp, #64]	; 0x40
  403786:	ddef      	ble.n	403768 <_vfiprintf_r+0x2f4>
  403788:	2a00      	cmp	r2, #0
  40378a:	f040 81e4 	bne.w	403b56 <_vfiprintf_r+0x6e2>
  40378e:	3d10      	subs	r5, #16
  403790:	2d10      	cmp	r5, #16
  403792:	4611      	mov	r1, r2
  403794:	f04f 0c01 	mov.w	ip, #1
  403798:	46ce      	mov	lr, r9
  40379a:	dced      	bgt.n	403778 <_vfiprintf_r+0x304>
  40379c:	4654      	mov	r4, sl
  40379e:	4661      	mov	r1, ip
  4037a0:	46f2      	mov	sl, lr
  4037a2:	442a      	add	r2, r5
  4037a4:	2907      	cmp	r1, #7
  4037a6:	9211      	str	r2, [sp, #68]	; 0x44
  4037a8:	f8ca 6000 	str.w	r6, [sl]
  4037ac:	f8ca 5004 	str.w	r5, [sl, #4]
  4037b0:	9110      	str	r1, [sp, #64]	; 0x40
  4037b2:	f300 82ec 	bgt.w	403d8e <_vfiprintf_r+0x91a>
  4037b6:	f89d 5037 	ldrb.w	r5, [sp, #55]	; 0x37
  4037ba:	f10a 0a08 	add.w	sl, sl, #8
  4037be:	1c48      	adds	r0, r1, #1
  4037c0:	2d00      	cmp	r5, #0
  4037c2:	f040 81de 	bne.w	403b82 <_vfiprintf_r+0x70e>
  4037c6:	9b09      	ldr	r3, [sp, #36]	; 0x24
  4037c8:	2b00      	cmp	r3, #0
  4037ca:	f000 81f8 	beq.w	403bbe <_vfiprintf_r+0x74a>
  4037ce:	3202      	adds	r2, #2
  4037d0:	a90e      	add	r1, sp, #56	; 0x38
  4037d2:	2302      	movs	r3, #2
  4037d4:	2807      	cmp	r0, #7
  4037d6:	9211      	str	r2, [sp, #68]	; 0x44
  4037d8:	9010      	str	r0, [sp, #64]	; 0x40
  4037da:	e88a 000a 	stmia.w	sl, {r1, r3}
  4037de:	f340 81ea 	ble.w	403bb6 <_vfiprintf_r+0x742>
  4037e2:	2a00      	cmp	r2, #0
  4037e4:	f040 838c 	bne.w	403f00 <_vfiprintf_r+0xa8c>
  4037e8:	9b0a      	ldr	r3, [sp, #40]	; 0x28
  4037ea:	2b80      	cmp	r3, #128	; 0x80
  4037ec:	f04f 0001 	mov.w	r0, #1
  4037f0:	4611      	mov	r1, r2
  4037f2:	46ca      	mov	sl, r9
  4037f4:	f040 81e7 	bne.w	403bc6 <_vfiprintf_r+0x752>
  4037f8:	9b08      	ldr	r3, [sp, #32]
  4037fa:	9d01      	ldr	r5, [sp, #4]
  4037fc:	1b5e      	subs	r6, r3, r5
  4037fe:	2e00      	cmp	r6, #0
  403800:	f340 81e1 	ble.w	403bc6 <_vfiprintf_r+0x752>
  403804:	2e10      	cmp	r6, #16
  403806:	4d9a      	ldr	r5, [pc, #616]	; (403a70 <_vfiprintf_r+0x5fc>)
  403808:	f340 8450 	ble.w	4040ac <_vfiprintf_r+0xc38>
  40380c:	46d4      	mov	ip, sl
  40380e:	2710      	movs	r7, #16
  403810:	46a2      	mov	sl, r4
  403812:	9c06      	ldr	r4, [sp, #24]
  403814:	e007      	b.n	403826 <_vfiprintf_r+0x3b2>
  403816:	f101 0e02 	add.w	lr, r1, #2
  40381a:	f10c 0c08 	add.w	ip, ip, #8
  40381e:	4601      	mov	r1, r0
  403820:	3e10      	subs	r6, #16
  403822:	2e10      	cmp	r6, #16
  403824:	dd11      	ble.n	40384a <_vfiprintf_r+0x3d6>
  403826:	1c48      	adds	r0, r1, #1
  403828:	3210      	adds	r2, #16
  40382a:	2807      	cmp	r0, #7
  40382c:	9211      	str	r2, [sp, #68]	; 0x44
  40382e:	e88c 00a0 	stmia.w	ip, {r5, r7}
  403832:	9010      	str	r0, [sp, #64]	; 0x40
  403834:	ddef      	ble.n	403816 <_vfiprintf_r+0x3a2>
  403836:	2a00      	cmp	r2, #0
  403838:	f040 829d 	bne.w	403d76 <_vfiprintf_r+0x902>
  40383c:	3e10      	subs	r6, #16
  40383e:	2e10      	cmp	r6, #16
  403840:	f04f 0e01 	mov.w	lr, #1
  403844:	4611      	mov	r1, r2
  403846:	46cc      	mov	ip, r9
  403848:	dced      	bgt.n	403826 <_vfiprintf_r+0x3b2>
  40384a:	4654      	mov	r4, sl
  40384c:	46e2      	mov	sl, ip
  40384e:	4432      	add	r2, r6
  403850:	f1be 0f07 	cmp.w	lr, #7
  403854:	9211      	str	r2, [sp, #68]	; 0x44
  403856:	e88a 0060 	stmia.w	sl, {r5, r6}
  40385a:	f8cd e040 	str.w	lr, [sp, #64]	; 0x40
  40385e:	f300 8369 	bgt.w	403f34 <_vfiprintf_r+0xac0>
  403862:	f10a 0a08 	add.w	sl, sl, #8
  403866:	f10e 0001 	add.w	r0, lr, #1
  40386a:	4671      	mov	r1, lr
  40386c:	e1ab      	b.n	403bc6 <_vfiprintf_r+0x752>
  40386e:	9608      	str	r6, [sp, #32]
  403870:	f013 0220 	ands.w	r2, r3, #32
  403874:	f040 838c 	bne.w	403f90 <_vfiprintf_r+0xb1c>
  403878:	f013 0110 	ands.w	r1, r3, #16
  40387c:	f040 831a 	bne.w	403eb4 <_vfiprintf_r+0xa40>
  403880:	f013 0240 	ands.w	r2, r3, #64	; 0x40
  403884:	f000 8316 	beq.w	403eb4 <_vfiprintf_r+0xa40>
  403888:	9807      	ldr	r0, [sp, #28]
  40388a:	460a      	mov	r2, r1
  40388c:	4601      	mov	r1, r0
  40388e:	3104      	adds	r1, #4
  403890:	8806      	ldrh	r6, [r0, #0]
  403892:	9107      	str	r1, [sp, #28]
  403894:	2700      	movs	r7, #0
  403896:	e720      	b.n	4036da <_vfiprintf_r+0x266>
  403898:	9608      	str	r6, [sp, #32]
  40389a:	f043 0310 	orr.w	r3, r3, #16
  40389e:	e7e7      	b.n	403870 <_vfiprintf_r+0x3fc>
  4038a0:	9608      	str	r6, [sp, #32]
  4038a2:	f043 0310 	orr.w	r3, r3, #16
  4038a6:	e708      	b.n	4036ba <_vfiprintf_r+0x246>
  4038a8:	f043 0380 	orr.w	r3, r3, #128	; 0x80
  4038ac:	f898 2000 	ldrb.w	r2, [r8]
  4038b0:	e652      	b.n	403558 <_vfiprintf_r+0xe4>
  4038b2:	f1a2 0130 	sub.w	r1, r2, #48	; 0x30
  4038b6:	2600      	movs	r6, #0
  4038b8:	f818 2b01 	ldrb.w	r2, [r8], #1
  4038bc:	eb06 0686 	add.w	r6, r6, r6, lsl #2
  4038c0:	eb01 0646 	add.w	r6, r1, r6, lsl #1
  4038c4:	f1a2 0130 	sub.w	r1, r2, #48	; 0x30
  4038c8:	2909      	cmp	r1, #9
  4038ca:	d9f5      	bls.n	4038b8 <_vfiprintf_r+0x444>
  4038cc:	e646      	b.n	40355c <_vfiprintf_r+0xe8>
  4038ce:	9608      	str	r6, [sp, #32]
  4038d0:	2800      	cmp	r0, #0
  4038d2:	f040 8408 	bne.w	4040e6 <_vfiprintf_r+0xc72>
  4038d6:	f043 0310 	orr.w	r3, r3, #16
  4038da:	069e      	lsls	r6, r3, #26
  4038dc:	f100 834c 	bmi.w	403f78 <_vfiprintf_r+0xb04>
  4038e0:	06dd      	lsls	r5, r3, #27
  4038e2:	f100 82f3 	bmi.w	403ecc <_vfiprintf_r+0xa58>
  4038e6:	0658      	lsls	r0, r3, #25
  4038e8:	f140 82f0 	bpl.w	403ecc <_vfiprintf_r+0xa58>
  4038ec:	9d07      	ldr	r5, [sp, #28]
  4038ee:	f9b5 6000 	ldrsh.w	r6, [r5]
  4038f2:	462a      	mov	r2, r5
  4038f4:	17f7      	asrs	r7, r6, #31
  4038f6:	3204      	adds	r2, #4
  4038f8:	4630      	mov	r0, r6
  4038fa:	4639      	mov	r1, r7
  4038fc:	9207      	str	r2, [sp, #28]
  4038fe:	2800      	cmp	r0, #0
  403900:	f171 0200 	sbcs.w	r2, r1, #0
  403904:	f2c0 835d 	blt.w	403fc2 <_vfiprintf_r+0xb4e>
  403908:	1c61      	adds	r1, r4, #1
  40390a:	f89d 5037 	ldrb.w	r5, [sp, #55]	; 0x37
  40390e:	f04f 0201 	mov.w	r2, #1
  403912:	f47f aeea 	bne.w	4036ea <_vfiprintf_r+0x276>
  403916:	ea56 0107 	orrs.w	r1, r6, r7
  40391a:	f000 824d 	beq.w	403db8 <_vfiprintf_r+0x944>
  40391e:	9302      	str	r3, [sp, #8]
  403920:	2a01      	cmp	r2, #1
  403922:	f000 828c 	beq.w	403e3e <_vfiprintf_r+0x9ca>
  403926:	2a02      	cmp	r2, #2
  403928:	f040 825c 	bne.w	403de4 <_vfiprintf_r+0x970>
  40392c:	980b      	ldr	r0, [sp, #44]	; 0x2c
  40392e:	46cb      	mov	fp, r9
  403930:	0933      	lsrs	r3, r6, #4
  403932:	f006 010f 	and.w	r1, r6, #15
  403936:	ea43 7307 	orr.w	r3, r3, r7, lsl #28
  40393a:	093a      	lsrs	r2, r7, #4
  40393c:	461e      	mov	r6, r3
  40393e:	4617      	mov	r7, r2
  403940:	5c43      	ldrb	r3, [r0, r1]
  403942:	f80b 3d01 	strb.w	r3, [fp, #-1]!
  403946:	ea56 0307 	orrs.w	r3, r6, r7
  40394a:	d1f1      	bne.n	403930 <_vfiprintf_r+0x4bc>
  40394c:	eba9 030b 	sub.w	r3, r9, fp
  403950:	9305      	str	r3, [sp, #20]
  403952:	e6e1      	b.n	403718 <_vfiprintf_r+0x2a4>
  403954:	2800      	cmp	r0, #0
  403956:	f040 83c0 	bne.w	4040da <_vfiprintf_r+0xc66>
  40395a:	0699      	lsls	r1, r3, #26
  40395c:	f100 8367 	bmi.w	40402e <_vfiprintf_r+0xbba>
  403960:	06da      	lsls	r2, r3, #27
  403962:	f100 80f1 	bmi.w	403b48 <_vfiprintf_r+0x6d4>
  403966:	065b      	lsls	r3, r3, #25
  403968:	f140 80ee 	bpl.w	403b48 <_vfiprintf_r+0x6d4>
  40396c:	9a07      	ldr	r2, [sp, #28]
  40396e:	6813      	ldr	r3, [r2, #0]
  403970:	3204      	adds	r2, #4
  403972:	9207      	str	r2, [sp, #28]
  403974:	f8bd 200c 	ldrh.w	r2, [sp, #12]
  403978:	801a      	strh	r2, [r3, #0]
  40397a:	e5b8      	b.n	4034ee <_vfiprintf_r+0x7a>
  40397c:	9807      	ldr	r0, [sp, #28]
  40397e:	4a3d      	ldr	r2, [pc, #244]	; (403a74 <_vfiprintf_r+0x600>)
  403980:	9608      	str	r6, [sp, #32]
  403982:	920b      	str	r2, [sp, #44]	; 0x2c
  403984:	6806      	ldr	r6, [r0, #0]
  403986:	2278      	movs	r2, #120	; 0x78
  403988:	2130      	movs	r1, #48	; 0x30
  40398a:	3004      	adds	r0, #4
  40398c:	f88d 2039 	strb.w	r2, [sp, #57]	; 0x39
  403990:	f043 0302 	orr.w	r3, r3, #2
  403994:	9007      	str	r0, [sp, #28]
  403996:	2700      	movs	r7, #0
  403998:	f88d 1038 	strb.w	r1, [sp, #56]	; 0x38
  40399c:	2202      	movs	r2, #2
  40399e:	e69c      	b.n	4036da <_vfiprintf_r+0x266>
  4039a0:	9608      	str	r6, [sp, #32]
  4039a2:	2800      	cmp	r0, #0
  4039a4:	d099      	beq.n	4038da <_vfiprintf_r+0x466>
  4039a6:	f88d 5037 	strb.w	r5, [sp, #55]	; 0x37
  4039aa:	e796      	b.n	4038da <_vfiprintf_r+0x466>
  4039ac:	f898 2000 	ldrb.w	r2, [r8]
  4039b0:	2d00      	cmp	r5, #0
  4039b2:	f47f add1 	bne.w	403558 <_vfiprintf_r+0xe4>
  4039b6:	2001      	movs	r0, #1
  4039b8:	2520      	movs	r5, #32
  4039ba:	e5cd      	b.n	403558 <_vfiprintf_r+0xe4>
  4039bc:	f043 0301 	orr.w	r3, r3, #1
  4039c0:	f898 2000 	ldrb.w	r2, [r8]
  4039c4:	e5c8      	b.n	403558 <_vfiprintf_r+0xe4>
  4039c6:	9608      	str	r6, [sp, #32]
  4039c8:	2800      	cmp	r0, #0
  4039ca:	f040 8393 	bne.w	4040f4 <_vfiprintf_r+0xc80>
  4039ce:	4929      	ldr	r1, [pc, #164]	; (403a74 <_vfiprintf_r+0x600>)
  4039d0:	910b      	str	r1, [sp, #44]	; 0x2c
  4039d2:	069f      	lsls	r7, r3, #26
  4039d4:	f100 82e8 	bmi.w	403fa8 <_vfiprintf_r+0xb34>
  4039d8:	9807      	ldr	r0, [sp, #28]
  4039da:	06de      	lsls	r6, r3, #27
  4039dc:	4601      	mov	r1, r0
  4039de:	f100 8270 	bmi.w	403ec2 <_vfiprintf_r+0xa4e>
  4039e2:	065d      	lsls	r5, r3, #25
  4039e4:	f140 826d 	bpl.w	403ec2 <_vfiprintf_r+0xa4e>
  4039e8:	3104      	adds	r1, #4
  4039ea:	8806      	ldrh	r6, [r0, #0]
  4039ec:	9107      	str	r1, [sp, #28]
  4039ee:	2700      	movs	r7, #0
  4039f0:	07d8      	lsls	r0, r3, #31
  4039f2:	f140 8222 	bpl.w	403e3a <_vfiprintf_r+0x9c6>
  4039f6:	ea56 0107 	orrs.w	r1, r6, r7
  4039fa:	f000 821e 	beq.w	403e3a <_vfiprintf_r+0x9c6>
  4039fe:	2130      	movs	r1, #48	; 0x30
  403a00:	f88d 2039 	strb.w	r2, [sp, #57]	; 0x39
  403a04:	f043 0302 	orr.w	r3, r3, #2
  403a08:	f88d 1038 	strb.w	r1, [sp, #56]	; 0x38
  403a0c:	2202      	movs	r2, #2
  403a0e:	e664      	b.n	4036da <_vfiprintf_r+0x266>
  403a10:	9608      	str	r6, [sp, #32]
  403a12:	2800      	cmp	r0, #0
  403a14:	f040 836b 	bne.w	4040ee <_vfiprintf_r+0xc7a>
  403a18:	4917      	ldr	r1, [pc, #92]	; (403a78 <_vfiprintf_r+0x604>)
  403a1a:	910b      	str	r1, [sp, #44]	; 0x2c
  403a1c:	e7d9      	b.n	4039d2 <_vfiprintf_r+0x55e>
  403a1e:	9907      	ldr	r1, [sp, #28]
  403a20:	9608      	str	r6, [sp, #32]
  403a22:	680a      	ldr	r2, [r1, #0]
  403a24:	f88d 2048 	strb.w	r2, [sp, #72]	; 0x48
  403a28:	f04f 0000 	mov.w	r0, #0
  403a2c:	460a      	mov	r2, r1
  403a2e:	f88d 0037 	strb.w	r0, [sp, #55]	; 0x37
  403a32:	3204      	adds	r2, #4
  403a34:	2001      	movs	r0, #1
  403a36:	9001      	str	r0, [sp, #4]
  403a38:	9207      	str	r2, [sp, #28]
  403a3a:	9005      	str	r0, [sp, #20]
  403a3c:	f10d 0b48 	add.w	fp, sp, #72	; 0x48
  403a40:	9302      	str	r3, [sp, #8]
  403a42:	2400      	movs	r4, #0
  403a44:	e670      	b.n	403728 <_vfiprintf_r+0x2b4>
  403a46:	f043 0340 	orr.w	r3, r3, #64	; 0x40
  403a4a:	f898 2000 	ldrb.w	r2, [r8]
  403a4e:	e583      	b.n	403558 <_vfiprintf_r+0xe4>
  403a50:	f898 2000 	ldrb.w	r2, [r8]
  403a54:	2a6c      	cmp	r2, #108	; 0x6c
  403a56:	bf03      	ittte	eq
  403a58:	f898 2001 	ldrbeq.w	r2, [r8, #1]
  403a5c:	f043 0320 	orreq.w	r3, r3, #32
  403a60:	f108 0801 	addeq.w	r8, r8, #1
  403a64:	f043 0310 	orrne.w	r3, r3, #16
  403a68:	e576      	b.n	403558 <_vfiprintf_r+0xe4>
  403a6a:	bf00      	nop
  403a6c:	00410ad8 	.word	0x00410ad8
  403a70:	00410ae8 	.word	0x00410ae8
  403a74:	00410a98 	.word	0x00410a98
  403a78:	00410a84 	.word	0x00410a84
  403a7c:	9907      	ldr	r1, [sp, #28]
  403a7e:	680e      	ldr	r6, [r1, #0]
  403a80:	460a      	mov	r2, r1
  403a82:	2e00      	cmp	r6, #0
  403a84:	f102 0204 	add.w	r2, r2, #4
  403a88:	f6ff ae0f 	blt.w	4036aa <_vfiprintf_r+0x236>
  403a8c:	9207      	str	r2, [sp, #28]
  403a8e:	f898 2000 	ldrb.w	r2, [r8]
  403a92:	e561      	b.n	403558 <_vfiprintf_r+0xe4>
  403a94:	f898 2000 	ldrb.w	r2, [r8]
  403a98:	2001      	movs	r0, #1
  403a9a:	252b      	movs	r5, #43	; 0x2b
  403a9c:	e55c      	b.n	403558 <_vfiprintf_r+0xe4>
  403a9e:	9907      	ldr	r1, [sp, #28]
  403aa0:	9608      	str	r6, [sp, #32]
  403aa2:	f8d1 b000 	ldr.w	fp, [r1]
  403aa6:	f04f 0200 	mov.w	r2, #0
  403aaa:	f88d 2037 	strb.w	r2, [sp, #55]	; 0x37
  403aae:	1d0e      	adds	r6, r1, #4
  403ab0:	f1bb 0f00 	cmp.w	fp, #0
  403ab4:	f000 82e5 	beq.w	404082 <_vfiprintf_r+0xc0e>
  403ab8:	1c67      	adds	r7, r4, #1
  403aba:	f000 82c4 	beq.w	404046 <_vfiprintf_r+0xbd2>
  403abe:	4622      	mov	r2, r4
  403ac0:	2100      	movs	r1, #0
  403ac2:	4658      	mov	r0, fp
  403ac4:	9301      	str	r3, [sp, #4]
  403ac6:	f002 fba3 	bl	406210 <memchr>
  403aca:	9b01      	ldr	r3, [sp, #4]
  403acc:	2800      	cmp	r0, #0
  403ace:	f000 82e5 	beq.w	40409c <_vfiprintf_r+0xc28>
  403ad2:	eba0 020b 	sub.w	r2, r0, fp
  403ad6:	9205      	str	r2, [sp, #20]
  403ad8:	9607      	str	r6, [sp, #28]
  403ada:	9302      	str	r3, [sp, #8]
  403adc:	f89d 5037 	ldrb.w	r5, [sp, #55]	; 0x37
  403ae0:	2400      	movs	r4, #0
  403ae2:	e619      	b.n	403718 <_vfiprintf_r+0x2a4>
  403ae4:	f898 2000 	ldrb.w	r2, [r8]
  403ae8:	2a2a      	cmp	r2, #42	; 0x2a
  403aea:	f108 0701 	add.w	r7, r8, #1
  403aee:	f000 82e9 	beq.w	4040c4 <_vfiprintf_r+0xc50>
  403af2:	f1a2 0130 	sub.w	r1, r2, #48	; 0x30
  403af6:	2909      	cmp	r1, #9
  403af8:	46b8      	mov	r8, r7
  403afa:	f04f 0400 	mov.w	r4, #0
  403afe:	f63f ad2d 	bhi.w	40355c <_vfiprintf_r+0xe8>
  403b02:	f818 2b01 	ldrb.w	r2, [r8], #1
  403b06:	eb04 0484 	add.w	r4, r4, r4, lsl #2
  403b0a:	eb01 0444 	add.w	r4, r1, r4, lsl #1
  403b0e:	f1a2 0130 	sub.w	r1, r2, #48	; 0x30
  403b12:	2909      	cmp	r1, #9
  403b14:	d9f5      	bls.n	403b02 <_vfiprintf_r+0x68e>
  403b16:	e521      	b.n	40355c <_vfiprintf_r+0xe8>
  403b18:	f043 0320 	orr.w	r3, r3, #32
  403b1c:	f898 2000 	ldrb.w	r2, [r8]
  403b20:	e51a      	b.n	403558 <_vfiprintf_r+0xe4>
  403b22:	9608      	str	r6, [sp, #32]
  403b24:	2800      	cmp	r0, #0
  403b26:	f040 82db 	bne.w	4040e0 <_vfiprintf_r+0xc6c>
  403b2a:	2a00      	cmp	r2, #0
  403b2c:	f000 80e7 	beq.w	403cfe <_vfiprintf_r+0x88a>
  403b30:	2101      	movs	r1, #1
  403b32:	f88d 2048 	strb.w	r2, [sp, #72]	; 0x48
  403b36:	f04f 0200 	mov.w	r2, #0
  403b3a:	9101      	str	r1, [sp, #4]
  403b3c:	f88d 2037 	strb.w	r2, [sp, #55]	; 0x37
  403b40:	9105      	str	r1, [sp, #20]
  403b42:	f10d 0b48 	add.w	fp, sp, #72	; 0x48
  403b46:	e77b      	b.n	403a40 <_vfiprintf_r+0x5cc>
  403b48:	9a07      	ldr	r2, [sp, #28]
  403b4a:	6813      	ldr	r3, [r2, #0]
  403b4c:	3204      	adds	r2, #4
  403b4e:	9207      	str	r2, [sp, #28]
  403b50:	9a03      	ldr	r2, [sp, #12]
  403b52:	601a      	str	r2, [r3, #0]
  403b54:	e4cb      	b.n	4034ee <_vfiprintf_r+0x7a>
  403b56:	aa0f      	add	r2, sp, #60	; 0x3c
  403b58:	9904      	ldr	r1, [sp, #16]
  403b5a:	4620      	mov	r0, r4
  403b5c:	f7ff fc4a 	bl	4033f4 <__sprint_r.part.0>
  403b60:	2800      	cmp	r0, #0
  403b62:	f040 8139 	bne.w	403dd8 <_vfiprintf_r+0x964>
  403b66:	9910      	ldr	r1, [sp, #64]	; 0x40
  403b68:	9a11      	ldr	r2, [sp, #68]	; 0x44
  403b6a:	f101 0c01 	add.w	ip, r1, #1
  403b6e:	46ce      	mov	lr, r9
  403b70:	e5ff      	b.n	403772 <_vfiprintf_r+0x2fe>
  403b72:	9910      	ldr	r1, [sp, #64]	; 0x40
  403b74:	9a11      	ldr	r2, [sp, #68]	; 0x44
  403b76:	1c48      	adds	r0, r1, #1
  403b78:	f89d 5037 	ldrb.w	r5, [sp, #55]	; 0x37
  403b7c:	2d00      	cmp	r5, #0
  403b7e:	f43f ae22 	beq.w	4037c6 <_vfiprintf_r+0x352>
  403b82:	3201      	adds	r2, #1
  403b84:	f10d 0537 	add.w	r5, sp, #55	; 0x37
  403b88:	2101      	movs	r1, #1
  403b8a:	2807      	cmp	r0, #7
  403b8c:	9211      	str	r2, [sp, #68]	; 0x44
  403b8e:	9010      	str	r0, [sp, #64]	; 0x40
  403b90:	f8ca 5000 	str.w	r5, [sl]
  403b94:	f8ca 1004 	str.w	r1, [sl, #4]
  403b98:	f340 8108 	ble.w	403dac <_vfiprintf_r+0x938>
  403b9c:	2a00      	cmp	r2, #0
  403b9e:	f040 81bc 	bne.w	403f1a <_vfiprintf_r+0xaa6>
  403ba2:	9b09      	ldr	r3, [sp, #36]	; 0x24
  403ba4:	2b00      	cmp	r3, #0
  403ba6:	f43f ae1f 	beq.w	4037e8 <_vfiprintf_r+0x374>
  403baa:	ab0e      	add	r3, sp, #56	; 0x38
  403bac:	2202      	movs	r2, #2
  403bae:	4608      	mov	r0, r1
  403bb0:	931c      	str	r3, [sp, #112]	; 0x70
  403bb2:	921d      	str	r2, [sp, #116]	; 0x74
  403bb4:	46ca      	mov	sl, r9
  403bb6:	4601      	mov	r1, r0
  403bb8:	f10a 0a08 	add.w	sl, sl, #8
  403bbc:	3001      	adds	r0, #1
  403bbe:	9b0a      	ldr	r3, [sp, #40]	; 0x28
  403bc0:	2b80      	cmp	r3, #128	; 0x80
  403bc2:	f43f ae19 	beq.w	4037f8 <_vfiprintf_r+0x384>
  403bc6:	9b05      	ldr	r3, [sp, #20]
  403bc8:	1ae4      	subs	r4, r4, r3
  403bca:	2c00      	cmp	r4, #0
  403bcc:	dd2e      	ble.n	403c2c <_vfiprintf_r+0x7b8>
  403bce:	2c10      	cmp	r4, #16
  403bd0:	4db3      	ldr	r5, [pc, #716]	; (403ea0 <_vfiprintf_r+0xa2c>)
  403bd2:	dd1e      	ble.n	403c12 <_vfiprintf_r+0x79e>
  403bd4:	46d6      	mov	lr, sl
  403bd6:	2610      	movs	r6, #16
  403bd8:	9f06      	ldr	r7, [sp, #24]
  403bda:	f8dd a010 	ldr.w	sl, [sp, #16]
  403bde:	e006      	b.n	403bee <_vfiprintf_r+0x77a>
  403be0:	1c88      	adds	r0, r1, #2
  403be2:	f10e 0e08 	add.w	lr, lr, #8
  403be6:	4619      	mov	r1, r3
  403be8:	3c10      	subs	r4, #16
  403bea:	2c10      	cmp	r4, #16
  403bec:	dd10      	ble.n	403c10 <_vfiprintf_r+0x79c>
  403bee:	1c4b      	adds	r3, r1, #1
  403bf0:	3210      	adds	r2, #16
  403bf2:	2b07      	cmp	r3, #7
  403bf4:	9211      	str	r2, [sp, #68]	; 0x44
  403bf6:	e88e 0060 	stmia.w	lr, {r5, r6}
  403bfa:	9310      	str	r3, [sp, #64]	; 0x40
  403bfc:	ddf0      	ble.n	403be0 <_vfiprintf_r+0x76c>
  403bfe:	2a00      	cmp	r2, #0
  403c00:	d165      	bne.n	403cce <_vfiprintf_r+0x85a>
  403c02:	3c10      	subs	r4, #16
  403c04:	2c10      	cmp	r4, #16
  403c06:	f04f 0001 	mov.w	r0, #1
  403c0a:	4611      	mov	r1, r2
  403c0c:	46ce      	mov	lr, r9
  403c0e:	dcee      	bgt.n	403bee <_vfiprintf_r+0x77a>
  403c10:	46f2      	mov	sl, lr
  403c12:	4422      	add	r2, r4
  403c14:	2807      	cmp	r0, #7
  403c16:	9211      	str	r2, [sp, #68]	; 0x44
  403c18:	f8ca 5000 	str.w	r5, [sl]
  403c1c:	f8ca 4004 	str.w	r4, [sl, #4]
  403c20:	9010      	str	r0, [sp, #64]	; 0x40
  403c22:	f300 8085 	bgt.w	403d30 <_vfiprintf_r+0x8bc>
  403c26:	f10a 0a08 	add.w	sl, sl, #8
  403c2a:	3001      	adds	r0, #1
  403c2c:	9905      	ldr	r1, [sp, #20]
  403c2e:	f8ca b000 	str.w	fp, [sl]
  403c32:	440a      	add	r2, r1
  403c34:	2807      	cmp	r0, #7
  403c36:	9211      	str	r2, [sp, #68]	; 0x44
  403c38:	f8ca 1004 	str.w	r1, [sl, #4]
  403c3c:	9010      	str	r0, [sp, #64]	; 0x40
  403c3e:	f340 8082 	ble.w	403d46 <_vfiprintf_r+0x8d2>
  403c42:	2a00      	cmp	r2, #0
  403c44:	f040 8118 	bne.w	403e78 <_vfiprintf_r+0xa04>
  403c48:	9b02      	ldr	r3, [sp, #8]
  403c4a:	9210      	str	r2, [sp, #64]	; 0x40
  403c4c:	0758      	lsls	r0, r3, #29
  403c4e:	d535      	bpl.n	403cbc <_vfiprintf_r+0x848>
  403c50:	9b08      	ldr	r3, [sp, #32]
  403c52:	9901      	ldr	r1, [sp, #4]
  403c54:	1a5c      	subs	r4, r3, r1
  403c56:	2c00      	cmp	r4, #0
  403c58:	f340 80e7 	ble.w	403e2a <_vfiprintf_r+0x9b6>
  403c5c:	46ca      	mov	sl, r9
  403c5e:	2c10      	cmp	r4, #16
  403c60:	f340 8218 	ble.w	404094 <_vfiprintf_r+0xc20>
  403c64:	9910      	ldr	r1, [sp, #64]	; 0x40
  403c66:	4e8f      	ldr	r6, [pc, #572]	; (403ea4 <_vfiprintf_r+0xa30>)
  403c68:	9f06      	ldr	r7, [sp, #24]
  403c6a:	f8dd b010 	ldr.w	fp, [sp, #16]
  403c6e:	2510      	movs	r5, #16
  403c70:	e006      	b.n	403c80 <_vfiprintf_r+0x80c>
  403c72:	1c88      	adds	r0, r1, #2
  403c74:	f10a 0a08 	add.w	sl, sl, #8
  403c78:	4619      	mov	r1, r3
  403c7a:	3c10      	subs	r4, #16
  403c7c:	2c10      	cmp	r4, #16
  403c7e:	dd11      	ble.n	403ca4 <_vfiprintf_r+0x830>
  403c80:	1c4b      	adds	r3, r1, #1
  403c82:	3210      	adds	r2, #16
  403c84:	2b07      	cmp	r3, #7
  403c86:	9211      	str	r2, [sp, #68]	; 0x44
  403c88:	f8ca 6000 	str.w	r6, [sl]
  403c8c:	f8ca 5004 	str.w	r5, [sl, #4]
  403c90:	9310      	str	r3, [sp, #64]	; 0x40
  403c92:	ddee      	ble.n	403c72 <_vfiprintf_r+0x7fe>
  403c94:	bb42      	cbnz	r2, 403ce8 <_vfiprintf_r+0x874>
  403c96:	3c10      	subs	r4, #16
  403c98:	2c10      	cmp	r4, #16
  403c9a:	f04f 0001 	mov.w	r0, #1
  403c9e:	4611      	mov	r1, r2
  403ca0:	46ca      	mov	sl, r9
  403ca2:	dced      	bgt.n	403c80 <_vfiprintf_r+0x80c>
  403ca4:	4422      	add	r2, r4
  403ca6:	2807      	cmp	r0, #7
  403ca8:	9211      	str	r2, [sp, #68]	; 0x44
  403caa:	f8ca 6000 	str.w	r6, [sl]
  403cae:	f8ca 4004 	str.w	r4, [sl, #4]
  403cb2:	9010      	str	r0, [sp, #64]	; 0x40
  403cb4:	dd51      	ble.n	403d5a <_vfiprintf_r+0x8e6>
  403cb6:	2a00      	cmp	r2, #0
  403cb8:	f040 819b 	bne.w	403ff2 <_vfiprintf_r+0xb7e>
  403cbc:	9b03      	ldr	r3, [sp, #12]
  403cbe:	9a08      	ldr	r2, [sp, #32]
  403cc0:	9901      	ldr	r1, [sp, #4]
  403cc2:	428a      	cmp	r2, r1
  403cc4:	bfac      	ite	ge
  403cc6:	189b      	addge	r3, r3, r2
  403cc8:	185b      	addlt	r3, r3, r1
  403cca:	9303      	str	r3, [sp, #12]
  403ccc:	e04e      	b.n	403d6c <_vfiprintf_r+0x8f8>
  403cce:	aa0f      	add	r2, sp, #60	; 0x3c
  403cd0:	4651      	mov	r1, sl
  403cd2:	4638      	mov	r0, r7
  403cd4:	f7ff fb8e 	bl	4033f4 <__sprint_r.part.0>
  403cd8:	2800      	cmp	r0, #0
  403cda:	f040 813f 	bne.w	403f5c <_vfiprintf_r+0xae8>
  403cde:	9910      	ldr	r1, [sp, #64]	; 0x40
  403ce0:	9a11      	ldr	r2, [sp, #68]	; 0x44
  403ce2:	1c48      	adds	r0, r1, #1
  403ce4:	46ce      	mov	lr, r9
  403ce6:	e77f      	b.n	403be8 <_vfiprintf_r+0x774>
  403ce8:	aa0f      	add	r2, sp, #60	; 0x3c
  403cea:	4659      	mov	r1, fp
  403cec:	4638      	mov	r0, r7
  403cee:	f7ff fb81 	bl	4033f4 <__sprint_r.part.0>
  403cf2:	b960      	cbnz	r0, 403d0e <_vfiprintf_r+0x89a>
  403cf4:	9910      	ldr	r1, [sp, #64]	; 0x40
  403cf6:	9a11      	ldr	r2, [sp, #68]	; 0x44
  403cf8:	1c48      	adds	r0, r1, #1
  403cfa:	46ca      	mov	sl, r9
  403cfc:	e7bd      	b.n	403c7a <_vfiprintf_r+0x806>
  403cfe:	9b11      	ldr	r3, [sp, #68]	; 0x44
  403d00:	f8dd b010 	ldr.w	fp, [sp, #16]
  403d04:	2b00      	cmp	r3, #0
  403d06:	f040 81d4 	bne.w	4040b2 <_vfiprintf_r+0xc3e>
  403d0a:	2300      	movs	r3, #0
  403d0c:	9310      	str	r3, [sp, #64]	; 0x40
  403d0e:	f8db 3064 	ldr.w	r3, [fp, #100]	; 0x64
  403d12:	f013 0f01 	tst.w	r3, #1
  403d16:	f8bb 300c 	ldrh.w	r3, [fp, #12]
  403d1a:	d102      	bne.n	403d22 <_vfiprintf_r+0x8ae>
  403d1c:	059a      	lsls	r2, r3, #22
  403d1e:	f140 80de 	bpl.w	403ede <_vfiprintf_r+0xa6a>
  403d22:	065b      	lsls	r3, r3, #25
  403d24:	f53f acb2 	bmi.w	40368c <_vfiprintf_r+0x218>
  403d28:	9803      	ldr	r0, [sp, #12]
  403d2a:	b02d      	add	sp, #180	; 0xb4
  403d2c:	e8bd 8ff0 	ldmia.w	sp!, {r4, r5, r6, r7, r8, r9, sl, fp, pc}
  403d30:	2a00      	cmp	r2, #0
  403d32:	f040 8106 	bne.w	403f42 <_vfiprintf_r+0xace>
  403d36:	9a05      	ldr	r2, [sp, #20]
  403d38:	921d      	str	r2, [sp, #116]	; 0x74
  403d3a:	2301      	movs	r3, #1
  403d3c:	9211      	str	r2, [sp, #68]	; 0x44
  403d3e:	f8cd b070 	str.w	fp, [sp, #112]	; 0x70
  403d42:	9310      	str	r3, [sp, #64]	; 0x40
  403d44:	46ca      	mov	sl, r9
  403d46:	f10a 0a08 	add.w	sl, sl, #8
  403d4a:	9b02      	ldr	r3, [sp, #8]
  403d4c:	0759      	lsls	r1, r3, #29
  403d4e:	d504      	bpl.n	403d5a <_vfiprintf_r+0x8e6>
  403d50:	9b08      	ldr	r3, [sp, #32]
  403d52:	9901      	ldr	r1, [sp, #4]
  403d54:	1a5c      	subs	r4, r3, r1
  403d56:	2c00      	cmp	r4, #0
  403d58:	dc81      	bgt.n	403c5e <_vfiprintf_r+0x7ea>
  403d5a:	9b03      	ldr	r3, [sp, #12]
  403d5c:	9908      	ldr	r1, [sp, #32]
  403d5e:	9801      	ldr	r0, [sp, #4]
  403d60:	4281      	cmp	r1, r0
  403d62:	bfac      	ite	ge
  403d64:	185b      	addge	r3, r3, r1
  403d66:	181b      	addlt	r3, r3, r0
  403d68:	9303      	str	r3, [sp, #12]
  403d6a:	bb72      	cbnz	r2, 403dca <_vfiprintf_r+0x956>
  403d6c:	2300      	movs	r3, #0
  403d6e:	9310      	str	r3, [sp, #64]	; 0x40
  403d70:	46ca      	mov	sl, r9
  403d72:	f7ff bbbc 	b.w	4034ee <_vfiprintf_r+0x7a>
  403d76:	aa0f      	add	r2, sp, #60	; 0x3c
  403d78:	9904      	ldr	r1, [sp, #16]
  403d7a:	4620      	mov	r0, r4
  403d7c:	f7ff fb3a 	bl	4033f4 <__sprint_r.part.0>
  403d80:	bb50      	cbnz	r0, 403dd8 <_vfiprintf_r+0x964>
  403d82:	9910      	ldr	r1, [sp, #64]	; 0x40
  403d84:	9a11      	ldr	r2, [sp, #68]	; 0x44
  403d86:	f101 0e01 	add.w	lr, r1, #1
  403d8a:	46cc      	mov	ip, r9
  403d8c:	e548      	b.n	403820 <_vfiprintf_r+0x3ac>
  403d8e:	2a00      	cmp	r2, #0
  403d90:	f040 8140 	bne.w	404014 <_vfiprintf_r+0xba0>
  403d94:	f89d 1037 	ldrb.w	r1, [sp, #55]	; 0x37
  403d98:	2900      	cmp	r1, #0
  403d9a:	f000 811b 	beq.w	403fd4 <_vfiprintf_r+0xb60>
  403d9e:	2201      	movs	r2, #1
  403da0:	f10d 0137 	add.w	r1, sp, #55	; 0x37
  403da4:	4610      	mov	r0, r2
  403da6:	921d      	str	r2, [sp, #116]	; 0x74
  403da8:	911c      	str	r1, [sp, #112]	; 0x70
  403daa:	46ca      	mov	sl, r9
  403dac:	4601      	mov	r1, r0
  403dae:	f10a 0a08 	add.w	sl, sl, #8
  403db2:	3001      	adds	r0, #1
  403db4:	e507      	b.n	4037c6 <_vfiprintf_r+0x352>
  403db6:	9b02      	ldr	r3, [sp, #8]
  403db8:	2a01      	cmp	r2, #1
  403dba:	f000 8098 	beq.w	403eee <_vfiprintf_r+0xa7a>
  403dbe:	2a02      	cmp	r2, #2
  403dc0:	d10d      	bne.n	403dde <_vfiprintf_r+0x96a>
  403dc2:	9302      	str	r3, [sp, #8]
  403dc4:	2600      	movs	r6, #0
  403dc6:	2700      	movs	r7, #0
  403dc8:	e5b0      	b.n	40392c <_vfiprintf_r+0x4b8>
  403dca:	aa0f      	add	r2, sp, #60	; 0x3c
  403dcc:	9904      	ldr	r1, [sp, #16]
  403dce:	9806      	ldr	r0, [sp, #24]
  403dd0:	f7ff fb10 	bl	4033f4 <__sprint_r.part.0>
  403dd4:	2800      	cmp	r0, #0
  403dd6:	d0c9      	beq.n	403d6c <_vfiprintf_r+0x8f8>
  403dd8:	f8dd b010 	ldr.w	fp, [sp, #16]
  403ddc:	e797      	b.n	403d0e <_vfiprintf_r+0x89a>
  403dde:	9302      	str	r3, [sp, #8]
  403de0:	2600      	movs	r6, #0
  403de2:	2700      	movs	r7, #0
  403de4:	4649      	mov	r1, r9
  403de6:	e000      	b.n	403dea <_vfiprintf_r+0x976>
  403de8:	4659      	mov	r1, fp
  403dea:	08f2      	lsrs	r2, r6, #3
  403dec:	ea42 7247 	orr.w	r2, r2, r7, lsl #29
  403df0:	08f8      	lsrs	r0, r7, #3
  403df2:	f006 0307 	and.w	r3, r6, #7
  403df6:	4607      	mov	r7, r0
  403df8:	4616      	mov	r6, r2
  403dfa:	3330      	adds	r3, #48	; 0x30
  403dfc:	ea56 0207 	orrs.w	r2, r6, r7
  403e00:	f801 3c01 	strb.w	r3, [r1, #-1]
  403e04:	f101 3bff 	add.w	fp, r1, #4294967295
  403e08:	d1ee      	bne.n	403de8 <_vfiprintf_r+0x974>
  403e0a:	9a02      	ldr	r2, [sp, #8]
  403e0c:	07d6      	lsls	r6, r2, #31
  403e0e:	f57f ad9d 	bpl.w	40394c <_vfiprintf_r+0x4d8>
  403e12:	2b30      	cmp	r3, #48	; 0x30
  403e14:	f43f ad9a 	beq.w	40394c <_vfiprintf_r+0x4d8>
  403e18:	3902      	subs	r1, #2
  403e1a:	2330      	movs	r3, #48	; 0x30
  403e1c:	f80b 3c01 	strb.w	r3, [fp, #-1]
  403e20:	eba9 0301 	sub.w	r3, r9, r1
  403e24:	9305      	str	r3, [sp, #20]
  403e26:	468b      	mov	fp, r1
  403e28:	e476      	b.n	403718 <_vfiprintf_r+0x2a4>
  403e2a:	9b03      	ldr	r3, [sp, #12]
  403e2c:	9a08      	ldr	r2, [sp, #32]
  403e2e:	428a      	cmp	r2, r1
  403e30:	bfac      	ite	ge
  403e32:	189b      	addge	r3, r3, r2
  403e34:	185b      	addlt	r3, r3, r1
  403e36:	9303      	str	r3, [sp, #12]
  403e38:	e798      	b.n	403d6c <_vfiprintf_r+0x8f8>
  403e3a:	2202      	movs	r2, #2
  403e3c:	e44d      	b.n	4036da <_vfiprintf_r+0x266>
  403e3e:	2f00      	cmp	r7, #0
  403e40:	bf08      	it	eq
  403e42:	2e0a      	cmpeq	r6, #10
  403e44:	d352      	bcc.n	403eec <_vfiprintf_r+0xa78>
  403e46:	46cb      	mov	fp, r9
  403e48:	4630      	mov	r0, r6
  403e4a:	4639      	mov	r1, r7
  403e4c:	220a      	movs	r2, #10
  403e4e:	2300      	movs	r3, #0
  403e50:	f003 ff10 	bl	407c74 <__aeabi_uldivmod>
  403e54:	3230      	adds	r2, #48	; 0x30
  403e56:	f80b 2d01 	strb.w	r2, [fp, #-1]!
  403e5a:	4630      	mov	r0, r6
  403e5c:	4639      	mov	r1, r7
  403e5e:	2300      	movs	r3, #0
  403e60:	220a      	movs	r2, #10
  403e62:	f003 ff07 	bl	407c74 <__aeabi_uldivmod>
  403e66:	4606      	mov	r6, r0
  403e68:	460f      	mov	r7, r1
  403e6a:	ea56 0307 	orrs.w	r3, r6, r7
  403e6e:	d1eb      	bne.n	403e48 <_vfiprintf_r+0x9d4>
  403e70:	e56c      	b.n	40394c <_vfiprintf_r+0x4d8>
  403e72:	9405      	str	r4, [sp, #20]
  403e74:	46cb      	mov	fp, r9
  403e76:	e44f      	b.n	403718 <_vfiprintf_r+0x2a4>
  403e78:	aa0f      	add	r2, sp, #60	; 0x3c
  403e7a:	9904      	ldr	r1, [sp, #16]
  403e7c:	9806      	ldr	r0, [sp, #24]
  403e7e:	f7ff fab9 	bl	4033f4 <__sprint_r.part.0>
  403e82:	2800      	cmp	r0, #0
  403e84:	d1a8      	bne.n	403dd8 <_vfiprintf_r+0x964>
  403e86:	9a11      	ldr	r2, [sp, #68]	; 0x44
  403e88:	46ca      	mov	sl, r9
  403e8a:	e75e      	b.n	403d4a <_vfiprintf_r+0x8d6>
  403e8c:	aa0f      	add	r2, sp, #60	; 0x3c
  403e8e:	9904      	ldr	r1, [sp, #16]
  403e90:	9806      	ldr	r0, [sp, #24]
  403e92:	f7ff faaf 	bl	4033f4 <__sprint_r.part.0>
  403e96:	2800      	cmp	r0, #0
  403e98:	d19e      	bne.n	403dd8 <_vfiprintf_r+0x964>
  403e9a:	46ca      	mov	sl, r9
  403e9c:	f7ff bbc0 	b.w	403620 <_vfiprintf_r+0x1ac>
  403ea0:	00410ae8 	.word	0x00410ae8
  403ea4:	00410ad8 	.word	0x00410ad8
  403ea8:	3104      	adds	r1, #4
  403eaa:	6816      	ldr	r6, [r2, #0]
  403eac:	9107      	str	r1, [sp, #28]
  403eae:	2201      	movs	r2, #1
  403eb0:	2700      	movs	r7, #0
  403eb2:	e412      	b.n	4036da <_vfiprintf_r+0x266>
  403eb4:	9807      	ldr	r0, [sp, #28]
  403eb6:	4601      	mov	r1, r0
  403eb8:	3104      	adds	r1, #4
  403eba:	6806      	ldr	r6, [r0, #0]
  403ebc:	9107      	str	r1, [sp, #28]
  403ebe:	2700      	movs	r7, #0
  403ec0:	e40b      	b.n	4036da <_vfiprintf_r+0x266>
  403ec2:	680e      	ldr	r6, [r1, #0]
  403ec4:	3104      	adds	r1, #4
  403ec6:	9107      	str	r1, [sp, #28]
  403ec8:	2700      	movs	r7, #0
  403eca:	e591      	b.n	4039f0 <_vfiprintf_r+0x57c>
  403ecc:	9907      	ldr	r1, [sp, #28]
  403ece:	680e      	ldr	r6, [r1, #0]
  403ed0:	460a      	mov	r2, r1
  403ed2:	17f7      	asrs	r7, r6, #31
  403ed4:	3204      	adds	r2, #4
  403ed6:	9207      	str	r2, [sp, #28]
  403ed8:	4630      	mov	r0, r6
  403eda:	4639      	mov	r1, r7
  403edc:	e50f      	b.n	4038fe <_vfiprintf_r+0x48a>
  403ede:	f8db 0058 	ldr.w	r0, [fp, #88]	; 0x58
  403ee2:	f001 fe4b 	bl	405b7c <__retarget_lock_release_recursive>
  403ee6:	f8bb 300c 	ldrh.w	r3, [fp, #12]
  403eea:	e71a      	b.n	403d22 <_vfiprintf_r+0x8ae>
  403eec:	9b02      	ldr	r3, [sp, #8]
  403eee:	9302      	str	r3, [sp, #8]
  403ef0:	f10d 0bb0 	add.w	fp, sp, #176	; 0xb0
  403ef4:	3630      	adds	r6, #48	; 0x30
  403ef6:	2301      	movs	r3, #1
  403ef8:	f80b 6d41 	strb.w	r6, [fp, #-65]!
  403efc:	9305      	str	r3, [sp, #20]
  403efe:	e40b      	b.n	403718 <_vfiprintf_r+0x2a4>
  403f00:	aa0f      	add	r2, sp, #60	; 0x3c
  403f02:	9904      	ldr	r1, [sp, #16]
  403f04:	9806      	ldr	r0, [sp, #24]
  403f06:	f7ff fa75 	bl	4033f4 <__sprint_r.part.0>
  403f0a:	2800      	cmp	r0, #0
  403f0c:	f47f af64 	bne.w	403dd8 <_vfiprintf_r+0x964>
  403f10:	9910      	ldr	r1, [sp, #64]	; 0x40
  403f12:	9a11      	ldr	r2, [sp, #68]	; 0x44
  403f14:	1c48      	adds	r0, r1, #1
  403f16:	46ca      	mov	sl, r9
  403f18:	e651      	b.n	403bbe <_vfiprintf_r+0x74a>
  403f1a:	aa0f      	add	r2, sp, #60	; 0x3c
  403f1c:	9904      	ldr	r1, [sp, #16]
  403f1e:	9806      	ldr	r0, [sp, #24]
  403f20:	f7ff fa68 	bl	4033f4 <__sprint_r.part.0>
  403f24:	2800      	cmp	r0, #0
  403f26:	f47f af57 	bne.w	403dd8 <_vfiprintf_r+0x964>
  403f2a:	9910      	ldr	r1, [sp, #64]	; 0x40
  403f2c:	9a11      	ldr	r2, [sp, #68]	; 0x44
  403f2e:	1c48      	adds	r0, r1, #1
  403f30:	46ca      	mov	sl, r9
  403f32:	e448      	b.n	4037c6 <_vfiprintf_r+0x352>
  403f34:	2a00      	cmp	r2, #0
  403f36:	f040 8091 	bne.w	40405c <_vfiprintf_r+0xbe8>
  403f3a:	2001      	movs	r0, #1
  403f3c:	4611      	mov	r1, r2
  403f3e:	46ca      	mov	sl, r9
  403f40:	e641      	b.n	403bc6 <_vfiprintf_r+0x752>
  403f42:	aa0f      	add	r2, sp, #60	; 0x3c
  403f44:	9904      	ldr	r1, [sp, #16]
  403f46:	9806      	ldr	r0, [sp, #24]
  403f48:	f7ff fa54 	bl	4033f4 <__sprint_r.part.0>
  403f4c:	2800      	cmp	r0, #0
  403f4e:	f47f af43 	bne.w	403dd8 <_vfiprintf_r+0x964>
  403f52:	9810      	ldr	r0, [sp, #64]	; 0x40
  403f54:	9a11      	ldr	r2, [sp, #68]	; 0x44
  403f56:	3001      	adds	r0, #1
  403f58:	46ca      	mov	sl, r9
  403f5a:	e667      	b.n	403c2c <_vfiprintf_r+0x7b8>
  403f5c:	46d3      	mov	fp, sl
  403f5e:	e6d6      	b.n	403d0e <_vfiprintf_r+0x89a>
  403f60:	9e07      	ldr	r6, [sp, #28]
  403f62:	3607      	adds	r6, #7
  403f64:	f026 0207 	bic.w	r2, r6, #7
  403f68:	f102 0108 	add.w	r1, r2, #8
  403f6c:	e9d2 6700 	ldrd	r6, r7, [r2]
  403f70:	9107      	str	r1, [sp, #28]
  403f72:	2201      	movs	r2, #1
  403f74:	f7ff bbb1 	b.w	4036da <_vfiprintf_r+0x266>
  403f78:	9e07      	ldr	r6, [sp, #28]
  403f7a:	3607      	adds	r6, #7
  403f7c:	f026 0607 	bic.w	r6, r6, #7
  403f80:	e9d6 0100 	ldrd	r0, r1, [r6]
  403f84:	f106 0208 	add.w	r2, r6, #8
  403f88:	9207      	str	r2, [sp, #28]
  403f8a:	4606      	mov	r6, r0
  403f8c:	460f      	mov	r7, r1
  403f8e:	e4b6      	b.n	4038fe <_vfiprintf_r+0x48a>
  403f90:	9e07      	ldr	r6, [sp, #28]
  403f92:	3607      	adds	r6, #7
  403f94:	f026 0207 	bic.w	r2, r6, #7
  403f98:	f102 0108 	add.w	r1, r2, #8
  403f9c:	e9d2 6700 	ldrd	r6, r7, [r2]
  403fa0:	9107      	str	r1, [sp, #28]
  403fa2:	2200      	movs	r2, #0
  403fa4:	f7ff bb99 	b.w	4036da <_vfiprintf_r+0x266>
  403fa8:	9e07      	ldr	r6, [sp, #28]
  403faa:	3607      	adds	r6, #7
  403fac:	f026 0107 	bic.w	r1, r6, #7
  403fb0:	f101 0008 	add.w	r0, r1, #8
  403fb4:	9007      	str	r0, [sp, #28]
  403fb6:	e9d1 6700 	ldrd	r6, r7, [r1]
  403fba:	e519      	b.n	4039f0 <_vfiprintf_r+0x57c>
  403fbc:	46cb      	mov	fp, r9
  403fbe:	f7ff bbab 	b.w	403718 <_vfiprintf_r+0x2a4>
  403fc2:	252d      	movs	r5, #45	; 0x2d
  403fc4:	4276      	negs	r6, r6
  403fc6:	eb67 0747 	sbc.w	r7, r7, r7, lsl #1
  403fca:	f88d 5037 	strb.w	r5, [sp, #55]	; 0x37
  403fce:	2201      	movs	r2, #1
  403fd0:	f7ff bb88 	b.w	4036e4 <_vfiprintf_r+0x270>
  403fd4:	9b09      	ldr	r3, [sp, #36]	; 0x24
  403fd6:	b9b3      	cbnz	r3, 404006 <_vfiprintf_r+0xb92>
  403fd8:	4611      	mov	r1, r2
  403fda:	2001      	movs	r0, #1
  403fdc:	46ca      	mov	sl, r9
  403fde:	e5f2      	b.n	403bc6 <_vfiprintf_r+0x752>
  403fe0:	f8db 0058 	ldr.w	r0, [fp, #88]	; 0x58
  403fe4:	f001 fdca 	bl	405b7c <__retarget_lock_release_recursive>
  403fe8:	f04f 33ff 	mov.w	r3, #4294967295
  403fec:	9303      	str	r3, [sp, #12]
  403fee:	f7ff bb50 	b.w	403692 <_vfiprintf_r+0x21e>
  403ff2:	aa0f      	add	r2, sp, #60	; 0x3c
  403ff4:	9904      	ldr	r1, [sp, #16]
  403ff6:	9806      	ldr	r0, [sp, #24]
  403ff8:	f7ff f9fc 	bl	4033f4 <__sprint_r.part.0>
  403ffc:	2800      	cmp	r0, #0
  403ffe:	f47f aeeb 	bne.w	403dd8 <_vfiprintf_r+0x964>
  404002:	9a11      	ldr	r2, [sp, #68]	; 0x44
  404004:	e6a9      	b.n	403d5a <_vfiprintf_r+0x8e6>
  404006:	ab0e      	add	r3, sp, #56	; 0x38
  404008:	2202      	movs	r2, #2
  40400a:	931c      	str	r3, [sp, #112]	; 0x70
  40400c:	921d      	str	r2, [sp, #116]	; 0x74
  40400e:	2001      	movs	r0, #1
  404010:	46ca      	mov	sl, r9
  404012:	e5d0      	b.n	403bb6 <_vfiprintf_r+0x742>
  404014:	aa0f      	add	r2, sp, #60	; 0x3c
  404016:	9904      	ldr	r1, [sp, #16]
  404018:	9806      	ldr	r0, [sp, #24]
  40401a:	f7ff f9eb 	bl	4033f4 <__sprint_r.part.0>
  40401e:	2800      	cmp	r0, #0
  404020:	f47f aeda 	bne.w	403dd8 <_vfiprintf_r+0x964>
  404024:	9910      	ldr	r1, [sp, #64]	; 0x40
  404026:	9a11      	ldr	r2, [sp, #68]	; 0x44
  404028:	1c48      	adds	r0, r1, #1
  40402a:	46ca      	mov	sl, r9
  40402c:	e5a4      	b.n	403b78 <_vfiprintf_r+0x704>
  40402e:	9a07      	ldr	r2, [sp, #28]
  404030:	9903      	ldr	r1, [sp, #12]
  404032:	6813      	ldr	r3, [r2, #0]
  404034:	17cd      	asrs	r5, r1, #31
  404036:	4608      	mov	r0, r1
  404038:	3204      	adds	r2, #4
  40403a:	4629      	mov	r1, r5
  40403c:	9207      	str	r2, [sp, #28]
  40403e:	e9c3 0100 	strd	r0, r1, [r3]
  404042:	f7ff ba54 	b.w	4034ee <_vfiprintf_r+0x7a>
  404046:	4658      	mov	r0, fp
  404048:	9607      	str	r6, [sp, #28]
  40404a:	9302      	str	r3, [sp, #8]
  40404c:	f002 fe98 	bl	406d80 <strlen>
  404050:	2400      	movs	r4, #0
  404052:	9005      	str	r0, [sp, #20]
  404054:	f89d 5037 	ldrb.w	r5, [sp, #55]	; 0x37
  404058:	f7ff bb5e 	b.w	403718 <_vfiprintf_r+0x2a4>
  40405c:	aa0f      	add	r2, sp, #60	; 0x3c
  40405e:	9904      	ldr	r1, [sp, #16]
  404060:	9806      	ldr	r0, [sp, #24]
  404062:	f7ff f9c7 	bl	4033f4 <__sprint_r.part.0>
  404066:	2800      	cmp	r0, #0
  404068:	f47f aeb6 	bne.w	403dd8 <_vfiprintf_r+0x964>
  40406c:	9910      	ldr	r1, [sp, #64]	; 0x40
  40406e:	9a11      	ldr	r2, [sp, #68]	; 0x44
  404070:	1c48      	adds	r0, r1, #1
  404072:	46ca      	mov	sl, r9
  404074:	e5a7      	b.n	403bc6 <_vfiprintf_r+0x752>
  404076:	9910      	ldr	r1, [sp, #64]	; 0x40
  404078:	9a11      	ldr	r2, [sp, #68]	; 0x44
  40407a:	4e20      	ldr	r6, [pc, #128]	; (4040fc <_vfiprintf_r+0xc88>)
  40407c:	3101      	adds	r1, #1
  40407e:	f7ff bb90 	b.w	4037a2 <_vfiprintf_r+0x32e>
  404082:	2c06      	cmp	r4, #6
  404084:	bf28      	it	cs
  404086:	2406      	movcs	r4, #6
  404088:	9405      	str	r4, [sp, #20]
  40408a:	9607      	str	r6, [sp, #28]
  40408c:	9401      	str	r4, [sp, #4]
  40408e:	f8df b070 	ldr.w	fp, [pc, #112]	; 404100 <_vfiprintf_r+0xc8c>
  404092:	e4d5      	b.n	403a40 <_vfiprintf_r+0x5cc>
  404094:	9810      	ldr	r0, [sp, #64]	; 0x40
  404096:	4e19      	ldr	r6, [pc, #100]	; (4040fc <_vfiprintf_r+0xc88>)
  404098:	3001      	adds	r0, #1
  40409a:	e603      	b.n	403ca4 <_vfiprintf_r+0x830>
  40409c:	9405      	str	r4, [sp, #20]
  40409e:	f89d 5037 	ldrb.w	r5, [sp, #55]	; 0x37
  4040a2:	9607      	str	r6, [sp, #28]
  4040a4:	9302      	str	r3, [sp, #8]
  4040a6:	4604      	mov	r4, r0
  4040a8:	f7ff bb36 	b.w	403718 <_vfiprintf_r+0x2a4>
  4040ac:	4686      	mov	lr, r0
  4040ae:	f7ff bbce 	b.w	40384e <_vfiprintf_r+0x3da>
  4040b2:	9806      	ldr	r0, [sp, #24]
  4040b4:	aa0f      	add	r2, sp, #60	; 0x3c
  4040b6:	4659      	mov	r1, fp
  4040b8:	f7ff f99c 	bl	4033f4 <__sprint_r.part.0>
  4040bc:	2800      	cmp	r0, #0
  4040be:	f43f ae24 	beq.w	403d0a <_vfiprintf_r+0x896>
  4040c2:	e624      	b.n	403d0e <_vfiprintf_r+0x89a>
  4040c4:	9907      	ldr	r1, [sp, #28]
  4040c6:	f898 2001 	ldrb.w	r2, [r8, #1]
  4040ca:	680c      	ldr	r4, [r1, #0]
  4040cc:	3104      	adds	r1, #4
  4040ce:	ea44 74e4 	orr.w	r4, r4, r4, asr #31
  4040d2:	46b8      	mov	r8, r7
  4040d4:	9107      	str	r1, [sp, #28]
  4040d6:	f7ff ba3f 	b.w	403558 <_vfiprintf_r+0xe4>
  4040da:	f88d 5037 	strb.w	r5, [sp, #55]	; 0x37
  4040de:	e43c      	b.n	40395a <_vfiprintf_r+0x4e6>
  4040e0:	f88d 5037 	strb.w	r5, [sp, #55]	; 0x37
  4040e4:	e521      	b.n	403b2a <_vfiprintf_r+0x6b6>
  4040e6:	f88d 5037 	strb.w	r5, [sp, #55]	; 0x37
  4040ea:	f7ff bbf4 	b.w	4038d6 <_vfiprintf_r+0x462>
  4040ee:	f88d 5037 	strb.w	r5, [sp, #55]	; 0x37
  4040f2:	e491      	b.n	403a18 <_vfiprintf_r+0x5a4>
  4040f4:	f88d 5037 	strb.w	r5, [sp, #55]	; 0x37
  4040f8:	e469      	b.n	4039ce <_vfiprintf_r+0x55a>
  4040fa:	bf00      	nop
  4040fc:	00410ad8 	.word	0x00410ad8
  404100:	00410aac 	.word	0x00410aac

00404104 <__sbprintf>:
  404104:	e92d 41f0 	stmdb	sp!, {r4, r5, r6, r7, r8, lr}
  404108:	460c      	mov	r4, r1
  40410a:	f5ad 6d8d 	sub.w	sp, sp, #1128	; 0x468
  40410e:	8989      	ldrh	r1, [r1, #12]
  404110:	6e66      	ldr	r6, [r4, #100]	; 0x64
  404112:	89e5      	ldrh	r5, [r4, #14]
  404114:	9619      	str	r6, [sp, #100]	; 0x64
  404116:	f021 0102 	bic.w	r1, r1, #2
  40411a:	4606      	mov	r6, r0
  40411c:	69e0      	ldr	r0, [r4, #28]
  40411e:	f8ad 100c 	strh.w	r1, [sp, #12]
  404122:	4617      	mov	r7, r2
  404124:	f44f 6180 	mov.w	r1, #1024	; 0x400
  404128:	6a62      	ldr	r2, [r4, #36]	; 0x24
  40412a:	f8ad 500e 	strh.w	r5, [sp, #14]
  40412e:	4698      	mov	r8, r3
  404130:	ad1a      	add	r5, sp, #104	; 0x68
  404132:	2300      	movs	r3, #0
  404134:	9007      	str	r0, [sp, #28]
  404136:	a816      	add	r0, sp, #88	; 0x58
  404138:	9209      	str	r2, [sp, #36]	; 0x24
  40413a:	9306      	str	r3, [sp, #24]
  40413c:	9500      	str	r5, [sp, #0]
  40413e:	9504      	str	r5, [sp, #16]
  404140:	9102      	str	r1, [sp, #8]
  404142:	9105      	str	r1, [sp, #20]
  404144:	f001 fd14 	bl	405b70 <__retarget_lock_init_recursive>
  404148:	4643      	mov	r3, r8
  40414a:	463a      	mov	r2, r7
  40414c:	4669      	mov	r1, sp
  40414e:	4630      	mov	r0, r6
  404150:	f7ff f990 	bl	403474 <_vfiprintf_r>
  404154:	1e05      	subs	r5, r0, #0
  404156:	db07      	blt.n	404168 <__sbprintf+0x64>
  404158:	4630      	mov	r0, r6
  40415a:	4669      	mov	r1, sp
  40415c:	f001 f8e6 	bl	40532c <_fflush_r>
  404160:	2800      	cmp	r0, #0
  404162:	bf18      	it	ne
  404164:	f04f 35ff 	movne.w	r5, #4294967295
  404168:	f8bd 300c 	ldrh.w	r3, [sp, #12]
  40416c:	065b      	lsls	r3, r3, #25
  40416e:	d503      	bpl.n	404178 <__sbprintf+0x74>
  404170:	89a3      	ldrh	r3, [r4, #12]
  404172:	f043 0340 	orr.w	r3, r3, #64	; 0x40
  404176:	81a3      	strh	r3, [r4, #12]
  404178:	9816      	ldr	r0, [sp, #88]	; 0x58
  40417a:	f001 fcfb 	bl	405b74 <__retarget_lock_close_recursive>
  40417e:	4628      	mov	r0, r5
  404180:	f50d 6d8d 	add.w	sp, sp, #1128	; 0x468
  404184:	e8bd 81f0 	ldmia.w	sp!, {r4, r5, r6, r7, r8, pc}

00404188 <__swsetup_r>:
  404188:	b538      	push	{r3, r4, r5, lr}
  40418a:	4b30      	ldr	r3, [pc, #192]	; (40424c <__swsetup_r+0xc4>)
  40418c:	681b      	ldr	r3, [r3, #0]
  40418e:	4605      	mov	r5, r0
  404190:	460c      	mov	r4, r1
  404192:	b113      	cbz	r3, 40419a <__swsetup_r+0x12>
  404194:	6b9a      	ldr	r2, [r3, #56]	; 0x38
  404196:	2a00      	cmp	r2, #0
  404198:	d038      	beq.n	40420c <__swsetup_r+0x84>
  40419a:	f9b4 200c 	ldrsh.w	r2, [r4, #12]
  40419e:	b293      	uxth	r3, r2
  4041a0:	0718      	lsls	r0, r3, #28
  4041a2:	d50c      	bpl.n	4041be <__swsetup_r+0x36>
  4041a4:	6920      	ldr	r0, [r4, #16]
  4041a6:	b1a8      	cbz	r0, 4041d4 <__swsetup_r+0x4c>
  4041a8:	f013 0201 	ands.w	r2, r3, #1
  4041ac:	d01e      	beq.n	4041ec <__swsetup_r+0x64>
  4041ae:	6963      	ldr	r3, [r4, #20]
  4041b0:	2200      	movs	r2, #0
  4041b2:	425b      	negs	r3, r3
  4041b4:	61a3      	str	r3, [r4, #24]
  4041b6:	60a2      	str	r2, [r4, #8]
  4041b8:	b1f0      	cbz	r0, 4041f8 <__swsetup_r+0x70>
  4041ba:	2000      	movs	r0, #0
  4041bc:	bd38      	pop	{r3, r4, r5, pc}
  4041be:	06d9      	lsls	r1, r3, #27
  4041c0:	d53c      	bpl.n	40423c <__swsetup_r+0xb4>
  4041c2:	0758      	lsls	r0, r3, #29
  4041c4:	d426      	bmi.n	404214 <__swsetup_r+0x8c>
  4041c6:	6920      	ldr	r0, [r4, #16]
  4041c8:	f042 0308 	orr.w	r3, r2, #8
  4041cc:	81a3      	strh	r3, [r4, #12]
  4041ce:	b29b      	uxth	r3, r3
  4041d0:	2800      	cmp	r0, #0
  4041d2:	d1e9      	bne.n	4041a8 <__swsetup_r+0x20>
  4041d4:	f403 7220 	and.w	r2, r3, #640	; 0x280
  4041d8:	f5b2 7f00 	cmp.w	r2, #512	; 0x200
  4041dc:	d0e4      	beq.n	4041a8 <__swsetup_r+0x20>
  4041de:	4628      	mov	r0, r5
  4041e0:	4621      	mov	r1, r4
  4041e2:	f001 fcfb 	bl	405bdc <__smakebuf_r>
  4041e6:	89a3      	ldrh	r3, [r4, #12]
  4041e8:	6920      	ldr	r0, [r4, #16]
  4041ea:	e7dd      	b.n	4041a8 <__swsetup_r+0x20>
  4041ec:	0799      	lsls	r1, r3, #30
  4041ee:	bf58      	it	pl
  4041f0:	6962      	ldrpl	r2, [r4, #20]
  4041f2:	60a2      	str	r2, [r4, #8]
  4041f4:	2800      	cmp	r0, #0
  4041f6:	d1e0      	bne.n	4041ba <__swsetup_r+0x32>
  4041f8:	f9b4 300c 	ldrsh.w	r3, [r4, #12]
  4041fc:	061a      	lsls	r2, r3, #24
  4041fe:	d5dd      	bpl.n	4041bc <__swsetup_r+0x34>
  404200:	f043 0340 	orr.w	r3, r3, #64	; 0x40
  404204:	81a3      	strh	r3, [r4, #12]
  404206:	f04f 30ff 	mov.w	r0, #4294967295
  40420a:	bd38      	pop	{r3, r4, r5, pc}
  40420c:	4618      	mov	r0, r3
  40420e:	f001 f8e5 	bl	4053dc <__sinit>
  404212:	e7c2      	b.n	40419a <__swsetup_r+0x12>
  404214:	6b21      	ldr	r1, [r4, #48]	; 0x30
  404216:	b151      	cbz	r1, 40422e <__swsetup_r+0xa6>
  404218:	f104 0340 	add.w	r3, r4, #64	; 0x40
  40421c:	4299      	cmp	r1, r3
  40421e:	d004      	beq.n	40422a <__swsetup_r+0xa2>
  404220:	4628      	mov	r0, r5
  404222:	f001 fa01 	bl	405628 <_free_r>
  404226:	f9b4 200c 	ldrsh.w	r2, [r4, #12]
  40422a:	2300      	movs	r3, #0
  40422c:	6323      	str	r3, [r4, #48]	; 0x30
  40422e:	2300      	movs	r3, #0
  404230:	6920      	ldr	r0, [r4, #16]
  404232:	6063      	str	r3, [r4, #4]
  404234:	f022 0224 	bic.w	r2, r2, #36	; 0x24
  404238:	6020      	str	r0, [r4, #0]
  40423a:	e7c5      	b.n	4041c8 <__swsetup_r+0x40>
  40423c:	f042 0240 	orr.w	r2, r2, #64	; 0x40
  404240:	2309      	movs	r3, #9
  404242:	602b      	str	r3, [r5, #0]
  404244:	f04f 30ff 	mov.w	r0, #4294967295
  404248:	81a2      	strh	r2, [r4, #12]
  40424a:	bd38      	pop	{r3, r4, r5, pc}
  40424c:	20400008 	.word	0x20400008

00404250 <register_fini>:
  404250:	4b02      	ldr	r3, [pc, #8]	; (40425c <register_fini+0xc>)
  404252:	b113      	cbz	r3, 40425a <register_fini+0xa>
  404254:	4802      	ldr	r0, [pc, #8]	; (404260 <register_fini+0x10>)
  404256:	f000 b805 	b.w	404264 <atexit>
  40425a:	4770      	bx	lr
  40425c:	00000000 	.word	0x00000000
  404260:	0040544d 	.word	0x0040544d

00404264 <atexit>:
  404264:	2300      	movs	r3, #0
  404266:	4601      	mov	r1, r0
  404268:	461a      	mov	r2, r3
  40426a:	4618      	mov	r0, r3
  40426c:	f002 bf1a 	b.w	4070a4 <__register_exitproc>

00404270 <quorem>:
  404270:	6902      	ldr	r2, [r0, #16]
  404272:	690b      	ldr	r3, [r1, #16]
  404274:	4293      	cmp	r3, r2
  404276:	f300 808d 	bgt.w	404394 <quorem+0x124>
  40427a:	e92d 4ff0 	stmdb	sp!, {r4, r5, r6, r7, r8, r9, sl, fp, lr}
  40427e:	f103 38ff 	add.w	r8, r3, #4294967295
  404282:	f101 0714 	add.w	r7, r1, #20
  404286:	f100 0b14 	add.w	fp, r0, #20
  40428a:	f857 2028 	ldr.w	r2, [r7, r8, lsl #2]
  40428e:	f85b 3028 	ldr.w	r3, [fp, r8, lsl #2]
  404292:	ea4f 0488 	mov.w	r4, r8, lsl #2
  404296:	b083      	sub	sp, #12
  404298:	3201      	adds	r2, #1
  40429a:	fbb3 f9f2 	udiv	r9, r3, r2
  40429e:	eb0b 0304 	add.w	r3, fp, r4
  4042a2:	9400      	str	r4, [sp, #0]
  4042a4:	eb07 0a04 	add.w	sl, r7, r4
  4042a8:	9301      	str	r3, [sp, #4]
  4042aa:	f1b9 0f00 	cmp.w	r9, #0
  4042ae:	d039      	beq.n	404324 <quorem+0xb4>
  4042b0:	2500      	movs	r5, #0
  4042b2:	462e      	mov	r6, r5
  4042b4:	46bc      	mov	ip, r7
  4042b6:	46de      	mov	lr, fp
  4042b8:	f85c 4b04 	ldr.w	r4, [ip], #4
  4042bc:	f8de 3000 	ldr.w	r3, [lr]
  4042c0:	b2a2      	uxth	r2, r4
  4042c2:	fb09 5502 	mla	r5, r9, r2, r5
  4042c6:	0c22      	lsrs	r2, r4, #16
  4042c8:	0c2c      	lsrs	r4, r5, #16
  4042ca:	fb09 4202 	mla	r2, r9, r2, r4
  4042ce:	b2ad      	uxth	r5, r5
  4042d0:	1b75      	subs	r5, r6, r5
  4042d2:	b296      	uxth	r6, r2
  4042d4:	ebc6 4613 	rsb	r6, r6, r3, lsr #16
  4042d8:	fa15 f383 	uxtah	r3, r5, r3
  4042dc:	eb06 4623 	add.w	r6, r6, r3, asr #16
  4042e0:	b29b      	uxth	r3, r3
  4042e2:	ea43 4306 	orr.w	r3, r3, r6, lsl #16
  4042e6:	45e2      	cmp	sl, ip
  4042e8:	ea4f 4512 	mov.w	r5, r2, lsr #16
  4042ec:	f84e 3b04 	str.w	r3, [lr], #4
  4042f0:	ea4f 4626 	mov.w	r6, r6, asr #16
  4042f4:	d2e0      	bcs.n	4042b8 <quorem+0x48>
  4042f6:	9b00      	ldr	r3, [sp, #0]
  4042f8:	f85b 3003 	ldr.w	r3, [fp, r3]
  4042fc:	b993      	cbnz	r3, 404324 <quorem+0xb4>
  4042fe:	9c01      	ldr	r4, [sp, #4]
  404300:	1f23      	subs	r3, r4, #4
  404302:	459b      	cmp	fp, r3
  404304:	d20c      	bcs.n	404320 <quorem+0xb0>
  404306:	f854 3c04 	ldr.w	r3, [r4, #-4]
  40430a:	b94b      	cbnz	r3, 404320 <quorem+0xb0>
  40430c:	f1a4 0308 	sub.w	r3, r4, #8
  404310:	e002      	b.n	404318 <quorem+0xa8>
  404312:	681a      	ldr	r2, [r3, #0]
  404314:	3b04      	subs	r3, #4
  404316:	b91a      	cbnz	r2, 404320 <quorem+0xb0>
  404318:	459b      	cmp	fp, r3
  40431a:	f108 38ff 	add.w	r8, r8, #4294967295
  40431e:	d3f8      	bcc.n	404312 <quorem+0xa2>
  404320:	f8c0 8010 	str.w	r8, [r0, #16]
  404324:	4604      	mov	r4, r0
  404326:	f002 fa31 	bl	40678c <__mcmp>
  40432a:	2800      	cmp	r0, #0
  40432c:	db2e      	blt.n	40438c <quorem+0x11c>
  40432e:	f109 0901 	add.w	r9, r9, #1
  404332:	465d      	mov	r5, fp
  404334:	2300      	movs	r3, #0
  404336:	f857 1b04 	ldr.w	r1, [r7], #4
  40433a:	6828      	ldr	r0, [r5, #0]
  40433c:	b28a      	uxth	r2, r1
  40433e:	1a9a      	subs	r2, r3, r2
  404340:	0c0b      	lsrs	r3, r1, #16
  404342:	fa12 f280 	uxtah	r2, r2, r0
  404346:	ebc3 4310 	rsb	r3, r3, r0, lsr #16
  40434a:	eb03 4322 	add.w	r3, r3, r2, asr #16
  40434e:	b292      	uxth	r2, r2
  404350:	ea42 4203 	orr.w	r2, r2, r3, lsl #16
  404354:	45ba      	cmp	sl, r7
  404356:	f845 2b04 	str.w	r2, [r5], #4
  40435a:	ea4f 4323 	mov.w	r3, r3, asr #16
  40435e:	d2ea      	bcs.n	404336 <quorem+0xc6>
  404360:	f85b 2028 	ldr.w	r2, [fp, r8, lsl #2]
  404364:	eb0b 0388 	add.w	r3, fp, r8, lsl #2
  404368:	b982      	cbnz	r2, 40438c <quorem+0x11c>
  40436a:	1f1a      	subs	r2, r3, #4
  40436c:	4593      	cmp	fp, r2
  40436e:	d20b      	bcs.n	404388 <quorem+0x118>
  404370:	f853 2c04 	ldr.w	r2, [r3, #-4]
  404374:	b942      	cbnz	r2, 404388 <quorem+0x118>
  404376:	3b08      	subs	r3, #8
  404378:	e002      	b.n	404380 <quorem+0x110>
  40437a:	681a      	ldr	r2, [r3, #0]
  40437c:	3b04      	subs	r3, #4
  40437e:	b91a      	cbnz	r2, 404388 <quorem+0x118>
  404380:	459b      	cmp	fp, r3
  404382:	f108 38ff 	add.w	r8, r8, #4294967295
  404386:	d3f8      	bcc.n	40437a <quorem+0x10a>
  404388:	f8c4 8010 	str.w	r8, [r4, #16]
  40438c:	4648      	mov	r0, r9
  40438e:	b003      	add	sp, #12
  404390:	e8bd 8ff0 	ldmia.w	sp!, {r4, r5, r6, r7, r8, r9, sl, fp, pc}
  404394:	2000      	movs	r0, #0
  404396:	4770      	bx	lr

00404398 <_dtoa_r>:
  404398:	e92d 4ff0 	stmdb	sp!, {r4, r5, r6, r7, r8, r9, sl, fp, lr}
  40439c:	6c01      	ldr	r1, [r0, #64]	; 0x40
  40439e:	b09b      	sub	sp, #108	; 0x6c
  4043a0:	4604      	mov	r4, r0
  4043a2:	9e27      	ldr	r6, [sp, #156]	; 0x9c
  4043a4:	4692      	mov	sl, r2
  4043a6:	469b      	mov	fp, r3
  4043a8:	b141      	cbz	r1, 4043bc <_dtoa_r+0x24>
  4043aa:	6c42      	ldr	r2, [r0, #68]	; 0x44
  4043ac:	604a      	str	r2, [r1, #4]
  4043ae:	2301      	movs	r3, #1
  4043b0:	4093      	lsls	r3, r2
  4043b2:	608b      	str	r3, [r1, #8]
  4043b4:	f002 f812 	bl	4063dc <_Bfree>
  4043b8:	2300      	movs	r3, #0
  4043ba:	6423      	str	r3, [r4, #64]	; 0x40
  4043bc:	f1bb 0f00 	cmp.w	fp, #0
  4043c0:	465d      	mov	r5, fp
  4043c2:	db35      	blt.n	404430 <_dtoa_r+0x98>
  4043c4:	2300      	movs	r3, #0
  4043c6:	6033      	str	r3, [r6, #0]
  4043c8:	4b9d      	ldr	r3, [pc, #628]	; (404640 <_dtoa_r+0x2a8>)
  4043ca:	43ab      	bics	r3, r5
  4043cc:	d015      	beq.n	4043fa <_dtoa_r+0x62>
  4043ce:	4650      	mov	r0, sl
  4043d0:	4659      	mov	r1, fp
  4043d2:	2200      	movs	r2, #0
  4043d4:	2300      	movs	r3, #0
  4043d6:	f003 fbdd 	bl	407b94 <__aeabi_dcmpeq>
  4043da:	4680      	mov	r8, r0
  4043dc:	2800      	cmp	r0, #0
  4043de:	d02d      	beq.n	40443c <_dtoa_r+0xa4>
  4043e0:	9a26      	ldr	r2, [sp, #152]	; 0x98
  4043e2:	2301      	movs	r3, #1
  4043e4:	6013      	str	r3, [r2, #0]
  4043e6:	9b28      	ldr	r3, [sp, #160]	; 0xa0
  4043e8:	2b00      	cmp	r3, #0
  4043ea:	f000 80bd 	beq.w	404568 <_dtoa_r+0x1d0>
  4043ee:	4895      	ldr	r0, [pc, #596]	; (404644 <_dtoa_r+0x2ac>)
  4043f0:	6018      	str	r0, [r3, #0]
  4043f2:	3801      	subs	r0, #1
  4043f4:	b01b      	add	sp, #108	; 0x6c
  4043f6:	e8bd 8ff0 	ldmia.w	sp!, {r4, r5, r6, r7, r8, r9, sl, fp, pc}
  4043fa:	9a26      	ldr	r2, [sp, #152]	; 0x98
  4043fc:	f242 730f 	movw	r3, #9999	; 0x270f
  404400:	6013      	str	r3, [r2, #0]
  404402:	f1ba 0f00 	cmp.w	sl, #0
  404406:	d10d      	bne.n	404424 <_dtoa_r+0x8c>
  404408:	f3c5 0513 	ubfx	r5, r5, #0, #20
  40440c:	b955      	cbnz	r5, 404424 <_dtoa_r+0x8c>
  40440e:	9b28      	ldr	r3, [sp, #160]	; 0xa0
  404410:	488d      	ldr	r0, [pc, #564]	; (404648 <_dtoa_r+0x2b0>)
  404412:	2b00      	cmp	r3, #0
  404414:	d0ee      	beq.n	4043f4 <_dtoa_r+0x5c>
  404416:	f100 0308 	add.w	r3, r0, #8
  40441a:	9a28      	ldr	r2, [sp, #160]	; 0xa0
  40441c:	6013      	str	r3, [r2, #0]
  40441e:	b01b      	add	sp, #108	; 0x6c
  404420:	e8bd 8ff0 	ldmia.w	sp!, {r4, r5, r6, r7, r8, r9, sl, fp, pc}
  404424:	9b28      	ldr	r3, [sp, #160]	; 0xa0
  404426:	4889      	ldr	r0, [pc, #548]	; (40464c <_dtoa_r+0x2b4>)
  404428:	2b00      	cmp	r3, #0
  40442a:	d0e3      	beq.n	4043f4 <_dtoa_r+0x5c>
  40442c:	1cc3      	adds	r3, r0, #3
  40442e:	e7f4      	b.n	40441a <_dtoa_r+0x82>
  404430:	2301      	movs	r3, #1
  404432:	f02b 4500 	bic.w	r5, fp, #2147483648	; 0x80000000
  404436:	6033      	str	r3, [r6, #0]
  404438:	46ab      	mov	fp, r5
  40443a:	e7c5      	b.n	4043c8 <_dtoa_r+0x30>
  40443c:	aa18      	add	r2, sp, #96	; 0x60
  40443e:	ab19      	add	r3, sp, #100	; 0x64
  404440:	9201      	str	r2, [sp, #4]
  404442:	9300      	str	r3, [sp, #0]
  404444:	4652      	mov	r2, sl
  404446:	465b      	mov	r3, fp
  404448:	4620      	mov	r0, r4
  40444a:	f002 fa3f 	bl	4068cc <__d2b>
  40444e:	0d2b      	lsrs	r3, r5, #20
  404450:	4681      	mov	r9, r0
  404452:	d071      	beq.n	404538 <_dtoa_r+0x1a0>
  404454:	f3cb 0213 	ubfx	r2, fp, #0, #20
  404458:	f042 517f 	orr.w	r1, r2, #1069547520	; 0x3fc00000
  40445c:	9f18      	ldr	r7, [sp, #96]	; 0x60
  40445e:	f8cd 8050 	str.w	r8, [sp, #80]	; 0x50
  404462:	4650      	mov	r0, sl
  404464:	f2a3 36ff 	subw	r6, r3, #1023	; 0x3ff
  404468:	f441 1140 	orr.w	r1, r1, #3145728	; 0x300000
  40446c:	2200      	movs	r2, #0
  40446e:	4b78      	ldr	r3, [pc, #480]	; (404650 <_dtoa_r+0x2b8>)
  404470:	f002 ff74 	bl	40735c <__aeabi_dsub>
  404474:	a36c      	add	r3, pc, #432	; (adr r3, 404628 <_dtoa_r+0x290>)
  404476:	e9d3 2300 	ldrd	r2, r3, [r3]
  40447a:	f003 f923 	bl	4076c4 <__aeabi_dmul>
  40447e:	a36c      	add	r3, pc, #432	; (adr r3, 404630 <_dtoa_r+0x298>)
  404480:	e9d3 2300 	ldrd	r2, r3, [r3]
  404484:	f002 ff6c 	bl	407360 <__adddf3>
  404488:	e9cd 0102 	strd	r0, r1, [sp, #8]
  40448c:	4630      	mov	r0, r6
  40448e:	f003 f8b3 	bl	4075f8 <__aeabi_i2d>
  404492:	a369      	add	r3, pc, #420	; (adr r3, 404638 <_dtoa_r+0x2a0>)
  404494:	e9d3 2300 	ldrd	r2, r3, [r3]
  404498:	f003 f914 	bl	4076c4 <__aeabi_dmul>
  40449c:	4602      	mov	r2, r0
  40449e:	460b      	mov	r3, r1
  4044a0:	e9dd 0102 	ldrd	r0, r1, [sp, #8]
  4044a4:	f002 ff5c 	bl	407360 <__adddf3>
  4044a8:	e9cd 0104 	strd	r0, r1, [sp, #16]
  4044ac:	f003 fbba 	bl	407c24 <__aeabi_d2iz>
  4044b0:	2200      	movs	r2, #0
  4044b2:	9002      	str	r0, [sp, #8]
  4044b4:	2300      	movs	r3, #0
  4044b6:	e9dd 0104 	ldrd	r0, r1, [sp, #16]
  4044ba:	f003 fb75 	bl	407ba8 <__aeabi_dcmplt>
  4044be:	2800      	cmp	r0, #0
  4044c0:	f040 8173 	bne.w	4047aa <_dtoa_r+0x412>
  4044c4:	9d02      	ldr	r5, [sp, #8]
  4044c6:	2d16      	cmp	r5, #22
  4044c8:	f200 815d 	bhi.w	404786 <_dtoa_r+0x3ee>
  4044cc:	4b61      	ldr	r3, [pc, #388]	; (404654 <_dtoa_r+0x2bc>)
  4044ce:	eb03 03c5 	add.w	r3, r3, r5, lsl #3
  4044d2:	e9d3 0100 	ldrd	r0, r1, [r3]
  4044d6:	4652      	mov	r2, sl
  4044d8:	465b      	mov	r3, fp
  4044da:	f003 fb83 	bl	407be4 <__aeabi_dcmpgt>
  4044de:	2800      	cmp	r0, #0
  4044e0:	f000 81c5 	beq.w	40486e <_dtoa_r+0x4d6>
  4044e4:	1e6b      	subs	r3, r5, #1
  4044e6:	9302      	str	r3, [sp, #8]
  4044e8:	2300      	movs	r3, #0
  4044ea:	930e      	str	r3, [sp, #56]	; 0x38
  4044ec:	1bbf      	subs	r7, r7, r6
  4044ee:	1e7b      	subs	r3, r7, #1
  4044f0:	9306      	str	r3, [sp, #24]
  4044f2:	f100 8154 	bmi.w	40479e <_dtoa_r+0x406>
  4044f6:	2300      	movs	r3, #0
  4044f8:	9308      	str	r3, [sp, #32]
  4044fa:	9b02      	ldr	r3, [sp, #8]
  4044fc:	2b00      	cmp	r3, #0
  4044fe:	f2c0 8145 	blt.w	40478c <_dtoa_r+0x3f4>
  404502:	9a06      	ldr	r2, [sp, #24]
  404504:	930d      	str	r3, [sp, #52]	; 0x34
  404506:	4611      	mov	r1, r2
  404508:	4419      	add	r1, r3
  40450a:	2300      	movs	r3, #0
  40450c:	9106      	str	r1, [sp, #24]
  40450e:	930c      	str	r3, [sp, #48]	; 0x30
  404510:	9b24      	ldr	r3, [sp, #144]	; 0x90
  404512:	2b09      	cmp	r3, #9
  404514:	d82a      	bhi.n	40456c <_dtoa_r+0x1d4>
  404516:	2b05      	cmp	r3, #5
  404518:	f340 865b 	ble.w	4051d2 <_dtoa_r+0xe3a>
  40451c:	3b04      	subs	r3, #4
  40451e:	9324      	str	r3, [sp, #144]	; 0x90
  404520:	2500      	movs	r5, #0
  404522:	9b24      	ldr	r3, [sp, #144]	; 0x90
  404524:	3b02      	subs	r3, #2
  404526:	2b03      	cmp	r3, #3
  404528:	f200 8642 	bhi.w	4051b0 <_dtoa_r+0xe18>
  40452c:	e8df f013 	tbh	[pc, r3, lsl #1]
  404530:	02c903d4 	.word	0x02c903d4
  404534:	046103df 	.word	0x046103df
  404538:	9f18      	ldr	r7, [sp, #96]	; 0x60
  40453a:	9e19      	ldr	r6, [sp, #100]	; 0x64
  40453c:	443e      	add	r6, r7
  40453e:	f206 4332 	addw	r3, r6, #1074	; 0x432
  404542:	2b20      	cmp	r3, #32
  404544:	f340 818e 	ble.w	404864 <_dtoa_r+0x4cc>
  404548:	f1c3 0340 	rsb	r3, r3, #64	; 0x40
  40454c:	f206 4012 	addw	r0, r6, #1042	; 0x412
  404550:	409d      	lsls	r5, r3
  404552:	fa2a f000 	lsr.w	r0, sl, r0
  404556:	4328      	orrs	r0, r5
  404558:	f003 f83e 	bl	4075d8 <__aeabi_ui2d>
  40455c:	2301      	movs	r3, #1
  40455e:	3e01      	subs	r6, #1
  404560:	f1a1 71f8 	sub.w	r1, r1, #32505856	; 0x1f00000
  404564:	9314      	str	r3, [sp, #80]	; 0x50
  404566:	e781      	b.n	40446c <_dtoa_r+0xd4>
  404568:	483b      	ldr	r0, [pc, #236]	; (404658 <_dtoa_r+0x2c0>)
  40456a:	e743      	b.n	4043f4 <_dtoa_r+0x5c>
  40456c:	2100      	movs	r1, #0
  40456e:	6461      	str	r1, [r4, #68]	; 0x44
  404570:	4620      	mov	r0, r4
  404572:	9125      	str	r1, [sp, #148]	; 0x94
  404574:	f001 ff0c 	bl	406390 <_Balloc>
  404578:	f04f 33ff 	mov.w	r3, #4294967295
  40457c:	930a      	str	r3, [sp, #40]	; 0x28
  40457e:	9a25      	ldr	r2, [sp, #148]	; 0x94
  404580:	930f      	str	r3, [sp, #60]	; 0x3c
  404582:	2301      	movs	r3, #1
  404584:	9004      	str	r0, [sp, #16]
  404586:	6420      	str	r0, [r4, #64]	; 0x40
  404588:	9224      	str	r2, [sp, #144]	; 0x90
  40458a:	930b      	str	r3, [sp, #44]	; 0x2c
  40458c:	9b19      	ldr	r3, [sp, #100]	; 0x64
  40458e:	2b00      	cmp	r3, #0
  404590:	f2c0 80d9 	blt.w	404746 <_dtoa_r+0x3ae>
  404594:	9a02      	ldr	r2, [sp, #8]
  404596:	2a0e      	cmp	r2, #14
  404598:	f300 80d5 	bgt.w	404746 <_dtoa_r+0x3ae>
  40459c:	4b2d      	ldr	r3, [pc, #180]	; (404654 <_dtoa_r+0x2bc>)
  40459e:	eb03 03c2 	add.w	r3, r3, r2, lsl #3
  4045a2:	e9d3 2300 	ldrd	r2, r3, [r3]
  4045a6:	e9cd 2308 	strd	r2, r3, [sp, #32]
  4045aa:	9b25      	ldr	r3, [sp, #148]	; 0x94
  4045ac:	2b00      	cmp	r3, #0
  4045ae:	f2c0 83ba 	blt.w	404d26 <_dtoa_r+0x98e>
  4045b2:	e9dd 5608 	ldrd	r5, r6, [sp, #32]
  4045b6:	4650      	mov	r0, sl
  4045b8:	462a      	mov	r2, r5
  4045ba:	4633      	mov	r3, r6
  4045bc:	4659      	mov	r1, fp
  4045be:	f003 f9ab 	bl	407918 <__aeabi_ddiv>
  4045c2:	f003 fb2f 	bl	407c24 <__aeabi_d2iz>
  4045c6:	4680      	mov	r8, r0
  4045c8:	f003 f816 	bl	4075f8 <__aeabi_i2d>
  4045cc:	462a      	mov	r2, r5
  4045ce:	4633      	mov	r3, r6
  4045d0:	f003 f878 	bl	4076c4 <__aeabi_dmul>
  4045d4:	460b      	mov	r3, r1
  4045d6:	4602      	mov	r2, r0
  4045d8:	4659      	mov	r1, fp
  4045da:	4650      	mov	r0, sl
  4045dc:	f002 febe 	bl	40735c <__aeabi_dsub>
  4045e0:	9d04      	ldr	r5, [sp, #16]
  4045e2:	f108 0330 	add.w	r3, r8, #48	; 0x30
  4045e6:	702b      	strb	r3, [r5, #0]
  4045e8:	9b0a      	ldr	r3, [sp, #40]	; 0x28
  4045ea:	2b01      	cmp	r3, #1
  4045ec:	4606      	mov	r6, r0
  4045ee:	460f      	mov	r7, r1
  4045f0:	f105 0501 	add.w	r5, r5, #1
  4045f4:	d068      	beq.n	4046c8 <_dtoa_r+0x330>
  4045f6:	2200      	movs	r2, #0
  4045f8:	4b18      	ldr	r3, [pc, #96]	; (40465c <_dtoa_r+0x2c4>)
  4045fa:	f003 f863 	bl	4076c4 <__aeabi_dmul>
  4045fe:	2200      	movs	r2, #0
  404600:	2300      	movs	r3, #0
  404602:	4606      	mov	r6, r0
  404604:	460f      	mov	r7, r1
  404606:	f003 fac5 	bl	407b94 <__aeabi_dcmpeq>
  40460a:	2800      	cmp	r0, #0
  40460c:	f040 8088 	bne.w	404720 <_dtoa_r+0x388>
  404610:	f8cd 902c 	str.w	r9, [sp, #44]	; 0x2c
  404614:	f04f 0a00 	mov.w	sl, #0
  404618:	f8df b040 	ldr.w	fp, [pc, #64]	; 40465c <_dtoa_r+0x2c4>
  40461c:	940c      	str	r4, [sp, #48]	; 0x30
  40461e:	e9dd 8908 	ldrd	r8, r9, [sp, #32]
  404622:	e028      	b.n	404676 <_dtoa_r+0x2de>
  404624:	f3af 8000 	nop.w
  404628:	636f4361 	.word	0x636f4361
  40462c:	3fd287a7 	.word	0x3fd287a7
  404630:	8b60c8b3 	.word	0x8b60c8b3
  404634:	3fc68a28 	.word	0x3fc68a28
  404638:	509f79fb 	.word	0x509f79fb
  40463c:	3fd34413 	.word	0x3fd34413
  404640:	7ff00000 	.word	0x7ff00000
  404644:	00410ab5 	.word	0x00410ab5
  404648:	00410af8 	.word	0x00410af8
  40464c:	00410b04 	.word	0x00410b04
  404650:	3ff80000 	.word	0x3ff80000
  404654:	00410b40 	.word	0x00410b40
  404658:	00410ab4 	.word	0x00410ab4
  40465c:	40240000 	.word	0x40240000
  404660:	f003 f830 	bl	4076c4 <__aeabi_dmul>
  404664:	2200      	movs	r2, #0
  404666:	2300      	movs	r3, #0
  404668:	4606      	mov	r6, r0
  40466a:	460f      	mov	r7, r1
  40466c:	f003 fa92 	bl	407b94 <__aeabi_dcmpeq>
  404670:	2800      	cmp	r0, #0
  404672:	f040 83c1 	bne.w	404df8 <_dtoa_r+0xa60>
  404676:	4642      	mov	r2, r8
  404678:	464b      	mov	r3, r9
  40467a:	4630      	mov	r0, r6
  40467c:	4639      	mov	r1, r7
  40467e:	f003 f94b 	bl	407918 <__aeabi_ddiv>
  404682:	f003 facf 	bl	407c24 <__aeabi_d2iz>
  404686:	4604      	mov	r4, r0
  404688:	f002 ffb6 	bl	4075f8 <__aeabi_i2d>
  40468c:	4642      	mov	r2, r8
  40468e:	464b      	mov	r3, r9
  404690:	f003 f818 	bl	4076c4 <__aeabi_dmul>
  404694:	4602      	mov	r2, r0
  404696:	460b      	mov	r3, r1
  404698:	4630      	mov	r0, r6
  40469a:	4639      	mov	r1, r7
  40469c:	f002 fe5e 	bl	40735c <__aeabi_dsub>
  4046a0:	f104 0e30 	add.w	lr, r4, #48	; 0x30
  4046a4:	9e04      	ldr	r6, [sp, #16]
  4046a6:	f805 eb01 	strb.w	lr, [r5], #1
  4046aa:	eba5 0e06 	sub.w	lr, r5, r6
  4046ae:	9e0a      	ldr	r6, [sp, #40]	; 0x28
  4046b0:	45b6      	cmp	lr, r6
  4046b2:	e9cd 0106 	strd	r0, r1, [sp, #24]
  4046b6:	4652      	mov	r2, sl
  4046b8:	465b      	mov	r3, fp
  4046ba:	d1d1      	bne.n	404660 <_dtoa_r+0x2c8>
  4046bc:	46a0      	mov	r8, r4
  4046be:	f8dd 902c 	ldr.w	r9, [sp, #44]	; 0x2c
  4046c2:	9c0c      	ldr	r4, [sp, #48]	; 0x30
  4046c4:	4606      	mov	r6, r0
  4046c6:	460f      	mov	r7, r1
  4046c8:	4632      	mov	r2, r6
  4046ca:	463b      	mov	r3, r7
  4046cc:	4630      	mov	r0, r6
  4046ce:	4639      	mov	r1, r7
  4046d0:	f002 fe46 	bl	407360 <__adddf3>
  4046d4:	4606      	mov	r6, r0
  4046d6:	460f      	mov	r7, r1
  4046d8:	4602      	mov	r2, r0
  4046da:	460b      	mov	r3, r1
  4046dc:	e9dd 0108 	ldrd	r0, r1, [sp, #32]
  4046e0:	f003 fa62 	bl	407ba8 <__aeabi_dcmplt>
  4046e4:	b948      	cbnz	r0, 4046fa <_dtoa_r+0x362>
  4046e6:	4632      	mov	r2, r6
  4046e8:	463b      	mov	r3, r7
  4046ea:	e9dd 0108 	ldrd	r0, r1, [sp, #32]
  4046ee:	f003 fa51 	bl	407b94 <__aeabi_dcmpeq>
  4046f2:	b1a8      	cbz	r0, 404720 <_dtoa_r+0x388>
  4046f4:	f018 0f01 	tst.w	r8, #1
  4046f8:	d012      	beq.n	404720 <_dtoa_r+0x388>
  4046fa:	f815 8c01 	ldrb.w	r8, [r5, #-1]
  4046fe:	9a04      	ldr	r2, [sp, #16]
  404700:	1e6b      	subs	r3, r5, #1
  404702:	e004      	b.n	40470e <_dtoa_r+0x376>
  404704:	429a      	cmp	r2, r3
  404706:	f000 8401 	beq.w	404f0c <_dtoa_r+0xb74>
  40470a:	f813 8d01 	ldrb.w	r8, [r3, #-1]!
  40470e:	f1b8 0f39 	cmp.w	r8, #57	; 0x39
  404712:	f103 0501 	add.w	r5, r3, #1
  404716:	d0f5      	beq.n	404704 <_dtoa_r+0x36c>
  404718:	f108 0801 	add.w	r8, r8, #1
  40471c:	f883 8000 	strb.w	r8, [r3]
  404720:	4649      	mov	r1, r9
  404722:	4620      	mov	r0, r4
  404724:	f001 fe5a 	bl	4063dc <_Bfree>
  404728:	2200      	movs	r2, #0
  40472a:	9b02      	ldr	r3, [sp, #8]
  40472c:	702a      	strb	r2, [r5, #0]
  40472e:	9a26      	ldr	r2, [sp, #152]	; 0x98
  404730:	3301      	adds	r3, #1
  404732:	6013      	str	r3, [r2, #0]
  404734:	9b28      	ldr	r3, [sp, #160]	; 0xa0
  404736:	2b00      	cmp	r3, #0
  404738:	f000 839e 	beq.w	404e78 <_dtoa_r+0xae0>
  40473c:	9804      	ldr	r0, [sp, #16]
  40473e:	601d      	str	r5, [r3, #0]
  404740:	b01b      	add	sp, #108	; 0x6c
  404742:	e8bd 8ff0 	ldmia.w	sp!, {r4, r5, r6, r7, r8, r9, sl, fp, pc}
  404746:	9a0b      	ldr	r2, [sp, #44]	; 0x2c
  404748:	2a00      	cmp	r2, #0
  40474a:	d03e      	beq.n	4047ca <_dtoa_r+0x432>
  40474c:	9a24      	ldr	r2, [sp, #144]	; 0x90
  40474e:	2a01      	cmp	r2, #1
  404750:	f340 8311 	ble.w	404d76 <_dtoa_r+0x9de>
  404754:	9b0a      	ldr	r3, [sp, #40]	; 0x28
  404756:	9a0c      	ldr	r2, [sp, #48]	; 0x30
  404758:	1e5f      	subs	r7, r3, #1
  40475a:	42ba      	cmp	r2, r7
  40475c:	f2c0 838f 	blt.w	404e7e <_dtoa_r+0xae6>
  404760:	1bd7      	subs	r7, r2, r7
  404762:	9b0a      	ldr	r3, [sp, #40]	; 0x28
  404764:	2b00      	cmp	r3, #0
  404766:	f2c0 848b 	blt.w	405080 <_dtoa_r+0xce8>
  40476a:	9d08      	ldr	r5, [sp, #32]
  40476c:	9b0a      	ldr	r3, [sp, #40]	; 0x28
  40476e:	9a08      	ldr	r2, [sp, #32]
  404770:	441a      	add	r2, r3
  404772:	9208      	str	r2, [sp, #32]
  404774:	9a06      	ldr	r2, [sp, #24]
  404776:	2101      	movs	r1, #1
  404778:	441a      	add	r2, r3
  40477a:	4620      	mov	r0, r4
  40477c:	9206      	str	r2, [sp, #24]
  40477e:	f001 fec7 	bl	406510 <__i2b>
  404782:	4606      	mov	r6, r0
  404784:	e024      	b.n	4047d0 <_dtoa_r+0x438>
  404786:	2301      	movs	r3, #1
  404788:	930e      	str	r3, [sp, #56]	; 0x38
  40478a:	e6af      	b.n	4044ec <_dtoa_r+0x154>
  40478c:	9a08      	ldr	r2, [sp, #32]
  40478e:	9b02      	ldr	r3, [sp, #8]
  404790:	1ad2      	subs	r2, r2, r3
  404792:	425b      	negs	r3, r3
  404794:	930c      	str	r3, [sp, #48]	; 0x30
  404796:	2300      	movs	r3, #0
  404798:	9208      	str	r2, [sp, #32]
  40479a:	930d      	str	r3, [sp, #52]	; 0x34
  40479c:	e6b8      	b.n	404510 <_dtoa_r+0x178>
  40479e:	f1c7 0301 	rsb	r3, r7, #1
  4047a2:	9308      	str	r3, [sp, #32]
  4047a4:	2300      	movs	r3, #0
  4047a6:	9306      	str	r3, [sp, #24]
  4047a8:	e6a7      	b.n	4044fa <_dtoa_r+0x162>
  4047aa:	9d02      	ldr	r5, [sp, #8]
  4047ac:	4628      	mov	r0, r5
  4047ae:	f002 ff23 	bl	4075f8 <__aeabi_i2d>
  4047b2:	4602      	mov	r2, r0
  4047b4:	460b      	mov	r3, r1
  4047b6:	e9dd 0104 	ldrd	r0, r1, [sp, #16]
  4047ba:	f003 f9eb 	bl	407b94 <__aeabi_dcmpeq>
  4047be:	2800      	cmp	r0, #0
  4047c0:	f47f ae80 	bne.w	4044c4 <_dtoa_r+0x12c>
  4047c4:	1e6b      	subs	r3, r5, #1
  4047c6:	9302      	str	r3, [sp, #8]
  4047c8:	e67c      	b.n	4044c4 <_dtoa_r+0x12c>
  4047ca:	9f0c      	ldr	r7, [sp, #48]	; 0x30
  4047cc:	9d08      	ldr	r5, [sp, #32]
  4047ce:	9e0b      	ldr	r6, [sp, #44]	; 0x2c
  4047d0:	2d00      	cmp	r5, #0
  4047d2:	dd0c      	ble.n	4047ee <_dtoa_r+0x456>
  4047d4:	9906      	ldr	r1, [sp, #24]
  4047d6:	2900      	cmp	r1, #0
  4047d8:	460b      	mov	r3, r1
  4047da:	dd08      	ble.n	4047ee <_dtoa_r+0x456>
  4047dc:	42a9      	cmp	r1, r5
  4047de:	9a08      	ldr	r2, [sp, #32]
  4047e0:	bfa8      	it	ge
  4047e2:	462b      	movge	r3, r5
  4047e4:	1ad2      	subs	r2, r2, r3
  4047e6:	1aed      	subs	r5, r5, r3
  4047e8:	1acb      	subs	r3, r1, r3
  4047ea:	9208      	str	r2, [sp, #32]
  4047ec:	9306      	str	r3, [sp, #24]
  4047ee:	9b0c      	ldr	r3, [sp, #48]	; 0x30
  4047f0:	b1d3      	cbz	r3, 404828 <_dtoa_r+0x490>
  4047f2:	9b0b      	ldr	r3, [sp, #44]	; 0x2c
  4047f4:	2b00      	cmp	r3, #0
  4047f6:	f000 82b7 	beq.w	404d68 <_dtoa_r+0x9d0>
  4047fa:	2f00      	cmp	r7, #0
  4047fc:	dd10      	ble.n	404820 <_dtoa_r+0x488>
  4047fe:	4631      	mov	r1, r6
  404800:	463a      	mov	r2, r7
  404802:	4620      	mov	r0, r4
  404804:	f001 ff20 	bl	406648 <__pow5mult>
  404808:	464a      	mov	r2, r9
  40480a:	4601      	mov	r1, r0
  40480c:	4606      	mov	r6, r0
  40480e:	4620      	mov	r0, r4
  404810:	f001 fe88 	bl	406524 <__multiply>
  404814:	4649      	mov	r1, r9
  404816:	4680      	mov	r8, r0
  404818:	4620      	mov	r0, r4
  40481a:	f001 fddf 	bl	4063dc <_Bfree>
  40481e:	46c1      	mov	r9, r8
  404820:	9b0c      	ldr	r3, [sp, #48]	; 0x30
  404822:	1bda      	subs	r2, r3, r7
  404824:	f040 82a1 	bne.w	404d6a <_dtoa_r+0x9d2>
  404828:	2101      	movs	r1, #1
  40482a:	4620      	mov	r0, r4
  40482c:	f001 fe70 	bl	406510 <__i2b>
  404830:	9b0d      	ldr	r3, [sp, #52]	; 0x34
  404832:	2b00      	cmp	r3, #0
  404834:	4680      	mov	r8, r0
  404836:	dd1c      	ble.n	404872 <_dtoa_r+0x4da>
  404838:	4601      	mov	r1, r0
  40483a:	461a      	mov	r2, r3
  40483c:	4620      	mov	r0, r4
  40483e:	f001 ff03 	bl	406648 <__pow5mult>
  404842:	9b24      	ldr	r3, [sp, #144]	; 0x90
  404844:	2b01      	cmp	r3, #1
  404846:	4680      	mov	r8, r0
  404848:	f340 8254 	ble.w	404cf4 <_dtoa_r+0x95c>
  40484c:	2300      	movs	r3, #0
  40484e:	930c      	str	r3, [sp, #48]	; 0x30
  404850:	f8d8 3010 	ldr.w	r3, [r8, #16]
  404854:	eb08 0383 	add.w	r3, r8, r3, lsl #2
  404858:	6918      	ldr	r0, [r3, #16]
  40485a:	f001 fe09 	bl	406470 <__hi0bits>
  40485e:	f1c0 0020 	rsb	r0, r0, #32
  404862:	e010      	b.n	404886 <_dtoa_r+0x4ee>
  404864:	f1c3 0520 	rsb	r5, r3, #32
  404868:	fa0a f005 	lsl.w	r0, sl, r5
  40486c:	e674      	b.n	404558 <_dtoa_r+0x1c0>
  40486e:	900e      	str	r0, [sp, #56]	; 0x38
  404870:	e63c      	b.n	4044ec <_dtoa_r+0x154>
  404872:	9b24      	ldr	r3, [sp, #144]	; 0x90
  404874:	2b01      	cmp	r3, #1
  404876:	f340 8287 	ble.w	404d88 <_dtoa_r+0x9f0>
  40487a:	2300      	movs	r3, #0
  40487c:	930c      	str	r3, [sp, #48]	; 0x30
  40487e:	9b0d      	ldr	r3, [sp, #52]	; 0x34
  404880:	2001      	movs	r0, #1
  404882:	2b00      	cmp	r3, #0
  404884:	d1e4      	bne.n	404850 <_dtoa_r+0x4b8>
  404886:	9a06      	ldr	r2, [sp, #24]
  404888:	4410      	add	r0, r2
  40488a:	f010 001f 	ands.w	r0, r0, #31
  40488e:	f000 80a1 	beq.w	4049d4 <_dtoa_r+0x63c>
  404892:	f1c0 0320 	rsb	r3, r0, #32
  404896:	2b04      	cmp	r3, #4
  404898:	f340 849e 	ble.w	4051d8 <_dtoa_r+0xe40>
  40489c:	9b08      	ldr	r3, [sp, #32]
  40489e:	f1c0 001c 	rsb	r0, r0, #28
  4048a2:	4403      	add	r3, r0
  4048a4:	9308      	str	r3, [sp, #32]
  4048a6:	4613      	mov	r3, r2
  4048a8:	4403      	add	r3, r0
  4048aa:	4405      	add	r5, r0
  4048ac:	9306      	str	r3, [sp, #24]
  4048ae:	9b08      	ldr	r3, [sp, #32]
  4048b0:	2b00      	cmp	r3, #0
  4048b2:	dd05      	ble.n	4048c0 <_dtoa_r+0x528>
  4048b4:	4649      	mov	r1, r9
  4048b6:	461a      	mov	r2, r3
  4048b8:	4620      	mov	r0, r4
  4048ba:	f001 ff15 	bl	4066e8 <__lshift>
  4048be:	4681      	mov	r9, r0
  4048c0:	9b06      	ldr	r3, [sp, #24]
  4048c2:	2b00      	cmp	r3, #0
  4048c4:	dd05      	ble.n	4048d2 <_dtoa_r+0x53a>
  4048c6:	4641      	mov	r1, r8
  4048c8:	461a      	mov	r2, r3
  4048ca:	4620      	mov	r0, r4
  4048cc:	f001 ff0c 	bl	4066e8 <__lshift>
  4048d0:	4680      	mov	r8, r0
  4048d2:	9b0e      	ldr	r3, [sp, #56]	; 0x38
  4048d4:	2b00      	cmp	r3, #0
  4048d6:	f040 8086 	bne.w	4049e6 <_dtoa_r+0x64e>
  4048da:	9b0a      	ldr	r3, [sp, #40]	; 0x28
  4048dc:	2b00      	cmp	r3, #0
  4048de:	f340 8266 	ble.w	404dae <_dtoa_r+0xa16>
  4048e2:	9b0b      	ldr	r3, [sp, #44]	; 0x2c
  4048e4:	2b00      	cmp	r3, #0
  4048e6:	f000 8098 	beq.w	404a1a <_dtoa_r+0x682>
  4048ea:	2d00      	cmp	r5, #0
  4048ec:	dd05      	ble.n	4048fa <_dtoa_r+0x562>
  4048ee:	4631      	mov	r1, r6
  4048f0:	462a      	mov	r2, r5
  4048f2:	4620      	mov	r0, r4
  4048f4:	f001 fef8 	bl	4066e8 <__lshift>
  4048f8:	4606      	mov	r6, r0
  4048fa:	9b0c      	ldr	r3, [sp, #48]	; 0x30
  4048fc:	2b00      	cmp	r3, #0
  4048fe:	f040 8337 	bne.w	404f70 <_dtoa_r+0xbd8>
  404902:	9606      	str	r6, [sp, #24]
  404904:	9b0a      	ldr	r3, [sp, #40]	; 0x28
  404906:	9a04      	ldr	r2, [sp, #16]
  404908:	f8dd b018 	ldr.w	fp, [sp, #24]
  40490c:	3b01      	subs	r3, #1
  40490e:	18d3      	adds	r3, r2, r3
  404910:	930b      	str	r3, [sp, #44]	; 0x2c
  404912:	f00a 0301 	and.w	r3, sl, #1
  404916:	930c      	str	r3, [sp, #48]	; 0x30
  404918:	4617      	mov	r7, r2
  40491a:	46c2      	mov	sl, r8
  40491c:	4651      	mov	r1, sl
  40491e:	4648      	mov	r0, r9
  404920:	f7ff fca6 	bl	404270 <quorem>
  404924:	4631      	mov	r1, r6
  404926:	4605      	mov	r5, r0
  404928:	4648      	mov	r0, r9
  40492a:	f001 ff2f 	bl	40678c <__mcmp>
  40492e:	465a      	mov	r2, fp
  404930:	900a      	str	r0, [sp, #40]	; 0x28
  404932:	4651      	mov	r1, sl
  404934:	4620      	mov	r0, r4
  404936:	f001 ff45 	bl	4067c4 <__mdiff>
  40493a:	68c2      	ldr	r2, [r0, #12]
  40493c:	4680      	mov	r8, r0
  40493e:	f105 0330 	add.w	r3, r5, #48	; 0x30
  404942:	2a00      	cmp	r2, #0
  404944:	f040 822b 	bne.w	404d9e <_dtoa_r+0xa06>
  404948:	4601      	mov	r1, r0
  40494a:	4648      	mov	r0, r9
  40494c:	9308      	str	r3, [sp, #32]
  40494e:	f001 ff1d 	bl	40678c <__mcmp>
  404952:	4641      	mov	r1, r8
  404954:	9006      	str	r0, [sp, #24]
  404956:	4620      	mov	r0, r4
  404958:	f001 fd40 	bl	4063dc <_Bfree>
  40495c:	9a06      	ldr	r2, [sp, #24]
  40495e:	9b08      	ldr	r3, [sp, #32]
  404960:	b932      	cbnz	r2, 404970 <_dtoa_r+0x5d8>
  404962:	9924      	ldr	r1, [sp, #144]	; 0x90
  404964:	b921      	cbnz	r1, 404970 <_dtoa_r+0x5d8>
  404966:	9a0c      	ldr	r2, [sp, #48]	; 0x30
  404968:	2a00      	cmp	r2, #0
  40496a:	f000 83ef 	beq.w	40514c <_dtoa_r+0xdb4>
  40496e:	9a24      	ldr	r2, [sp, #144]	; 0x90
  404970:	990a      	ldr	r1, [sp, #40]	; 0x28
  404972:	2900      	cmp	r1, #0
  404974:	f2c0 829f 	blt.w	404eb6 <_dtoa_r+0xb1e>
  404978:	d105      	bne.n	404986 <_dtoa_r+0x5ee>
  40497a:	9924      	ldr	r1, [sp, #144]	; 0x90
  40497c:	b919      	cbnz	r1, 404986 <_dtoa_r+0x5ee>
  40497e:	990c      	ldr	r1, [sp, #48]	; 0x30
  404980:	2900      	cmp	r1, #0
  404982:	f000 8298 	beq.w	404eb6 <_dtoa_r+0xb1e>
  404986:	2a00      	cmp	r2, #0
  404988:	f300 8306 	bgt.w	404f98 <_dtoa_r+0xc00>
  40498c:	9a0b      	ldr	r2, [sp, #44]	; 0x2c
  40498e:	703b      	strb	r3, [r7, #0]
  404990:	f107 0801 	add.w	r8, r7, #1
  404994:	4297      	cmp	r7, r2
  404996:	4645      	mov	r5, r8
  404998:	f000 830c 	beq.w	404fb4 <_dtoa_r+0xc1c>
  40499c:	4649      	mov	r1, r9
  40499e:	2300      	movs	r3, #0
  4049a0:	220a      	movs	r2, #10
  4049a2:	4620      	mov	r0, r4
  4049a4:	f001 fd24 	bl	4063f0 <__multadd>
  4049a8:	455e      	cmp	r6, fp
  4049aa:	4681      	mov	r9, r0
  4049ac:	4631      	mov	r1, r6
  4049ae:	f04f 0300 	mov.w	r3, #0
  4049b2:	f04f 020a 	mov.w	r2, #10
  4049b6:	4620      	mov	r0, r4
  4049b8:	f000 81eb 	beq.w	404d92 <_dtoa_r+0x9fa>
  4049bc:	f001 fd18 	bl	4063f0 <__multadd>
  4049c0:	4659      	mov	r1, fp
  4049c2:	4606      	mov	r6, r0
  4049c4:	2300      	movs	r3, #0
  4049c6:	220a      	movs	r2, #10
  4049c8:	4620      	mov	r0, r4
  4049ca:	f001 fd11 	bl	4063f0 <__multadd>
  4049ce:	4647      	mov	r7, r8
  4049d0:	4683      	mov	fp, r0
  4049d2:	e7a3      	b.n	40491c <_dtoa_r+0x584>
  4049d4:	201c      	movs	r0, #28
  4049d6:	9b08      	ldr	r3, [sp, #32]
  4049d8:	4403      	add	r3, r0
  4049da:	9308      	str	r3, [sp, #32]
  4049dc:	9b06      	ldr	r3, [sp, #24]
  4049de:	4403      	add	r3, r0
  4049e0:	4405      	add	r5, r0
  4049e2:	9306      	str	r3, [sp, #24]
  4049e4:	e763      	b.n	4048ae <_dtoa_r+0x516>
  4049e6:	4641      	mov	r1, r8
  4049e8:	4648      	mov	r0, r9
  4049ea:	f001 fecf 	bl	40678c <__mcmp>
  4049ee:	2800      	cmp	r0, #0
  4049f0:	f6bf af73 	bge.w	4048da <_dtoa_r+0x542>
  4049f4:	9f02      	ldr	r7, [sp, #8]
  4049f6:	4649      	mov	r1, r9
  4049f8:	2300      	movs	r3, #0
  4049fa:	220a      	movs	r2, #10
  4049fc:	4620      	mov	r0, r4
  4049fe:	3f01      	subs	r7, #1
  404a00:	9702      	str	r7, [sp, #8]
  404a02:	f001 fcf5 	bl	4063f0 <__multadd>
  404a06:	9b0b      	ldr	r3, [sp, #44]	; 0x2c
  404a08:	4681      	mov	r9, r0
  404a0a:	2b00      	cmp	r3, #0
  404a0c:	f040 83b6 	bne.w	40517c <_dtoa_r+0xde4>
  404a10:	9b0f      	ldr	r3, [sp, #60]	; 0x3c
  404a12:	2b00      	cmp	r3, #0
  404a14:	f340 83bf 	ble.w	405196 <_dtoa_r+0xdfe>
  404a18:	930a      	str	r3, [sp, #40]	; 0x28
  404a1a:	f8dd b010 	ldr.w	fp, [sp, #16]
  404a1e:	9f0a      	ldr	r7, [sp, #40]	; 0x28
  404a20:	465d      	mov	r5, fp
  404a22:	e002      	b.n	404a2a <_dtoa_r+0x692>
  404a24:	f001 fce4 	bl	4063f0 <__multadd>
  404a28:	4681      	mov	r9, r0
  404a2a:	4641      	mov	r1, r8
  404a2c:	4648      	mov	r0, r9
  404a2e:	f7ff fc1f 	bl	404270 <quorem>
  404a32:	f100 0a30 	add.w	sl, r0, #48	; 0x30
  404a36:	f805 ab01 	strb.w	sl, [r5], #1
  404a3a:	eba5 030b 	sub.w	r3, r5, fp
  404a3e:	42bb      	cmp	r3, r7
  404a40:	f04f 020a 	mov.w	r2, #10
  404a44:	f04f 0300 	mov.w	r3, #0
  404a48:	4649      	mov	r1, r9
  404a4a:	4620      	mov	r0, r4
  404a4c:	dbea      	blt.n	404a24 <_dtoa_r+0x68c>
  404a4e:	9b04      	ldr	r3, [sp, #16]
  404a50:	9a0a      	ldr	r2, [sp, #40]	; 0x28
  404a52:	2a01      	cmp	r2, #1
  404a54:	bfac      	ite	ge
  404a56:	189b      	addge	r3, r3, r2
  404a58:	3301      	addlt	r3, #1
  404a5a:	461d      	mov	r5, r3
  404a5c:	f04f 0b00 	mov.w	fp, #0
  404a60:	4649      	mov	r1, r9
  404a62:	2201      	movs	r2, #1
  404a64:	4620      	mov	r0, r4
  404a66:	f001 fe3f 	bl	4066e8 <__lshift>
  404a6a:	4641      	mov	r1, r8
  404a6c:	4681      	mov	r9, r0
  404a6e:	f001 fe8d 	bl	40678c <__mcmp>
  404a72:	2800      	cmp	r0, #0
  404a74:	f340 823d 	ble.w	404ef2 <_dtoa_r+0xb5a>
  404a78:	f815 2c01 	ldrb.w	r2, [r5, #-1]
  404a7c:	9904      	ldr	r1, [sp, #16]
  404a7e:	1e6b      	subs	r3, r5, #1
  404a80:	e004      	b.n	404a8c <_dtoa_r+0x6f4>
  404a82:	428b      	cmp	r3, r1
  404a84:	f000 81ae 	beq.w	404de4 <_dtoa_r+0xa4c>
  404a88:	f813 2d01 	ldrb.w	r2, [r3, #-1]!
  404a8c:	2a39      	cmp	r2, #57	; 0x39
  404a8e:	f103 0501 	add.w	r5, r3, #1
  404a92:	d0f6      	beq.n	404a82 <_dtoa_r+0x6ea>
  404a94:	3201      	adds	r2, #1
  404a96:	701a      	strb	r2, [r3, #0]
  404a98:	4641      	mov	r1, r8
  404a9a:	4620      	mov	r0, r4
  404a9c:	f001 fc9e 	bl	4063dc <_Bfree>
  404aa0:	2e00      	cmp	r6, #0
  404aa2:	f43f ae3d 	beq.w	404720 <_dtoa_r+0x388>
  404aa6:	f1bb 0f00 	cmp.w	fp, #0
  404aaa:	d005      	beq.n	404ab8 <_dtoa_r+0x720>
  404aac:	45b3      	cmp	fp, r6
  404aae:	d003      	beq.n	404ab8 <_dtoa_r+0x720>
  404ab0:	4659      	mov	r1, fp
  404ab2:	4620      	mov	r0, r4
  404ab4:	f001 fc92 	bl	4063dc <_Bfree>
  404ab8:	4631      	mov	r1, r6
  404aba:	4620      	mov	r0, r4
  404abc:	f001 fc8e 	bl	4063dc <_Bfree>
  404ac0:	e62e      	b.n	404720 <_dtoa_r+0x388>
  404ac2:	2300      	movs	r3, #0
  404ac4:	930b      	str	r3, [sp, #44]	; 0x2c
  404ac6:	9b02      	ldr	r3, [sp, #8]
  404ac8:	9a25      	ldr	r2, [sp, #148]	; 0x94
  404aca:	4413      	add	r3, r2
  404acc:	930f      	str	r3, [sp, #60]	; 0x3c
  404ace:	3301      	adds	r3, #1
  404ad0:	2b01      	cmp	r3, #1
  404ad2:	461f      	mov	r7, r3
  404ad4:	461e      	mov	r6, r3
  404ad6:	930a      	str	r3, [sp, #40]	; 0x28
  404ad8:	bfb8      	it	lt
  404ada:	2701      	movlt	r7, #1
  404adc:	2100      	movs	r1, #0
  404ade:	2f17      	cmp	r7, #23
  404ae0:	6461      	str	r1, [r4, #68]	; 0x44
  404ae2:	d90a      	bls.n	404afa <_dtoa_r+0x762>
  404ae4:	2201      	movs	r2, #1
  404ae6:	2304      	movs	r3, #4
  404ae8:	005b      	lsls	r3, r3, #1
  404aea:	f103 0014 	add.w	r0, r3, #20
  404aee:	4287      	cmp	r7, r0
  404af0:	4611      	mov	r1, r2
  404af2:	f102 0201 	add.w	r2, r2, #1
  404af6:	d2f7      	bcs.n	404ae8 <_dtoa_r+0x750>
  404af8:	6461      	str	r1, [r4, #68]	; 0x44
  404afa:	4620      	mov	r0, r4
  404afc:	f001 fc48 	bl	406390 <_Balloc>
  404b00:	2e0e      	cmp	r6, #14
  404b02:	9004      	str	r0, [sp, #16]
  404b04:	6420      	str	r0, [r4, #64]	; 0x40
  404b06:	f63f ad41 	bhi.w	40458c <_dtoa_r+0x1f4>
  404b0a:	2d00      	cmp	r5, #0
  404b0c:	f43f ad3e 	beq.w	40458c <_dtoa_r+0x1f4>
  404b10:	9902      	ldr	r1, [sp, #8]
  404b12:	2900      	cmp	r1, #0
  404b14:	e9cd ab10 	strd	sl, fp, [sp, #64]	; 0x40
  404b18:	f340 8202 	ble.w	404f20 <_dtoa_r+0xb88>
  404b1c:	4bb8      	ldr	r3, [pc, #736]	; (404e00 <_dtoa_r+0xa68>)
  404b1e:	f001 020f 	and.w	r2, r1, #15
  404b22:	110d      	asrs	r5, r1, #4
  404b24:	eb03 03c2 	add.w	r3, r3, r2, lsl #3
  404b28:	06e9      	lsls	r1, r5, #27
  404b2a:	e9d3 6700 	ldrd	r6, r7, [r3]
  404b2e:	f140 81ae 	bpl.w	404e8e <_dtoa_r+0xaf6>
  404b32:	4bb4      	ldr	r3, [pc, #720]	; (404e04 <_dtoa_r+0xa6c>)
  404b34:	4650      	mov	r0, sl
  404b36:	4659      	mov	r1, fp
  404b38:	e9d3 2308 	ldrd	r2, r3, [r3, #32]
  404b3c:	f002 feec 	bl	407918 <__aeabi_ddiv>
  404b40:	e9cd 0112 	strd	r0, r1, [sp, #72]	; 0x48
  404b44:	f005 050f 	and.w	r5, r5, #15
  404b48:	f04f 0a03 	mov.w	sl, #3
  404b4c:	b18d      	cbz	r5, 404b72 <_dtoa_r+0x7da>
  404b4e:	f8df 82b4 	ldr.w	r8, [pc, #692]	; 404e04 <_dtoa_r+0xa6c>
  404b52:	07ea      	lsls	r2, r5, #31
  404b54:	d509      	bpl.n	404b6a <_dtoa_r+0x7d2>
  404b56:	4630      	mov	r0, r6
  404b58:	4639      	mov	r1, r7
  404b5a:	e9d8 2300 	ldrd	r2, r3, [r8]
  404b5e:	f002 fdb1 	bl	4076c4 <__aeabi_dmul>
  404b62:	f10a 0a01 	add.w	sl, sl, #1
  404b66:	4606      	mov	r6, r0
  404b68:	460f      	mov	r7, r1
  404b6a:	106d      	asrs	r5, r5, #1
  404b6c:	f108 0808 	add.w	r8, r8, #8
  404b70:	d1ef      	bne.n	404b52 <_dtoa_r+0x7ba>
  404b72:	463b      	mov	r3, r7
  404b74:	4632      	mov	r2, r6
  404b76:	e9dd 0112 	ldrd	r0, r1, [sp, #72]	; 0x48
  404b7a:	f002 fecd 	bl	407918 <__aeabi_ddiv>
  404b7e:	4607      	mov	r7, r0
  404b80:	4688      	mov	r8, r1
  404b82:	9b0e      	ldr	r3, [sp, #56]	; 0x38
  404b84:	b143      	cbz	r3, 404b98 <_dtoa_r+0x800>
  404b86:	2200      	movs	r2, #0
  404b88:	4b9f      	ldr	r3, [pc, #636]	; (404e08 <_dtoa_r+0xa70>)
  404b8a:	4638      	mov	r0, r7
  404b8c:	4641      	mov	r1, r8
  404b8e:	f003 f80b 	bl	407ba8 <__aeabi_dcmplt>
  404b92:	2800      	cmp	r0, #0
  404b94:	f040 8286 	bne.w	4050a4 <_dtoa_r+0xd0c>
  404b98:	4650      	mov	r0, sl
  404b9a:	f002 fd2d 	bl	4075f8 <__aeabi_i2d>
  404b9e:	463a      	mov	r2, r7
  404ba0:	4643      	mov	r3, r8
  404ba2:	f002 fd8f 	bl	4076c4 <__aeabi_dmul>
  404ba6:	4b99      	ldr	r3, [pc, #612]	; (404e0c <_dtoa_r+0xa74>)
  404ba8:	2200      	movs	r2, #0
  404baa:	f002 fbd9 	bl	407360 <__adddf3>
  404bae:	9b0a      	ldr	r3, [sp, #40]	; 0x28
  404bb0:	4605      	mov	r5, r0
  404bb2:	f1a1 7650 	sub.w	r6, r1, #54525952	; 0x3400000
  404bb6:	2b00      	cmp	r3, #0
  404bb8:	f000 813e 	beq.w	404e38 <_dtoa_r+0xaa0>
  404bbc:	9b02      	ldr	r3, [sp, #8]
  404bbe:	9315      	str	r3, [sp, #84]	; 0x54
  404bc0:	9b0a      	ldr	r3, [sp, #40]	; 0x28
  404bc2:	9312      	str	r3, [sp, #72]	; 0x48
  404bc4:	9b0b      	ldr	r3, [sp, #44]	; 0x2c
  404bc6:	2b00      	cmp	r3, #0
  404bc8:	f000 81fa 	beq.w	404fc0 <_dtoa_r+0xc28>
  404bcc:	9a12      	ldr	r2, [sp, #72]	; 0x48
  404bce:	4b8c      	ldr	r3, [pc, #560]	; (404e00 <_dtoa_r+0xa68>)
  404bd0:	498f      	ldr	r1, [pc, #572]	; (404e10 <_dtoa_r+0xa78>)
  404bd2:	eb03 03c2 	add.w	r3, r3, r2, lsl #3
  404bd6:	e953 2302 	ldrd	r2, r3, [r3, #-8]
  404bda:	2000      	movs	r0, #0
  404bdc:	f002 fe9c 	bl	407918 <__aeabi_ddiv>
  404be0:	462a      	mov	r2, r5
  404be2:	4633      	mov	r3, r6
  404be4:	f002 fbba 	bl	40735c <__aeabi_dsub>
  404be8:	4682      	mov	sl, r0
  404bea:	468b      	mov	fp, r1
  404bec:	4638      	mov	r0, r7
  404bee:	4641      	mov	r1, r8
  404bf0:	f003 f818 	bl	407c24 <__aeabi_d2iz>
  404bf4:	4605      	mov	r5, r0
  404bf6:	f002 fcff 	bl	4075f8 <__aeabi_i2d>
  404bfa:	4602      	mov	r2, r0
  404bfc:	460b      	mov	r3, r1
  404bfe:	4638      	mov	r0, r7
  404c00:	4641      	mov	r1, r8
  404c02:	f002 fbab 	bl	40735c <__aeabi_dsub>
  404c06:	3530      	adds	r5, #48	; 0x30
  404c08:	fa5f f885 	uxtb.w	r8, r5
  404c0c:	9d04      	ldr	r5, [sp, #16]
  404c0e:	4606      	mov	r6, r0
  404c10:	460f      	mov	r7, r1
  404c12:	f885 8000 	strb.w	r8, [r5]
  404c16:	4602      	mov	r2, r0
  404c18:	460b      	mov	r3, r1
  404c1a:	4650      	mov	r0, sl
  404c1c:	4659      	mov	r1, fp
  404c1e:	3501      	adds	r5, #1
  404c20:	f002 ffe0 	bl	407be4 <__aeabi_dcmpgt>
  404c24:	2800      	cmp	r0, #0
  404c26:	d154      	bne.n	404cd2 <_dtoa_r+0x93a>
  404c28:	4632      	mov	r2, r6
  404c2a:	463b      	mov	r3, r7
  404c2c:	2000      	movs	r0, #0
  404c2e:	4976      	ldr	r1, [pc, #472]	; (404e08 <_dtoa_r+0xa70>)
  404c30:	f002 fb94 	bl	40735c <__aeabi_dsub>
  404c34:	4602      	mov	r2, r0
  404c36:	460b      	mov	r3, r1
  404c38:	4650      	mov	r0, sl
  404c3a:	4659      	mov	r1, fp
  404c3c:	f002 ffd2 	bl	407be4 <__aeabi_dcmpgt>
  404c40:	2800      	cmp	r0, #0
  404c42:	f040 8270 	bne.w	405126 <_dtoa_r+0xd8e>
  404c46:	9a12      	ldr	r2, [sp, #72]	; 0x48
  404c48:	2a01      	cmp	r2, #1
  404c4a:	f000 8111 	beq.w	404e70 <_dtoa_r+0xad8>
  404c4e:	9b12      	ldr	r3, [sp, #72]	; 0x48
  404c50:	9a04      	ldr	r2, [sp, #16]
  404c52:	f8cd 9048 	str.w	r9, [sp, #72]	; 0x48
  404c56:	4413      	add	r3, r2
  404c58:	4699      	mov	r9, r3
  404c5a:	e00d      	b.n	404c78 <_dtoa_r+0x8e0>
  404c5c:	2000      	movs	r0, #0
  404c5e:	496a      	ldr	r1, [pc, #424]	; (404e08 <_dtoa_r+0xa70>)
  404c60:	f002 fb7c 	bl	40735c <__aeabi_dsub>
  404c64:	4652      	mov	r2, sl
  404c66:	465b      	mov	r3, fp
  404c68:	f002 ff9e 	bl	407ba8 <__aeabi_dcmplt>
  404c6c:	2800      	cmp	r0, #0
  404c6e:	f040 8258 	bne.w	405122 <_dtoa_r+0xd8a>
  404c72:	454d      	cmp	r5, r9
  404c74:	f000 80fa 	beq.w	404e6c <_dtoa_r+0xad4>
  404c78:	4650      	mov	r0, sl
  404c7a:	4659      	mov	r1, fp
  404c7c:	2200      	movs	r2, #0
  404c7e:	4b65      	ldr	r3, [pc, #404]	; (404e14 <_dtoa_r+0xa7c>)
  404c80:	f002 fd20 	bl	4076c4 <__aeabi_dmul>
  404c84:	2200      	movs	r2, #0
  404c86:	4b63      	ldr	r3, [pc, #396]	; (404e14 <_dtoa_r+0xa7c>)
  404c88:	4682      	mov	sl, r0
  404c8a:	468b      	mov	fp, r1
  404c8c:	4630      	mov	r0, r6
  404c8e:	4639      	mov	r1, r7
  404c90:	f002 fd18 	bl	4076c4 <__aeabi_dmul>
  404c94:	460f      	mov	r7, r1
  404c96:	4606      	mov	r6, r0
  404c98:	f002 ffc4 	bl	407c24 <__aeabi_d2iz>
  404c9c:	4680      	mov	r8, r0
  404c9e:	f002 fcab 	bl	4075f8 <__aeabi_i2d>
  404ca2:	4602      	mov	r2, r0
  404ca4:	460b      	mov	r3, r1
  404ca6:	4630      	mov	r0, r6
  404ca8:	4639      	mov	r1, r7
  404caa:	f002 fb57 	bl	40735c <__aeabi_dsub>
  404cae:	f108 0830 	add.w	r8, r8, #48	; 0x30
  404cb2:	fa5f f888 	uxtb.w	r8, r8
  404cb6:	4652      	mov	r2, sl
  404cb8:	465b      	mov	r3, fp
  404cba:	f805 8b01 	strb.w	r8, [r5], #1
  404cbe:	4606      	mov	r6, r0
  404cc0:	460f      	mov	r7, r1
  404cc2:	f002 ff71 	bl	407ba8 <__aeabi_dcmplt>
  404cc6:	4632      	mov	r2, r6
  404cc8:	463b      	mov	r3, r7
  404cca:	2800      	cmp	r0, #0
  404ccc:	d0c6      	beq.n	404c5c <_dtoa_r+0x8c4>
  404cce:	f8dd 9048 	ldr.w	r9, [sp, #72]	; 0x48
  404cd2:	9b15      	ldr	r3, [sp, #84]	; 0x54
  404cd4:	9302      	str	r3, [sp, #8]
  404cd6:	e523      	b.n	404720 <_dtoa_r+0x388>
  404cd8:	2300      	movs	r3, #0
  404cda:	930b      	str	r3, [sp, #44]	; 0x2c
  404cdc:	9b25      	ldr	r3, [sp, #148]	; 0x94
  404cde:	2b00      	cmp	r3, #0
  404ce0:	f340 80dc 	ble.w	404e9c <_dtoa_r+0xb04>
  404ce4:	461f      	mov	r7, r3
  404ce6:	461e      	mov	r6, r3
  404ce8:	930f      	str	r3, [sp, #60]	; 0x3c
  404cea:	930a      	str	r3, [sp, #40]	; 0x28
  404cec:	e6f6      	b.n	404adc <_dtoa_r+0x744>
  404cee:	2301      	movs	r3, #1
  404cf0:	930b      	str	r3, [sp, #44]	; 0x2c
  404cf2:	e7f3      	b.n	404cdc <_dtoa_r+0x944>
  404cf4:	f1ba 0f00 	cmp.w	sl, #0
  404cf8:	f47f ada8 	bne.w	40484c <_dtoa_r+0x4b4>
  404cfc:	f3cb 0313 	ubfx	r3, fp, #0, #20
  404d00:	2b00      	cmp	r3, #0
  404d02:	f47f adba 	bne.w	40487a <_dtoa_r+0x4e2>
  404d06:	f02b 4700 	bic.w	r7, fp, #2147483648	; 0x80000000
  404d0a:	0d3f      	lsrs	r7, r7, #20
  404d0c:	053f      	lsls	r7, r7, #20
  404d0e:	2f00      	cmp	r7, #0
  404d10:	f000 820d 	beq.w	40512e <_dtoa_r+0xd96>
  404d14:	9b08      	ldr	r3, [sp, #32]
  404d16:	3301      	adds	r3, #1
  404d18:	9308      	str	r3, [sp, #32]
  404d1a:	9b06      	ldr	r3, [sp, #24]
  404d1c:	3301      	adds	r3, #1
  404d1e:	9306      	str	r3, [sp, #24]
  404d20:	2301      	movs	r3, #1
  404d22:	930c      	str	r3, [sp, #48]	; 0x30
  404d24:	e5ab      	b.n	40487e <_dtoa_r+0x4e6>
  404d26:	9b0a      	ldr	r3, [sp, #40]	; 0x28
  404d28:	2b00      	cmp	r3, #0
  404d2a:	f73f ac42 	bgt.w	4045b2 <_dtoa_r+0x21a>
  404d2e:	f040 8221 	bne.w	405174 <_dtoa_r+0xddc>
  404d32:	2200      	movs	r2, #0
  404d34:	4b38      	ldr	r3, [pc, #224]	; (404e18 <_dtoa_r+0xa80>)
  404d36:	e9dd 0108 	ldrd	r0, r1, [sp, #32]
  404d3a:	f002 fcc3 	bl	4076c4 <__aeabi_dmul>
  404d3e:	4652      	mov	r2, sl
  404d40:	465b      	mov	r3, fp
  404d42:	f002 ff45 	bl	407bd0 <__aeabi_dcmpge>
  404d46:	f8dd 8028 	ldr.w	r8, [sp, #40]	; 0x28
  404d4a:	4646      	mov	r6, r8
  404d4c:	2800      	cmp	r0, #0
  404d4e:	d041      	beq.n	404dd4 <_dtoa_r+0xa3c>
  404d50:	9b25      	ldr	r3, [sp, #148]	; 0x94
  404d52:	9d04      	ldr	r5, [sp, #16]
  404d54:	43db      	mvns	r3, r3
  404d56:	9302      	str	r3, [sp, #8]
  404d58:	4641      	mov	r1, r8
  404d5a:	4620      	mov	r0, r4
  404d5c:	f001 fb3e 	bl	4063dc <_Bfree>
  404d60:	2e00      	cmp	r6, #0
  404d62:	f43f acdd 	beq.w	404720 <_dtoa_r+0x388>
  404d66:	e6a7      	b.n	404ab8 <_dtoa_r+0x720>
  404d68:	9a0c      	ldr	r2, [sp, #48]	; 0x30
  404d6a:	4649      	mov	r1, r9
  404d6c:	4620      	mov	r0, r4
  404d6e:	f001 fc6b 	bl	406648 <__pow5mult>
  404d72:	4681      	mov	r9, r0
  404d74:	e558      	b.n	404828 <_dtoa_r+0x490>
  404d76:	9a14      	ldr	r2, [sp, #80]	; 0x50
  404d78:	2a00      	cmp	r2, #0
  404d7a:	f000 8187 	beq.w	40508c <_dtoa_r+0xcf4>
  404d7e:	f203 4333 	addw	r3, r3, #1075	; 0x433
  404d82:	9f0c      	ldr	r7, [sp, #48]	; 0x30
  404d84:	9d08      	ldr	r5, [sp, #32]
  404d86:	e4f2      	b.n	40476e <_dtoa_r+0x3d6>
  404d88:	f1ba 0f00 	cmp.w	sl, #0
  404d8c:	f47f ad75 	bne.w	40487a <_dtoa_r+0x4e2>
  404d90:	e7b4      	b.n	404cfc <_dtoa_r+0x964>
  404d92:	f001 fb2d 	bl	4063f0 <__multadd>
  404d96:	4647      	mov	r7, r8
  404d98:	4606      	mov	r6, r0
  404d9a:	4683      	mov	fp, r0
  404d9c:	e5be      	b.n	40491c <_dtoa_r+0x584>
  404d9e:	4601      	mov	r1, r0
  404da0:	4620      	mov	r0, r4
  404da2:	9306      	str	r3, [sp, #24]
  404da4:	f001 fb1a 	bl	4063dc <_Bfree>
  404da8:	2201      	movs	r2, #1
  404daa:	9b06      	ldr	r3, [sp, #24]
  404dac:	e5e0      	b.n	404970 <_dtoa_r+0x5d8>
  404dae:	9b24      	ldr	r3, [sp, #144]	; 0x90
  404db0:	2b02      	cmp	r3, #2
  404db2:	f77f ad96 	ble.w	4048e2 <_dtoa_r+0x54a>
  404db6:	9b0a      	ldr	r3, [sp, #40]	; 0x28
  404db8:	2b00      	cmp	r3, #0
  404dba:	d1c9      	bne.n	404d50 <_dtoa_r+0x9b8>
  404dbc:	4641      	mov	r1, r8
  404dbe:	2205      	movs	r2, #5
  404dc0:	4620      	mov	r0, r4
  404dc2:	f001 fb15 	bl	4063f0 <__multadd>
  404dc6:	4601      	mov	r1, r0
  404dc8:	4680      	mov	r8, r0
  404dca:	4648      	mov	r0, r9
  404dcc:	f001 fcde 	bl	40678c <__mcmp>
  404dd0:	2800      	cmp	r0, #0
  404dd2:	ddbd      	ble.n	404d50 <_dtoa_r+0x9b8>
  404dd4:	9a02      	ldr	r2, [sp, #8]
  404dd6:	9904      	ldr	r1, [sp, #16]
  404dd8:	2331      	movs	r3, #49	; 0x31
  404dda:	3201      	adds	r2, #1
  404ddc:	9202      	str	r2, [sp, #8]
  404dde:	700b      	strb	r3, [r1, #0]
  404de0:	1c4d      	adds	r5, r1, #1
  404de2:	e7b9      	b.n	404d58 <_dtoa_r+0x9c0>
  404de4:	9a02      	ldr	r2, [sp, #8]
  404de6:	3201      	adds	r2, #1
  404de8:	9202      	str	r2, [sp, #8]
  404dea:	9a04      	ldr	r2, [sp, #16]
  404dec:	2331      	movs	r3, #49	; 0x31
  404dee:	7013      	strb	r3, [r2, #0]
  404df0:	e652      	b.n	404a98 <_dtoa_r+0x700>
  404df2:	2301      	movs	r3, #1
  404df4:	930b      	str	r3, [sp, #44]	; 0x2c
  404df6:	e666      	b.n	404ac6 <_dtoa_r+0x72e>
  404df8:	f8dd 902c 	ldr.w	r9, [sp, #44]	; 0x2c
  404dfc:	9c0c      	ldr	r4, [sp, #48]	; 0x30
  404dfe:	e48f      	b.n	404720 <_dtoa_r+0x388>
  404e00:	00410b40 	.word	0x00410b40
  404e04:	00410b18 	.word	0x00410b18
  404e08:	3ff00000 	.word	0x3ff00000
  404e0c:	401c0000 	.word	0x401c0000
  404e10:	3fe00000 	.word	0x3fe00000
  404e14:	40240000 	.word	0x40240000
  404e18:	40140000 	.word	0x40140000
  404e1c:	4650      	mov	r0, sl
  404e1e:	f002 fbeb 	bl	4075f8 <__aeabi_i2d>
  404e22:	463a      	mov	r2, r7
  404e24:	4643      	mov	r3, r8
  404e26:	f002 fc4d 	bl	4076c4 <__aeabi_dmul>
  404e2a:	2200      	movs	r2, #0
  404e2c:	4bc1      	ldr	r3, [pc, #772]	; (405134 <_dtoa_r+0xd9c>)
  404e2e:	f002 fa97 	bl	407360 <__adddf3>
  404e32:	4605      	mov	r5, r0
  404e34:	f1a1 7650 	sub.w	r6, r1, #54525952	; 0x3400000
  404e38:	4641      	mov	r1, r8
  404e3a:	2200      	movs	r2, #0
  404e3c:	4bbe      	ldr	r3, [pc, #760]	; (405138 <_dtoa_r+0xda0>)
  404e3e:	4638      	mov	r0, r7
  404e40:	f002 fa8c 	bl	40735c <__aeabi_dsub>
  404e44:	462a      	mov	r2, r5
  404e46:	4633      	mov	r3, r6
  404e48:	4682      	mov	sl, r0
  404e4a:	468b      	mov	fp, r1
  404e4c:	f002 feca 	bl	407be4 <__aeabi_dcmpgt>
  404e50:	4680      	mov	r8, r0
  404e52:	2800      	cmp	r0, #0
  404e54:	f040 8110 	bne.w	405078 <_dtoa_r+0xce0>
  404e58:	462a      	mov	r2, r5
  404e5a:	f106 4300 	add.w	r3, r6, #2147483648	; 0x80000000
  404e5e:	4650      	mov	r0, sl
  404e60:	4659      	mov	r1, fp
  404e62:	f002 fea1 	bl	407ba8 <__aeabi_dcmplt>
  404e66:	b118      	cbz	r0, 404e70 <_dtoa_r+0xad8>
  404e68:	4646      	mov	r6, r8
  404e6a:	e771      	b.n	404d50 <_dtoa_r+0x9b8>
  404e6c:	f8dd 9048 	ldr.w	r9, [sp, #72]	; 0x48
  404e70:	e9dd ab10 	ldrd	sl, fp, [sp, #64]	; 0x40
  404e74:	f7ff bb8a 	b.w	40458c <_dtoa_r+0x1f4>
  404e78:	9804      	ldr	r0, [sp, #16]
  404e7a:	f7ff babb 	b.w	4043f4 <_dtoa_r+0x5c>
  404e7e:	9b0c      	ldr	r3, [sp, #48]	; 0x30
  404e80:	9a0d      	ldr	r2, [sp, #52]	; 0x34
  404e82:	970c      	str	r7, [sp, #48]	; 0x30
  404e84:	1afb      	subs	r3, r7, r3
  404e86:	441a      	add	r2, r3
  404e88:	920d      	str	r2, [sp, #52]	; 0x34
  404e8a:	2700      	movs	r7, #0
  404e8c:	e469      	b.n	404762 <_dtoa_r+0x3ca>
  404e8e:	e9dd 2310 	ldrd	r2, r3, [sp, #64]	; 0x40
  404e92:	f04f 0a02 	mov.w	sl, #2
  404e96:	e9cd 2312 	strd	r2, r3, [sp, #72]	; 0x48
  404e9a:	e657      	b.n	404b4c <_dtoa_r+0x7b4>
  404e9c:	2100      	movs	r1, #0
  404e9e:	2301      	movs	r3, #1
  404ea0:	6461      	str	r1, [r4, #68]	; 0x44
  404ea2:	4620      	mov	r0, r4
  404ea4:	9325      	str	r3, [sp, #148]	; 0x94
  404ea6:	f001 fa73 	bl	406390 <_Balloc>
  404eaa:	9b25      	ldr	r3, [sp, #148]	; 0x94
  404eac:	9004      	str	r0, [sp, #16]
  404eae:	6420      	str	r0, [r4, #64]	; 0x40
  404eb0:	930a      	str	r3, [sp, #40]	; 0x28
  404eb2:	930f      	str	r3, [sp, #60]	; 0x3c
  404eb4:	e629      	b.n	404b0a <_dtoa_r+0x772>
  404eb6:	2a00      	cmp	r2, #0
  404eb8:	46d0      	mov	r8, sl
  404eba:	f8cd b018 	str.w	fp, [sp, #24]
  404ebe:	469a      	mov	sl, r3
  404ec0:	dd11      	ble.n	404ee6 <_dtoa_r+0xb4e>
  404ec2:	4649      	mov	r1, r9
  404ec4:	2201      	movs	r2, #1
  404ec6:	4620      	mov	r0, r4
  404ec8:	f001 fc0e 	bl	4066e8 <__lshift>
  404ecc:	4641      	mov	r1, r8
  404ece:	4681      	mov	r9, r0
  404ed0:	f001 fc5c 	bl	40678c <__mcmp>
  404ed4:	2800      	cmp	r0, #0
  404ed6:	f340 8146 	ble.w	405166 <_dtoa_r+0xdce>
  404eda:	f1ba 0f39 	cmp.w	sl, #57	; 0x39
  404ede:	f000 8106 	beq.w	4050ee <_dtoa_r+0xd56>
  404ee2:	f105 0a31 	add.w	sl, r5, #49	; 0x31
  404ee6:	46b3      	mov	fp, r6
  404ee8:	f887 a000 	strb.w	sl, [r7]
  404eec:	1c7d      	adds	r5, r7, #1
  404eee:	9e06      	ldr	r6, [sp, #24]
  404ef0:	e5d2      	b.n	404a98 <_dtoa_r+0x700>
  404ef2:	d104      	bne.n	404efe <_dtoa_r+0xb66>
  404ef4:	f01a 0f01 	tst.w	sl, #1
  404ef8:	d001      	beq.n	404efe <_dtoa_r+0xb66>
  404efa:	e5bd      	b.n	404a78 <_dtoa_r+0x6e0>
  404efc:	4615      	mov	r5, r2
  404efe:	f815 3c01 	ldrb.w	r3, [r5, #-1]
  404f02:	2b30      	cmp	r3, #48	; 0x30
  404f04:	f105 32ff 	add.w	r2, r5, #4294967295
  404f08:	d0f8      	beq.n	404efc <_dtoa_r+0xb64>
  404f0a:	e5c5      	b.n	404a98 <_dtoa_r+0x700>
  404f0c:	9904      	ldr	r1, [sp, #16]
  404f0e:	2230      	movs	r2, #48	; 0x30
  404f10:	700a      	strb	r2, [r1, #0]
  404f12:	9a02      	ldr	r2, [sp, #8]
  404f14:	f815 8c01 	ldrb.w	r8, [r5, #-1]
  404f18:	3201      	adds	r2, #1
  404f1a:	9202      	str	r2, [sp, #8]
  404f1c:	f7ff bbfc 	b.w	404718 <_dtoa_r+0x380>
  404f20:	f000 80bb 	beq.w	40509a <_dtoa_r+0xd02>
  404f24:	9b02      	ldr	r3, [sp, #8]
  404f26:	425d      	negs	r5, r3
  404f28:	4b84      	ldr	r3, [pc, #528]	; (40513c <_dtoa_r+0xda4>)
  404f2a:	f005 020f 	and.w	r2, r5, #15
  404f2e:	eb03 03c2 	add.w	r3, r3, r2, lsl #3
  404f32:	e9d3 2300 	ldrd	r2, r3, [r3]
  404f36:	e9dd 0110 	ldrd	r0, r1, [sp, #64]	; 0x40
  404f3a:	f002 fbc3 	bl	4076c4 <__aeabi_dmul>
  404f3e:	112d      	asrs	r5, r5, #4
  404f40:	4607      	mov	r7, r0
  404f42:	4688      	mov	r8, r1
  404f44:	f000 812c 	beq.w	4051a0 <_dtoa_r+0xe08>
  404f48:	4e7d      	ldr	r6, [pc, #500]	; (405140 <_dtoa_r+0xda8>)
  404f4a:	f04f 0a02 	mov.w	sl, #2
  404f4e:	07eb      	lsls	r3, r5, #31
  404f50:	d509      	bpl.n	404f66 <_dtoa_r+0xbce>
  404f52:	4638      	mov	r0, r7
  404f54:	4641      	mov	r1, r8
  404f56:	e9d6 2300 	ldrd	r2, r3, [r6]
  404f5a:	f002 fbb3 	bl	4076c4 <__aeabi_dmul>
  404f5e:	f10a 0a01 	add.w	sl, sl, #1
  404f62:	4607      	mov	r7, r0
  404f64:	4688      	mov	r8, r1
  404f66:	106d      	asrs	r5, r5, #1
  404f68:	f106 0608 	add.w	r6, r6, #8
  404f6c:	d1ef      	bne.n	404f4e <_dtoa_r+0xbb6>
  404f6e:	e608      	b.n	404b82 <_dtoa_r+0x7ea>
  404f70:	6871      	ldr	r1, [r6, #4]
  404f72:	4620      	mov	r0, r4
  404f74:	f001 fa0c 	bl	406390 <_Balloc>
  404f78:	6933      	ldr	r3, [r6, #16]
  404f7a:	3302      	adds	r3, #2
  404f7c:	009a      	lsls	r2, r3, #2
  404f7e:	4605      	mov	r5, r0
  404f80:	f106 010c 	add.w	r1, r6, #12
  404f84:	300c      	adds	r0, #12
  404f86:	f7fc fe29 	bl	401bdc <memcpy>
  404f8a:	4629      	mov	r1, r5
  404f8c:	2201      	movs	r2, #1
  404f8e:	4620      	mov	r0, r4
  404f90:	f001 fbaa 	bl	4066e8 <__lshift>
  404f94:	9006      	str	r0, [sp, #24]
  404f96:	e4b5      	b.n	404904 <_dtoa_r+0x56c>
  404f98:	2b39      	cmp	r3, #57	; 0x39
  404f9a:	f8cd b018 	str.w	fp, [sp, #24]
  404f9e:	46d0      	mov	r8, sl
  404fa0:	f000 80a5 	beq.w	4050ee <_dtoa_r+0xd56>
  404fa4:	f103 0a01 	add.w	sl, r3, #1
  404fa8:	46b3      	mov	fp, r6
  404faa:	f887 a000 	strb.w	sl, [r7]
  404fae:	1c7d      	adds	r5, r7, #1
  404fb0:	9e06      	ldr	r6, [sp, #24]
  404fb2:	e571      	b.n	404a98 <_dtoa_r+0x700>
  404fb4:	465a      	mov	r2, fp
  404fb6:	46d0      	mov	r8, sl
  404fb8:	46b3      	mov	fp, r6
  404fba:	469a      	mov	sl, r3
  404fbc:	4616      	mov	r6, r2
  404fbe:	e54f      	b.n	404a60 <_dtoa_r+0x6c8>
  404fc0:	9b12      	ldr	r3, [sp, #72]	; 0x48
  404fc2:	495e      	ldr	r1, [pc, #376]	; (40513c <_dtoa_r+0xda4>)
  404fc4:	eb01 01c3 	add.w	r1, r1, r3, lsl #3
  404fc8:	462a      	mov	r2, r5
  404fca:	4633      	mov	r3, r6
  404fcc:	e951 0102 	ldrd	r0, r1, [r1, #-8]
  404fd0:	f002 fb78 	bl	4076c4 <__aeabi_dmul>
  404fd4:	e9cd 0116 	strd	r0, r1, [sp, #88]	; 0x58
  404fd8:	4638      	mov	r0, r7
  404fda:	4641      	mov	r1, r8
  404fdc:	f002 fe22 	bl	407c24 <__aeabi_d2iz>
  404fe0:	4605      	mov	r5, r0
  404fe2:	f002 fb09 	bl	4075f8 <__aeabi_i2d>
  404fe6:	460b      	mov	r3, r1
  404fe8:	4602      	mov	r2, r0
  404fea:	4641      	mov	r1, r8
  404fec:	4638      	mov	r0, r7
  404fee:	f002 f9b5 	bl	40735c <__aeabi_dsub>
  404ff2:	9b12      	ldr	r3, [sp, #72]	; 0x48
  404ff4:	460f      	mov	r7, r1
  404ff6:	9904      	ldr	r1, [sp, #16]
  404ff8:	3530      	adds	r5, #48	; 0x30
  404ffa:	2b01      	cmp	r3, #1
  404ffc:	700d      	strb	r5, [r1, #0]
  404ffe:	4606      	mov	r6, r0
  405000:	f101 0501 	add.w	r5, r1, #1
  405004:	d026      	beq.n	405054 <_dtoa_r+0xcbc>
  405006:	9b12      	ldr	r3, [sp, #72]	; 0x48
  405008:	9a04      	ldr	r2, [sp, #16]
  40500a:	f8df b13c 	ldr.w	fp, [pc, #316]	; 405148 <_dtoa_r+0xdb0>
  40500e:	f8cd 9048 	str.w	r9, [sp, #72]	; 0x48
  405012:	4413      	add	r3, r2
  405014:	f04f 0a00 	mov.w	sl, #0
  405018:	4699      	mov	r9, r3
  40501a:	4652      	mov	r2, sl
  40501c:	465b      	mov	r3, fp
  40501e:	4630      	mov	r0, r6
  405020:	4639      	mov	r1, r7
  405022:	f002 fb4f 	bl	4076c4 <__aeabi_dmul>
  405026:	460f      	mov	r7, r1
  405028:	4606      	mov	r6, r0
  40502a:	f002 fdfb 	bl	407c24 <__aeabi_d2iz>
  40502e:	4680      	mov	r8, r0
  405030:	f002 fae2 	bl	4075f8 <__aeabi_i2d>
  405034:	f108 0830 	add.w	r8, r8, #48	; 0x30
  405038:	4602      	mov	r2, r0
  40503a:	460b      	mov	r3, r1
  40503c:	4630      	mov	r0, r6
  40503e:	4639      	mov	r1, r7
  405040:	f002 f98c 	bl	40735c <__aeabi_dsub>
  405044:	f805 8b01 	strb.w	r8, [r5], #1
  405048:	454d      	cmp	r5, r9
  40504a:	4606      	mov	r6, r0
  40504c:	460f      	mov	r7, r1
  40504e:	d1e4      	bne.n	40501a <_dtoa_r+0xc82>
  405050:	f8dd 9048 	ldr.w	r9, [sp, #72]	; 0x48
  405054:	4b3b      	ldr	r3, [pc, #236]	; (405144 <_dtoa_r+0xdac>)
  405056:	2200      	movs	r2, #0
  405058:	e9dd 0116 	ldrd	r0, r1, [sp, #88]	; 0x58
  40505c:	f002 f980 	bl	407360 <__adddf3>
  405060:	4632      	mov	r2, r6
  405062:	463b      	mov	r3, r7
  405064:	f002 fda0 	bl	407ba8 <__aeabi_dcmplt>
  405068:	2800      	cmp	r0, #0
  40506a:	d046      	beq.n	4050fa <_dtoa_r+0xd62>
  40506c:	9b15      	ldr	r3, [sp, #84]	; 0x54
  40506e:	9302      	str	r3, [sp, #8]
  405070:	f815 8c01 	ldrb.w	r8, [r5, #-1]
  405074:	f7ff bb43 	b.w	4046fe <_dtoa_r+0x366>
  405078:	f04f 0800 	mov.w	r8, #0
  40507c:	4646      	mov	r6, r8
  40507e:	e6a9      	b.n	404dd4 <_dtoa_r+0xa3c>
  405080:	9b08      	ldr	r3, [sp, #32]
  405082:	9a0a      	ldr	r2, [sp, #40]	; 0x28
  405084:	1a9d      	subs	r5, r3, r2
  405086:	2300      	movs	r3, #0
  405088:	f7ff bb71 	b.w	40476e <_dtoa_r+0x3d6>
  40508c:	9b18      	ldr	r3, [sp, #96]	; 0x60
  40508e:	9f0c      	ldr	r7, [sp, #48]	; 0x30
  405090:	9d08      	ldr	r5, [sp, #32]
  405092:	f1c3 0336 	rsb	r3, r3, #54	; 0x36
  405096:	f7ff bb6a 	b.w	40476e <_dtoa_r+0x3d6>
  40509a:	e9dd 7810 	ldrd	r7, r8, [sp, #64]	; 0x40
  40509e:	f04f 0a02 	mov.w	sl, #2
  4050a2:	e56e      	b.n	404b82 <_dtoa_r+0x7ea>
  4050a4:	9b0a      	ldr	r3, [sp, #40]	; 0x28
  4050a6:	2b00      	cmp	r3, #0
  4050a8:	f43f aeb8 	beq.w	404e1c <_dtoa_r+0xa84>
  4050ac:	9b0f      	ldr	r3, [sp, #60]	; 0x3c
  4050ae:	2b00      	cmp	r3, #0
  4050b0:	f77f aede 	ble.w	404e70 <_dtoa_r+0xad8>
  4050b4:	2200      	movs	r2, #0
  4050b6:	4b24      	ldr	r3, [pc, #144]	; (405148 <_dtoa_r+0xdb0>)
  4050b8:	4638      	mov	r0, r7
  4050ba:	4641      	mov	r1, r8
  4050bc:	f002 fb02 	bl	4076c4 <__aeabi_dmul>
  4050c0:	4607      	mov	r7, r0
  4050c2:	4688      	mov	r8, r1
  4050c4:	f10a 0001 	add.w	r0, sl, #1
  4050c8:	f002 fa96 	bl	4075f8 <__aeabi_i2d>
  4050cc:	463a      	mov	r2, r7
  4050ce:	4643      	mov	r3, r8
  4050d0:	f002 faf8 	bl	4076c4 <__aeabi_dmul>
  4050d4:	2200      	movs	r2, #0
  4050d6:	4b17      	ldr	r3, [pc, #92]	; (405134 <_dtoa_r+0xd9c>)
  4050d8:	f002 f942 	bl	407360 <__adddf3>
  4050dc:	9a02      	ldr	r2, [sp, #8]
  4050de:	9b0f      	ldr	r3, [sp, #60]	; 0x3c
  4050e0:	9312      	str	r3, [sp, #72]	; 0x48
  4050e2:	3a01      	subs	r2, #1
  4050e4:	4605      	mov	r5, r0
  4050e6:	f1a1 7650 	sub.w	r6, r1, #54525952	; 0x3400000
  4050ea:	9215      	str	r2, [sp, #84]	; 0x54
  4050ec:	e56a      	b.n	404bc4 <_dtoa_r+0x82c>
  4050ee:	2239      	movs	r2, #57	; 0x39
  4050f0:	46b3      	mov	fp, r6
  4050f2:	703a      	strb	r2, [r7, #0]
  4050f4:	9e06      	ldr	r6, [sp, #24]
  4050f6:	1c7d      	adds	r5, r7, #1
  4050f8:	e4c0      	b.n	404a7c <_dtoa_r+0x6e4>
  4050fa:	e9dd 2316 	ldrd	r2, r3, [sp, #88]	; 0x58
  4050fe:	2000      	movs	r0, #0
  405100:	4910      	ldr	r1, [pc, #64]	; (405144 <_dtoa_r+0xdac>)
  405102:	f002 f92b 	bl	40735c <__aeabi_dsub>
  405106:	4632      	mov	r2, r6
  405108:	463b      	mov	r3, r7
  40510a:	f002 fd6b 	bl	407be4 <__aeabi_dcmpgt>
  40510e:	b908      	cbnz	r0, 405114 <_dtoa_r+0xd7c>
  405110:	e6ae      	b.n	404e70 <_dtoa_r+0xad8>
  405112:	4615      	mov	r5, r2
  405114:	f815 3c01 	ldrb.w	r3, [r5, #-1]
  405118:	2b30      	cmp	r3, #48	; 0x30
  40511a:	f105 32ff 	add.w	r2, r5, #4294967295
  40511e:	d0f8      	beq.n	405112 <_dtoa_r+0xd7a>
  405120:	e5d7      	b.n	404cd2 <_dtoa_r+0x93a>
  405122:	f8dd 9048 	ldr.w	r9, [sp, #72]	; 0x48
  405126:	9b15      	ldr	r3, [sp, #84]	; 0x54
  405128:	9302      	str	r3, [sp, #8]
  40512a:	f7ff bae8 	b.w	4046fe <_dtoa_r+0x366>
  40512e:	970c      	str	r7, [sp, #48]	; 0x30
  405130:	f7ff bba5 	b.w	40487e <_dtoa_r+0x4e6>
  405134:	401c0000 	.word	0x401c0000
  405138:	40140000 	.word	0x40140000
  40513c:	00410b40 	.word	0x00410b40
  405140:	00410b18 	.word	0x00410b18
  405144:	3fe00000 	.word	0x3fe00000
  405148:	40240000 	.word	0x40240000
  40514c:	2b39      	cmp	r3, #57	; 0x39
  40514e:	f8cd b018 	str.w	fp, [sp, #24]
  405152:	46d0      	mov	r8, sl
  405154:	f8dd b028 	ldr.w	fp, [sp, #40]	; 0x28
  405158:	469a      	mov	sl, r3
  40515a:	d0c8      	beq.n	4050ee <_dtoa_r+0xd56>
  40515c:	f1bb 0f00 	cmp.w	fp, #0
  405160:	f73f aebf 	bgt.w	404ee2 <_dtoa_r+0xb4a>
  405164:	e6bf      	b.n	404ee6 <_dtoa_r+0xb4e>
  405166:	f47f aebe 	bne.w	404ee6 <_dtoa_r+0xb4e>
  40516a:	f01a 0f01 	tst.w	sl, #1
  40516e:	f43f aeba 	beq.w	404ee6 <_dtoa_r+0xb4e>
  405172:	e6b2      	b.n	404eda <_dtoa_r+0xb42>
  405174:	f04f 0800 	mov.w	r8, #0
  405178:	4646      	mov	r6, r8
  40517a:	e5e9      	b.n	404d50 <_dtoa_r+0x9b8>
  40517c:	4631      	mov	r1, r6
  40517e:	2300      	movs	r3, #0
  405180:	220a      	movs	r2, #10
  405182:	4620      	mov	r0, r4
  405184:	f001 f934 	bl	4063f0 <__multadd>
  405188:	9b0f      	ldr	r3, [sp, #60]	; 0x3c
  40518a:	2b00      	cmp	r3, #0
  40518c:	4606      	mov	r6, r0
  40518e:	dd0a      	ble.n	4051a6 <_dtoa_r+0xe0e>
  405190:	930a      	str	r3, [sp, #40]	; 0x28
  405192:	f7ff bbaa 	b.w	4048ea <_dtoa_r+0x552>
  405196:	9b24      	ldr	r3, [sp, #144]	; 0x90
  405198:	2b02      	cmp	r3, #2
  40519a:	dc23      	bgt.n	4051e4 <_dtoa_r+0xe4c>
  40519c:	9b0f      	ldr	r3, [sp, #60]	; 0x3c
  40519e:	e43b      	b.n	404a18 <_dtoa_r+0x680>
  4051a0:	f04f 0a02 	mov.w	sl, #2
  4051a4:	e4ed      	b.n	404b82 <_dtoa_r+0x7ea>
  4051a6:	9b24      	ldr	r3, [sp, #144]	; 0x90
  4051a8:	2b02      	cmp	r3, #2
  4051aa:	dc1b      	bgt.n	4051e4 <_dtoa_r+0xe4c>
  4051ac:	9b0f      	ldr	r3, [sp, #60]	; 0x3c
  4051ae:	e7ef      	b.n	405190 <_dtoa_r+0xdf8>
  4051b0:	2500      	movs	r5, #0
  4051b2:	6465      	str	r5, [r4, #68]	; 0x44
  4051b4:	4629      	mov	r1, r5
  4051b6:	4620      	mov	r0, r4
  4051b8:	f001 f8ea 	bl	406390 <_Balloc>
  4051bc:	f04f 33ff 	mov.w	r3, #4294967295
  4051c0:	930a      	str	r3, [sp, #40]	; 0x28
  4051c2:	930f      	str	r3, [sp, #60]	; 0x3c
  4051c4:	2301      	movs	r3, #1
  4051c6:	9004      	str	r0, [sp, #16]
  4051c8:	9525      	str	r5, [sp, #148]	; 0x94
  4051ca:	6420      	str	r0, [r4, #64]	; 0x40
  4051cc:	930b      	str	r3, [sp, #44]	; 0x2c
  4051ce:	f7ff b9dd 	b.w	40458c <_dtoa_r+0x1f4>
  4051d2:	2501      	movs	r5, #1
  4051d4:	f7ff b9a5 	b.w	404522 <_dtoa_r+0x18a>
  4051d8:	f43f ab69 	beq.w	4048ae <_dtoa_r+0x516>
  4051dc:	f1c0 003c 	rsb	r0, r0, #60	; 0x3c
  4051e0:	f7ff bbf9 	b.w	4049d6 <_dtoa_r+0x63e>
  4051e4:	9b0f      	ldr	r3, [sp, #60]	; 0x3c
  4051e6:	930a      	str	r3, [sp, #40]	; 0x28
  4051e8:	e5e5      	b.n	404db6 <_dtoa_r+0xa1e>
  4051ea:	bf00      	nop

004051ec <__sflush_r>:
  4051ec:	f9b1 300c 	ldrsh.w	r3, [r1, #12]
  4051f0:	b29a      	uxth	r2, r3
  4051f2:	e92d 41f0 	stmdb	sp!, {r4, r5, r6, r7, r8, lr}
  4051f6:	460d      	mov	r5, r1
  4051f8:	0711      	lsls	r1, r2, #28
  4051fa:	4680      	mov	r8, r0
  4051fc:	d43a      	bmi.n	405274 <__sflush_r+0x88>
  4051fe:	686a      	ldr	r2, [r5, #4]
  405200:	f443 6300 	orr.w	r3, r3, #2048	; 0x800
  405204:	2a00      	cmp	r2, #0
  405206:	81ab      	strh	r3, [r5, #12]
  405208:	dd6f      	ble.n	4052ea <__sflush_r+0xfe>
  40520a:	6aac      	ldr	r4, [r5, #40]	; 0x28
  40520c:	2c00      	cmp	r4, #0
  40520e:	d049      	beq.n	4052a4 <__sflush_r+0xb8>
  405210:	2200      	movs	r2, #0
  405212:	b29b      	uxth	r3, r3
  405214:	f8d8 6000 	ldr.w	r6, [r8]
  405218:	f8c8 2000 	str.w	r2, [r8]
  40521c:	f413 5280 	ands.w	r2, r3, #4096	; 0x1000
  405220:	d067      	beq.n	4052f2 <__sflush_r+0x106>
  405222:	6d2a      	ldr	r2, [r5, #80]	; 0x50
  405224:	075f      	lsls	r7, r3, #29
  405226:	d505      	bpl.n	405234 <__sflush_r+0x48>
  405228:	6869      	ldr	r1, [r5, #4]
  40522a:	6b2b      	ldr	r3, [r5, #48]	; 0x30
  40522c:	1a52      	subs	r2, r2, r1
  40522e:	b10b      	cbz	r3, 405234 <__sflush_r+0x48>
  405230:	6beb      	ldr	r3, [r5, #60]	; 0x3c
  405232:	1ad2      	subs	r2, r2, r3
  405234:	2300      	movs	r3, #0
  405236:	69e9      	ldr	r1, [r5, #28]
  405238:	4640      	mov	r0, r8
  40523a:	47a0      	blx	r4
  40523c:	1c44      	adds	r4, r0, #1
  40523e:	d03c      	beq.n	4052ba <__sflush_r+0xce>
  405240:	f9b5 300c 	ldrsh.w	r3, [r5, #12]
  405244:	692a      	ldr	r2, [r5, #16]
  405246:	602a      	str	r2, [r5, #0]
  405248:	f423 6300 	bic.w	r3, r3, #2048	; 0x800
  40524c:	2200      	movs	r2, #0
  40524e:	81ab      	strh	r3, [r5, #12]
  405250:	04db      	lsls	r3, r3, #19
  405252:	606a      	str	r2, [r5, #4]
  405254:	d447      	bmi.n	4052e6 <__sflush_r+0xfa>
  405256:	6b29      	ldr	r1, [r5, #48]	; 0x30
  405258:	f8c8 6000 	str.w	r6, [r8]
  40525c:	b311      	cbz	r1, 4052a4 <__sflush_r+0xb8>
  40525e:	f105 0340 	add.w	r3, r5, #64	; 0x40
  405262:	4299      	cmp	r1, r3
  405264:	d002      	beq.n	40526c <__sflush_r+0x80>
  405266:	4640      	mov	r0, r8
  405268:	f000 f9de 	bl	405628 <_free_r>
  40526c:	2000      	movs	r0, #0
  40526e:	6328      	str	r0, [r5, #48]	; 0x30
  405270:	e8bd 81f0 	ldmia.w	sp!, {r4, r5, r6, r7, r8, pc}
  405274:	692e      	ldr	r6, [r5, #16]
  405276:	b1ae      	cbz	r6, 4052a4 <__sflush_r+0xb8>
  405278:	682c      	ldr	r4, [r5, #0]
  40527a:	602e      	str	r6, [r5, #0]
  40527c:	0791      	lsls	r1, r2, #30
  40527e:	bf0c      	ite	eq
  405280:	696b      	ldreq	r3, [r5, #20]
  405282:	2300      	movne	r3, #0
  405284:	1ba4      	subs	r4, r4, r6
  405286:	60ab      	str	r3, [r5, #8]
  405288:	e00a      	b.n	4052a0 <__sflush_r+0xb4>
  40528a:	4623      	mov	r3, r4
  40528c:	4632      	mov	r2, r6
  40528e:	6a6f      	ldr	r7, [r5, #36]	; 0x24
  405290:	69e9      	ldr	r1, [r5, #28]
  405292:	4640      	mov	r0, r8
  405294:	47b8      	blx	r7
  405296:	2800      	cmp	r0, #0
  405298:	eba4 0400 	sub.w	r4, r4, r0
  40529c:	4406      	add	r6, r0
  40529e:	dd04      	ble.n	4052aa <__sflush_r+0xbe>
  4052a0:	2c00      	cmp	r4, #0
  4052a2:	dcf2      	bgt.n	40528a <__sflush_r+0x9e>
  4052a4:	2000      	movs	r0, #0
  4052a6:	e8bd 81f0 	ldmia.w	sp!, {r4, r5, r6, r7, r8, pc}
  4052aa:	89ab      	ldrh	r3, [r5, #12]
  4052ac:	f043 0340 	orr.w	r3, r3, #64	; 0x40
  4052b0:	81ab      	strh	r3, [r5, #12]
  4052b2:	f04f 30ff 	mov.w	r0, #4294967295
  4052b6:	e8bd 81f0 	ldmia.w	sp!, {r4, r5, r6, r7, r8, pc}
  4052ba:	f8d8 4000 	ldr.w	r4, [r8]
  4052be:	2c1d      	cmp	r4, #29
  4052c0:	d8f3      	bhi.n	4052aa <__sflush_r+0xbe>
  4052c2:	4b19      	ldr	r3, [pc, #100]	; (405328 <__sflush_r+0x13c>)
  4052c4:	40e3      	lsrs	r3, r4
  4052c6:	43db      	mvns	r3, r3
  4052c8:	f013 0301 	ands.w	r3, r3, #1
  4052cc:	d1ed      	bne.n	4052aa <__sflush_r+0xbe>
  4052ce:	f9b5 200c 	ldrsh.w	r2, [r5, #12]
  4052d2:	606b      	str	r3, [r5, #4]
  4052d4:	f422 6300 	bic.w	r3, r2, #2048	; 0x800
  4052d8:	6929      	ldr	r1, [r5, #16]
  4052da:	81ab      	strh	r3, [r5, #12]
  4052dc:	04da      	lsls	r2, r3, #19
  4052de:	6029      	str	r1, [r5, #0]
  4052e0:	d5b9      	bpl.n	405256 <__sflush_r+0x6a>
  4052e2:	2c00      	cmp	r4, #0
  4052e4:	d1b7      	bne.n	405256 <__sflush_r+0x6a>
  4052e6:	6528      	str	r0, [r5, #80]	; 0x50
  4052e8:	e7b5      	b.n	405256 <__sflush_r+0x6a>
  4052ea:	6bea      	ldr	r2, [r5, #60]	; 0x3c
  4052ec:	2a00      	cmp	r2, #0
  4052ee:	dc8c      	bgt.n	40520a <__sflush_r+0x1e>
  4052f0:	e7d8      	b.n	4052a4 <__sflush_r+0xb8>
  4052f2:	2301      	movs	r3, #1
  4052f4:	69e9      	ldr	r1, [r5, #28]
  4052f6:	4640      	mov	r0, r8
  4052f8:	47a0      	blx	r4
  4052fa:	1c43      	adds	r3, r0, #1
  4052fc:	4602      	mov	r2, r0
  4052fe:	d002      	beq.n	405306 <__sflush_r+0x11a>
  405300:	89ab      	ldrh	r3, [r5, #12]
  405302:	6aac      	ldr	r4, [r5, #40]	; 0x28
  405304:	e78e      	b.n	405224 <__sflush_r+0x38>
  405306:	f8d8 3000 	ldr.w	r3, [r8]
  40530a:	2b00      	cmp	r3, #0
  40530c:	d0f8      	beq.n	405300 <__sflush_r+0x114>
  40530e:	2b1d      	cmp	r3, #29
  405310:	d001      	beq.n	405316 <__sflush_r+0x12a>
  405312:	2b16      	cmp	r3, #22
  405314:	d102      	bne.n	40531c <__sflush_r+0x130>
  405316:	f8c8 6000 	str.w	r6, [r8]
  40531a:	e7c3      	b.n	4052a4 <__sflush_r+0xb8>
  40531c:	89ab      	ldrh	r3, [r5, #12]
  40531e:	f043 0340 	orr.w	r3, r3, #64	; 0x40
  405322:	81ab      	strh	r3, [r5, #12]
  405324:	e8bd 81f0 	ldmia.w	sp!, {r4, r5, r6, r7, r8, pc}
  405328:	20400001 	.word	0x20400001

0040532c <_fflush_r>:
  40532c:	b538      	push	{r3, r4, r5, lr}
  40532e:	460d      	mov	r5, r1
  405330:	4604      	mov	r4, r0
  405332:	b108      	cbz	r0, 405338 <_fflush_r+0xc>
  405334:	6b83      	ldr	r3, [r0, #56]	; 0x38
  405336:	b1bb      	cbz	r3, 405368 <_fflush_r+0x3c>
  405338:	f9b5 000c 	ldrsh.w	r0, [r5, #12]
  40533c:	b188      	cbz	r0, 405362 <_fflush_r+0x36>
  40533e:	6e6b      	ldr	r3, [r5, #100]	; 0x64
  405340:	07db      	lsls	r3, r3, #31
  405342:	d401      	bmi.n	405348 <_fflush_r+0x1c>
  405344:	0581      	lsls	r1, r0, #22
  405346:	d517      	bpl.n	405378 <_fflush_r+0x4c>
  405348:	4620      	mov	r0, r4
  40534a:	4629      	mov	r1, r5
  40534c:	f7ff ff4e 	bl	4051ec <__sflush_r>
  405350:	6e6b      	ldr	r3, [r5, #100]	; 0x64
  405352:	07da      	lsls	r2, r3, #31
  405354:	4604      	mov	r4, r0
  405356:	d402      	bmi.n	40535e <_fflush_r+0x32>
  405358:	89ab      	ldrh	r3, [r5, #12]
  40535a:	059b      	lsls	r3, r3, #22
  40535c:	d507      	bpl.n	40536e <_fflush_r+0x42>
  40535e:	4620      	mov	r0, r4
  405360:	bd38      	pop	{r3, r4, r5, pc}
  405362:	4604      	mov	r4, r0
  405364:	4620      	mov	r0, r4
  405366:	bd38      	pop	{r3, r4, r5, pc}
  405368:	f000 f838 	bl	4053dc <__sinit>
  40536c:	e7e4      	b.n	405338 <_fflush_r+0xc>
  40536e:	6da8      	ldr	r0, [r5, #88]	; 0x58
  405370:	f000 fc04 	bl	405b7c <__retarget_lock_release_recursive>
  405374:	4620      	mov	r0, r4
  405376:	bd38      	pop	{r3, r4, r5, pc}
  405378:	6da8      	ldr	r0, [r5, #88]	; 0x58
  40537a:	f000 fbfd 	bl	405b78 <__retarget_lock_acquire_recursive>
  40537e:	e7e3      	b.n	405348 <_fflush_r+0x1c>

00405380 <_cleanup_r>:
  405380:	4901      	ldr	r1, [pc, #4]	; (405388 <_cleanup_r+0x8>)
  405382:	f000 bbaf 	b.w	405ae4 <_fwalk_reent>
  405386:	bf00      	nop
  405388:	004071ed 	.word	0x004071ed

0040538c <std.isra.0>:
  40538c:	b510      	push	{r4, lr}
  40538e:	2300      	movs	r3, #0
  405390:	4604      	mov	r4, r0
  405392:	8181      	strh	r1, [r0, #12]
  405394:	81c2      	strh	r2, [r0, #14]
  405396:	6003      	str	r3, [r0, #0]
  405398:	6043      	str	r3, [r0, #4]
  40539a:	6083      	str	r3, [r0, #8]
  40539c:	6643      	str	r3, [r0, #100]	; 0x64
  40539e:	6103      	str	r3, [r0, #16]
  4053a0:	6143      	str	r3, [r0, #20]
  4053a2:	6183      	str	r3, [r0, #24]
  4053a4:	4619      	mov	r1, r3
  4053a6:	2208      	movs	r2, #8
  4053a8:	305c      	adds	r0, #92	; 0x5c
  4053aa:	f7fc fcb1 	bl	401d10 <memset>
  4053ae:	4807      	ldr	r0, [pc, #28]	; (4053cc <std.isra.0+0x40>)
  4053b0:	4907      	ldr	r1, [pc, #28]	; (4053d0 <std.isra.0+0x44>)
  4053b2:	4a08      	ldr	r2, [pc, #32]	; (4053d4 <std.isra.0+0x48>)
  4053b4:	4b08      	ldr	r3, [pc, #32]	; (4053d8 <std.isra.0+0x4c>)
  4053b6:	6220      	str	r0, [r4, #32]
  4053b8:	61e4      	str	r4, [r4, #28]
  4053ba:	6261      	str	r1, [r4, #36]	; 0x24
  4053bc:	62a2      	str	r2, [r4, #40]	; 0x28
  4053be:	62e3      	str	r3, [r4, #44]	; 0x2c
  4053c0:	f104 0058 	add.w	r0, r4, #88	; 0x58
  4053c4:	e8bd 4010 	ldmia.w	sp!, {r4, lr}
  4053c8:	f000 bbd2 	b.w	405b70 <__retarget_lock_init_recursive>
  4053cc:	00406cf5 	.word	0x00406cf5
  4053d0:	00406d19 	.word	0x00406d19
  4053d4:	00406d55 	.word	0x00406d55
  4053d8:	00406d75 	.word	0x00406d75

004053dc <__sinit>:
  4053dc:	b510      	push	{r4, lr}
  4053de:	4604      	mov	r4, r0
  4053e0:	4812      	ldr	r0, [pc, #72]	; (40542c <__sinit+0x50>)
  4053e2:	f000 fbc9 	bl	405b78 <__retarget_lock_acquire_recursive>
  4053e6:	6ba2      	ldr	r2, [r4, #56]	; 0x38
  4053e8:	b9d2      	cbnz	r2, 405420 <__sinit+0x44>
  4053ea:	f504 733b 	add.w	r3, r4, #748	; 0x2ec
  4053ee:	4810      	ldr	r0, [pc, #64]	; (405430 <__sinit+0x54>)
  4053f0:	f8c4 32e8 	str.w	r3, [r4, #744]	; 0x2e8
  4053f4:	2103      	movs	r1, #3
  4053f6:	f8c4 22e0 	str.w	r2, [r4, #736]	; 0x2e0
  4053fa:	63e0      	str	r0, [r4, #60]	; 0x3c
  4053fc:	f8c4 12e4 	str.w	r1, [r4, #740]	; 0x2e4
  405400:	6860      	ldr	r0, [r4, #4]
  405402:	2104      	movs	r1, #4
  405404:	f7ff ffc2 	bl	40538c <std.isra.0>
  405408:	2201      	movs	r2, #1
  40540a:	2109      	movs	r1, #9
  40540c:	68a0      	ldr	r0, [r4, #8]
  40540e:	f7ff ffbd 	bl	40538c <std.isra.0>
  405412:	2202      	movs	r2, #2
  405414:	2112      	movs	r1, #18
  405416:	68e0      	ldr	r0, [r4, #12]
  405418:	f7ff ffb8 	bl	40538c <std.isra.0>
  40541c:	2301      	movs	r3, #1
  40541e:	63a3      	str	r3, [r4, #56]	; 0x38
  405420:	4802      	ldr	r0, [pc, #8]	; (40542c <__sinit+0x50>)
  405422:	e8bd 4010 	ldmia.w	sp!, {r4, lr}
  405426:	f000 bba9 	b.w	405b7c <__retarget_lock_release_recursive>
  40542a:	bf00      	nop
  40542c:	20400e68 	.word	0x20400e68
  405430:	00405381 	.word	0x00405381

00405434 <__sfp_lock_acquire>:
  405434:	4801      	ldr	r0, [pc, #4]	; (40543c <__sfp_lock_acquire+0x8>)
  405436:	f000 bb9f 	b.w	405b78 <__retarget_lock_acquire_recursive>
  40543a:	bf00      	nop
  40543c:	20400e7c 	.word	0x20400e7c

00405440 <__sfp_lock_release>:
  405440:	4801      	ldr	r0, [pc, #4]	; (405448 <__sfp_lock_release+0x8>)
  405442:	f000 bb9b 	b.w	405b7c <__retarget_lock_release_recursive>
  405446:	bf00      	nop
  405448:	20400e7c 	.word	0x20400e7c

0040544c <__libc_fini_array>:
  40544c:	b538      	push	{r3, r4, r5, lr}
  40544e:	4c0a      	ldr	r4, [pc, #40]	; (405478 <__libc_fini_array+0x2c>)
  405450:	4d0a      	ldr	r5, [pc, #40]	; (40547c <__libc_fini_array+0x30>)
  405452:	1b64      	subs	r4, r4, r5
  405454:	10a4      	asrs	r4, r4, #2
  405456:	d00a      	beq.n	40546e <__libc_fini_array+0x22>
  405458:	f104 4380 	add.w	r3, r4, #1073741824	; 0x40000000
  40545c:	3b01      	subs	r3, #1
  40545e:	eb05 0583 	add.w	r5, r5, r3, lsl #2
  405462:	3c01      	subs	r4, #1
  405464:	f855 3904 	ldr.w	r3, [r5], #-4
  405468:	4798      	blx	r3
  40546a:	2c00      	cmp	r4, #0
  40546c:	d1f9      	bne.n	405462 <__libc_fini_array+0x16>
  40546e:	e8bd 4038 	ldmia.w	sp!, {r3, r4, r5, lr}
  405472:	f00b bc5b 	b.w	410d2c <_fini>
  405476:	bf00      	nop
  405478:	00410d3c 	.word	0x00410d3c
  40547c:	00410d38 	.word	0x00410d38

00405480 <__fputwc>:
  405480:	e92d 47f0 	stmdb	sp!, {r4, r5, r6, r7, r8, r9, sl, lr}
  405484:	b082      	sub	sp, #8
  405486:	4680      	mov	r8, r0
  405488:	4689      	mov	r9, r1
  40548a:	4614      	mov	r4, r2
  40548c:	f000 fb54 	bl	405b38 <__locale_mb_cur_max>
  405490:	2801      	cmp	r0, #1
  405492:	d036      	beq.n	405502 <__fputwc+0x82>
  405494:	464a      	mov	r2, r9
  405496:	f104 035c 	add.w	r3, r4, #92	; 0x5c
  40549a:	a901      	add	r1, sp, #4
  40549c:	4640      	mov	r0, r8
  40549e:	f001 fdb3 	bl	407008 <_wcrtomb_r>
  4054a2:	1c42      	adds	r2, r0, #1
  4054a4:	4606      	mov	r6, r0
  4054a6:	d025      	beq.n	4054f4 <__fputwc+0x74>
  4054a8:	b3a8      	cbz	r0, 405516 <__fputwc+0x96>
  4054aa:	f89d e004 	ldrb.w	lr, [sp, #4]
  4054ae:	2500      	movs	r5, #0
  4054b0:	f10d 0a04 	add.w	sl, sp, #4
  4054b4:	e009      	b.n	4054ca <__fputwc+0x4a>
  4054b6:	6823      	ldr	r3, [r4, #0]
  4054b8:	1c5a      	adds	r2, r3, #1
  4054ba:	6022      	str	r2, [r4, #0]
  4054bc:	f883 e000 	strb.w	lr, [r3]
  4054c0:	3501      	adds	r5, #1
  4054c2:	42b5      	cmp	r5, r6
  4054c4:	d227      	bcs.n	405516 <__fputwc+0x96>
  4054c6:	f815 e00a 	ldrb.w	lr, [r5, sl]
  4054ca:	68a3      	ldr	r3, [r4, #8]
  4054cc:	3b01      	subs	r3, #1
  4054ce:	2b00      	cmp	r3, #0
  4054d0:	60a3      	str	r3, [r4, #8]
  4054d2:	daf0      	bge.n	4054b6 <__fputwc+0x36>
  4054d4:	69a7      	ldr	r7, [r4, #24]
  4054d6:	42bb      	cmp	r3, r7
  4054d8:	4671      	mov	r1, lr
  4054da:	4622      	mov	r2, r4
  4054dc:	4640      	mov	r0, r8
  4054de:	db02      	blt.n	4054e6 <__fputwc+0x66>
  4054e0:	f1be 0f0a 	cmp.w	lr, #10
  4054e4:	d1e7      	bne.n	4054b6 <__fputwc+0x36>
  4054e6:	f001 fd37 	bl	406f58 <__swbuf_r>
  4054ea:	1c43      	adds	r3, r0, #1
  4054ec:	d1e8      	bne.n	4054c0 <__fputwc+0x40>
  4054ee:	b002      	add	sp, #8
  4054f0:	e8bd 87f0 	ldmia.w	sp!, {r4, r5, r6, r7, r8, r9, sl, pc}
  4054f4:	89a3      	ldrh	r3, [r4, #12]
  4054f6:	f043 0340 	orr.w	r3, r3, #64	; 0x40
  4054fa:	81a3      	strh	r3, [r4, #12]
  4054fc:	b002      	add	sp, #8
  4054fe:	e8bd 87f0 	ldmia.w	sp!, {r4, r5, r6, r7, r8, r9, sl, pc}
  405502:	f109 33ff 	add.w	r3, r9, #4294967295
  405506:	2bfe      	cmp	r3, #254	; 0xfe
  405508:	d8c4      	bhi.n	405494 <__fputwc+0x14>
  40550a:	fa5f fe89 	uxtb.w	lr, r9
  40550e:	4606      	mov	r6, r0
  405510:	f88d e004 	strb.w	lr, [sp, #4]
  405514:	e7cb      	b.n	4054ae <__fputwc+0x2e>
  405516:	4648      	mov	r0, r9
  405518:	b002      	add	sp, #8
  40551a:	e8bd 87f0 	ldmia.w	sp!, {r4, r5, r6, r7, r8, r9, sl, pc}
  40551e:	bf00      	nop

00405520 <_fputwc_r>:
  405520:	b530      	push	{r4, r5, lr}
  405522:	6e53      	ldr	r3, [r2, #100]	; 0x64
  405524:	f013 0f01 	tst.w	r3, #1
  405528:	f9b2 300c 	ldrsh.w	r3, [r2, #12]
  40552c:	4614      	mov	r4, r2
  40552e:	b083      	sub	sp, #12
  405530:	4605      	mov	r5, r0
  405532:	b29a      	uxth	r2, r3
  405534:	d101      	bne.n	40553a <_fputwc_r+0x1a>
  405536:	0590      	lsls	r0, r2, #22
  405538:	d51c      	bpl.n	405574 <_fputwc_r+0x54>
  40553a:	0490      	lsls	r0, r2, #18
  40553c:	d406      	bmi.n	40554c <_fputwc_r+0x2c>
  40553e:	6e62      	ldr	r2, [r4, #100]	; 0x64
  405540:	f443 5300 	orr.w	r3, r3, #8192	; 0x2000
  405544:	f442 5200 	orr.w	r2, r2, #8192	; 0x2000
  405548:	81a3      	strh	r3, [r4, #12]
  40554a:	6662      	str	r2, [r4, #100]	; 0x64
  40554c:	4628      	mov	r0, r5
  40554e:	4622      	mov	r2, r4
  405550:	f7ff ff96 	bl	405480 <__fputwc>
  405554:	6e63      	ldr	r3, [r4, #100]	; 0x64
  405556:	07da      	lsls	r2, r3, #31
  405558:	4605      	mov	r5, r0
  40555a:	d402      	bmi.n	405562 <_fputwc_r+0x42>
  40555c:	89a3      	ldrh	r3, [r4, #12]
  40555e:	059b      	lsls	r3, r3, #22
  405560:	d502      	bpl.n	405568 <_fputwc_r+0x48>
  405562:	4628      	mov	r0, r5
  405564:	b003      	add	sp, #12
  405566:	bd30      	pop	{r4, r5, pc}
  405568:	6da0      	ldr	r0, [r4, #88]	; 0x58
  40556a:	f000 fb07 	bl	405b7c <__retarget_lock_release_recursive>
  40556e:	4628      	mov	r0, r5
  405570:	b003      	add	sp, #12
  405572:	bd30      	pop	{r4, r5, pc}
  405574:	6da0      	ldr	r0, [r4, #88]	; 0x58
  405576:	9101      	str	r1, [sp, #4]
  405578:	f000 fafe 	bl	405b78 <__retarget_lock_acquire_recursive>
  40557c:	f9b4 300c 	ldrsh.w	r3, [r4, #12]
  405580:	9901      	ldr	r1, [sp, #4]
  405582:	b29a      	uxth	r2, r3
  405584:	e7d9      	b.n	40553a <_fputwc_r+0x1a>
  405586:	bf00      	nop

00405588 <_malloc_trim_r>:
  405588:	b5f8      	push	{r3, r4, r5, r6, r7, lr}
  40558a:	4f24      	ldr	r7, [pc, #144]	; (40561c <_malloc_trim_r+0x94>)
  40558c:	460c      	mov	r4, r1
  40558e:	4606      	mov	r6, r0
  405590:	f000 fef2 	bl	406378 <__malloc_lock>
  405594:	68bb      	ldr	r3, [r7, #8]
  405596:	685d      	ldr	r5, [r3, #4]
  405598:	f5c4 617e 	rsb	r1, r4, #4064	; 0xfe0
  40559c:	310f      	adds	r1, #15
  40559e:	f025 0503 	bic.w	r5, r5, #3
  4055a2:	4429      	add	r1, r5
  4055a4:	f421 617f 	bic.w	r1, r1, #4080	; 0xff0
  4055a8:	f021 010f 	bic.w	r1, r1, #15
  4055ac:	f5a1 5480 	sub.w	r4, r1, #4096	; 0x1000
  4055b0:	f5b4 5f80 	cmp.w	r4, #4096	; 0x1000
  4055b4:	db07      	blt.n	4055c6 <_malloc_trim_r+0x3e>
  4055b6:	2100      	movs	r1, #0
  4055b8:	4630      	mov	r0, r6
  4055ba:	f001 fb89 	bl	406cd0 <_sbrk_r>
  4055be:	68bb      	ldr	r3, [r7, #8]
  4055c0:	442b      	add	r3, r5
  4055c2:	4298      	cmp	r0, r3
  4055c4:	d004      	beq.n	4055d0 <_malloc_trim_r+0x48>
  4055c6:	4630      	mov	r0, r6
  4055c8:	f000 fedc 	bl	406384 <__malloc_unlock>
  4055cc:	2000      	movs	r0, #0
  4055ce:	bdf8      	pop	{r3, r4, r5, r6, r7, pc}
  4055d0:	4261      	negs	r1, r4
  4055d2:	4630      	mov	r0, r6
  4055d4:	f001 fb7c 	bl	406cd0 <_sbrk_r>
  4055d8:	3001      	adds	r0, #1
  4055da:	d00d      	beq.n	4055f8 <_malloc_trim_r+0x70>
  4055dc:	4b10      	ldr	r3, [pc, #64]	; (405620 <_malloc_trim_r+0x98>)
  4055de:	68ba      	ldr	r2, [r7, #8]
  4055e0:	6819      	ldr	r1, [r3, #0]
  4055e2:	1b2d      	subs	r5, r5, r4
  4055e4:	f045 0501 	orr.w	r5, r5, #1
  4055e8:	4630      	mov	r0, r6
  4055ea:	1b09      	subs	r1, r1, r4
  4055ec:	6055      	str	r5, [r2, #4]
  4055ee:	6019      	str	r1, [r3, #0]
  4055f0:	f000 fec8 	bl	406384 <__malloc_unlock>
  4055f4:	2001      	movs	r0, #1
  4055f6:	bdf8      	pop	{r3, r4, r5, r6, r7, pc}
  4055f8:	2100      	movs	r1, #0
  4055fa:	4630      	mov	r0, r6
  4055fc:	f001 fb68 	bl	406cd0 <_sbrk_r>
  405600:	68ba      	ldr	r2, [r7, #8]
  405602:	1a83      	subs	r3, r0, r2
  405604:	2b0f      	cmp	r3, #15
  405606:	ddde      	ble.n	4055c6 <_malloc_trim_r+0x3e>
  405608:	4c06      	ldr	r4, [pc, #24]	; (405624 <_malloc_trim_r+0x9c>)
  40560a:	4905      	ldr	r1, [pc, #20]	; (405620 <_malloc_trim_r+0x98>)
  40560c:	6824      	ldr	r4, [r4, #0]
  40560e:	f043 0301 	orr.w	r3, r3, #1
  405612:	1b00      	subs	r0, r0, r4
  405614:	6053      	str	r3, [r2, #4]
  405616:	6008      	str	r0, [r1, #0]
  405618:	e7d5      	b.n	4055c6 <_malloc_trim_r+0x3e>
  40561a:	bf00      	nop
  40561c:	204005a8 	.word	0x204005a8
  405620:	20400e0c 	.word	0x20400e0c
  405624:	204009b0 	.word	0x204009b0

00405628 <_free_r>:
  405628:	2900      	cmp	r1, #0
  40562a:	d044      	beq.n	4056b6 <_free_r+0x8e>
  40562c:	e92d 41f0 	stmdb	sp!, {r4, r5, r6, r7, r8, lr}
  405630:	460d      	mov	r5, r1
  405632:	4680      	mov	r8, r0
  405634:	f000 fea0 	bl	406378 <__malloc_lock>
  405638:	f855 7c04 	ldr.w	r7, [r5, #-4]
  40563c:	4969      	ldr	r1, [pc, #420]	; (4057e4 <_free_r+0x1bc>)
  40563e:	f027 0301 	bic.w	r3, r7, #1
  405642:	f1a5 0408 	sub.w	r4, r5, #8
  405646:	18e2      	adds	r2, r4, r3
  405648:	688e      	ldr	r6, [r1, #8]
  40564a:	6850      	ldr	r0, [r2, #4]
  40564c:	42b2      	cmp	r2, r6
  40564e:	f020 0003 	bic.w	r0, r0, #3
  405652:	d05e      	beq.n	405712 <_free_r+0xea>
  405654:	07fe      	lsls	r6, r7, #31
  405656:	6050      	str	r0, [r2, #4]
  405658:	d40b      	bmi.n	405672 <_free_r+0x4a>
  40565a:	f855 7c08 	ldr.w	r7, [r5, #-8]
  40565e:	1be4      	subs	r4, r4, r7
  405660:	f101 0e08 	add.w	lr, r1, #8
  405664:	68a5      	ldr	r5, [r4, #8]
  405666:	4575      	cmp	r5, lr
  405668:	443b      	add	r3, r7
  40566a:	d06d      	beq.n	405748 <_free_r+0x120>
  40566c:	68e7      	ldr	r7, [r4, #12]
  40566e:	60ef      	str	r7, [r5, #12]
  405670:	60bd      	str	r5, [r7, #8]
  405672:	1815      	adds	r5, r2, r0
  405674:	686d      	ldr	r5, [r5, #4]
  405676:	07ed      	lsls	r5, r5, #31
  405678:	d53e      	bpl.n	4056f8 <_free_r+0xd0>
  40567a:	f043 0201 	orr.w	r2, r3, #1
  40567e:	6062      	str	r2, [r4, #4]
  405680:	50e3      	str	r3, [r4, r3]
  405682:	f5b3 7f00 	cmp.w	r3, #512	; 0x200
  405686:	d217      	bcs.n	4056b8 <_free_r+0x90>
  405688:	08db      	lsrs	r3, r3, #3
  40568a:	1c58      	adds	r0, r3, #1
  40568c:	109a      	asrs	r2, r3, #2
  40568e:	684d      	ldr	r5, [r1, #4]
  405690:	f851 7030 	ldr.w	r7, [r1, r0, lsl #3]
  405694:	60a7      	str	r7, [r4, #8]
  405696:	2301      	movs	r3, #1
  405698:	4093      	lsls	r3, r2
  40569a:	eb01 02c0 	add.w	r2, r1, r0, lsl #3
  40569e:	432b      	orrs	r3, r5
  4056a0:	3a08      	subs	r2, #8
  4056a2:	60e2      	str	r2, [r4, #12]
  4056a4:	604b      	str	r3, [r1, #4]
  4056a6:	f841 4030 	str.w	r4, [r1, r0, lsl #3]
  4056aa:	60fc      	str	r4, [r7, #12]
  4056ac:	4640      	mov	r0, r8
  4056ae:	e8bd 41f0 	ldmia.w	sp!, {r4, r5, r6, r7, r8, lr}
  4056b2:	f000 be67 	b.w	406384 <__malloc_unlock>
  4056b6:	4770      	bx	lr
  4056b8:	0a5a      	lsrs	r2, r3, #9
  4056ba:	2a04      	cmp	r2, #4
  4056bc:	d852      	bhi.n	405764 <_free_r+0x13c>
  4056be:	099a      	lsrs	r2, r3, #6
  4056c0:	f102 0739 	add.w	r7, r2, #57	; 0x39
  4056c4:	00ff      	lsls	r7, r7, #3
  4056c6:	f102 0538 	add.w	r5, r2, #56	; 0x38
  4056ca:	19c8      	adds	r0, r1, r7
  4056cc:	59ca      	ldr	r2, [r1, r7]
  4056ce:	3808      	subs	r0, #8
  4056d0:	4290      	cmp	r0, r2
  4056d2:	d04f      	beq.n	405774 <_free_r+0x14c>
  4056d4:	6851      	ldr	r1, [r2, #4]
  4056d6:	f021 0103 	bic.w	r1, r1, #3
  4056da:	428b      	cmp	r3, r1
  4056dc:	d232      	bcs.n	405744 <_free_r+0x11c>
  4056de:	6892      	ldr	r2, [r2, #8]
  4056e0:	4290      	cmp	r0, r2
  4056e2:	d1f7      	bne.n	4056d4 <_free_r+0xac>
  4056e4:	68c3      	ldr	r3, [r0, #12]
  4056e6:	60a0      	str	r0, [r4, #8]
  4056e8:	60e3      	str	r3, [r4, #12]
  4056ea:	609c      	str	r4, [r3, #8]
  4056ec:	60c4      	str	r4, [r0, #12]
  4056ee:	4640      	mov	r0, r8
  4056f0:	e8bd 41f0 	ldmia.w	sp!, {r4, r5, r6, r7, r8, lr}
  4056f4:	f000 be46 	b.w	406384 <__malloc_unlock>
  4056f8:	6895      	ldr	r5, [r2, #8]
  4056fa:	4f3b      	ldr	r7, [pc, #236]	; (4057e8 <_free_r+0x1c0>)
  4056fc:	42bd      	cmp	r5, r7
  4056fe:	4403      	add	r3, r0
  405700:	d040      	beq.n	405784 <_free_r+0x15c>
  405702:	68d0      	ldr	r0, [r2, #12]
  405704:	60e8      	str	r0, [r5, #12]
  405706:	f043 0201 	orr.w	r2, r3, #1
  40570a:	6085      	str	r5, [r0, #8]
  40570c:	6062      	str	r2, [r4, #4]
  40570e:	50e3      	str	r3, [r4, r3]
  405710:	e7b7      	b.n	405682 <_free_r+0x5a>
  405712:	07ff      	lsls	r7, r7, #31
  405714:	4403      	add	r3, r0
  405716:	d407      	bmi.n	405728 <_free_r+0x100>
  405718:	f855 2c08 	ldr.w	r2, [r5, #-8]
  40571c:	1aa4      	subs	r4, r4, r2
  40571e:	4413      	add	r3, r2
  405720:	68a0      	ldr	r0, [r4, #8]
  405722:	68e2      	ldr	r2, [r4, #12]
  405724:	60c2      	str	r2, [r0, #12]
  405726:	6090      	str	r0, [r2, #8]
  405728:	4a30      	ldr	r2, [pc, #192]	; (4057ec <_free_r+0x1c4>)
  40572a:	6812      	ldr	r2, [r2, #0]
  40572c:	f043 0001 	orr.w	r0, r3, #1
  405730:	4293      	cmp	r3, r2
  405732:	6060      	str	r0, [r4, #4]
  405734:	608c      	str	r4, [r1, #8]
  405736:	d3b9      	bcc.n	4056ac <_free_r+0x84>
  405738:	4b2d      	ldr	r3, [pc, #180]	; (4057f0 <_free_r+0x1c8>)
  40573a:	4640      	mov	r0, r8
  40573c:	6819      	ldr	r1, [r3, #0]
  40573e:	f7ff ff23 	bl	405588 <_malloc_trim_r>
  405742:	e7b3      	b.n	4056ac <_free_r+0x84>
  405744:	4610      	mov	r0, r2
  405746:	e7cd      	b.n	4056e4 <_free_r+0xbc>
  405748:	1811      	adds	r1, r2, r0
  40574a:	6849      	ldr	r1, [r1, #4]
  40574c:	07c9      	lsls	r1, r1, #31
  40574e:	d444      	bmi.n	4057da <_free_r+0x1b2>
  405750:	6891      	ldr	r1, [r2, #8]
  405752:	68d2      	ldr	r2, [r2, #12]
  405754:	60ca      	str	r2, [r1, #12]
  405756:	4403      	add	r3, r0
  405758:	f043 0001 	orr.w	r0, r3, #1
  40575c:	6091      	str	r1, [r2, #8]
  40575e:	6060      	str	r0, [r4, #4]
  405760:	50e3      	str	r3, [r4, r3]
  405762:	e7a3      	b.n	4056ac <_free_r+0x84>
  405764:	2a14      	cmp	r2, #20
  405766:	d816      	bhi.n	405796 <_free_r+0x16e>
  405768:	f102 075c 	add.w	r7, r2, #92	; 0x5c
  40576c:	00ff      	lsls	r7, r7, #3
  40576e:	f102 055b 	add.w	r5, r2, #91	; 0x5b
  405772:	e7aa      	b.n	4056ca <_free_r+0xa2>
  405774:	10aa      	asrs	r2, r5, #2
  405776:	2301      	movs	r3, #1
  405778:	684d      	ldr	r5, [r1, #4]
  40577a:	4093      	lsls	r3, r2
  40577c:	432b      	orrs	r3, r5
  40577e:	604b      	str	r3, [r1, #4]
  405780:	4603      	mov	r3, r0
  405782:	e7b0      	b.n	4056e6 <_free_r+0xbe>
  405784:	f043 0201 	orr.w	r2, r3, #1
  405788:	614c      	str	r4, [r1, #20]
  40578a:	610c      	str	r4, [r1, #16]
  40578c:	60e5      	str	r5, [r4, #12]
  40578e:	60a5      	str	r5, [r4, #8]
  405790:	6062      	str	r2, [r4, #4]
  405792:	50e3      	str	r3, [r4, r3]
  405794:	e78a      	b.n	4056ac <_free_r+0x84>
  405796:	2a54      	cmp	r2, #84	; 0x54
  405798:	d806      	bhi.n	4057a8 <_free_r+0x180>
  40579a:	0b1a      	lsrs	r2, r3, #12
  40579c:	f102 076f 	add.w	r7, r2, #111	; 0x6f
  4057a0:	00ff      	lsls	r7, r7, #3
  4057a2:	f102 056e 	add.w	r5, r2, #110	; 0x6e
  4057a6:	e790      	b.n	4056ca <_free_r+0xa2>
  4057a8:	f5b2 7faa 	cmp.w	r2, #340	; 0x154
  4057ac:	d806      	bhi.n	4057bc <_free_r+0x194>
  4057ae:	0bda      	lsrs	r2, r3, #15
  4057b0:	f102 0778 	add.w	r7, r2, #120	; 0x78
  4057b4:	00ff      	lsls	r7, r7, #3
  4057b6:	f102 0577 	add.w	r5, r2, #119	; 0x77
  4057ba:	e786      	b.n	4056ca <_free_r+0xa2>
  4057bc:	f240 5054 	movw	r0, #1364	; 0x554
  4057c0:	4282      	cmp	r2, r0
  4057c2:	d806      	bhi.n	4057d2 <_free_r+0x1aa>
  4057c4:	0c9a      	lsrs	r2, r3, #18
  4057c6:	f102 077d 	add.w	r7, r2, #125	; 0x7d
  4057ca:	00ff      	lsls	r7, r7, #3
  4057cc:	f102 057c 	add.w	r5, r2, #124	; 0x7c
  4057d0:	e77b      	b.n	4056ca <_free_r+0xa2>
  4057d2:	f44f 777e 	mov.w	r7, #1016	; 0x3f8
  4057d6:	257e      	movs	r5, #126	; 0x7e
  4057d8:	e777      	b.n	4056ca <_free_r+0xa2>
  4057da:	f043 0101 	orr.w	r1, r3, #1
  4057de:	6061      	str	r1, [r4, #4]
  4057e0:	6013      	str	r3, [r2, #0]
  4057e2:	e763      	b.n	4056ac <_free_r+0x84>
  4057e4:	204005a8 	.word	0x204005a8
  4057e8:	204005b0 	.word	0x204005b0
  4057ec:	204009b4 	.word	0x204009b4
  4057f0:	20400e3c 	.word	0x20400e3c

004057f4 <__sfvwrite_r>:
  4057f4:	6893      	ldr	r3, [r2, #8]
  4057f6:	2b00      	cmp	r3, #0
  4057f8:	d073      	beq.n	4058e2 <__sfvwrite_r+0xee>
  4057fa:	e92d 4ff0 	stmdb	sp!, {r4, r5, r6, r7, r8, r9, sl, fp, lr}
  4057fe:	898b      	ldrh	r3, [r1, #12]
  405800:	b083      	sub	sp, #12
  405802:	460c      	mov	r4, r1
  405804:	0719      	lsls	r1, r3, #28
  405806:	9000      	str	r0, [sp, #0]
  405808:	4616      	mov	r6, r2
  40580a:	d526      	bpl.n	40585a <__sfvwrite_r+0x66>
  40580c:	6922      	ldr	r2, [r4, #16]
  40580e:	b322      	cbz	r2, 40585a <__sfvwrite_r+0x66>
  405810:	f013 0002 	ands.w	r0, r3, #2
  405814:	6835      	ldr	r5, [r6, #0]
  405816:	d02c      	beq.n	405872 <__sfvwrite_r+0x7e>
  405818:	f04f 0900 	mov.w	r9, #0
  40581c:	4fb0      	ldr	r7, [pc, #704]	; (405ae0 <__sfvwrite_r+0x2ec>)
  40581e:	46c8      	mov	r8, r9
  405820:	46b2      	mov	sl, r6
  405822:	45b8      	cmp	r8, r7
  405824:	4643      	mov	r3, r8
  405826:	464a      	mov	r2, r9
  405828:	bf28      	it	cs
  40582a:	463b      	movcs	r3, r7
  40582c:	9800      	ldr	r0, [sp, #0]
  40582e:	f1b8 0f00 	cmp.w	r8, #0
  405832:	d050      	beq.n	4058d6 <__sfvwrite_r+0xe2>
  405834:	69e1      	ldr	r1, [r4, #28]
  405836:	6a66      	ldr	r6, [r4, #36]	; 0x24
  405838:	47b0      	blx	r6
  40583a:	2800      	cmp	r0, #0
  40583c:	dd58      	ble.n	4058f0 <__sfvwrite_r+0xfc>
  40583e:	f8da 3008 	ldr.w	r3, [sl, #8]
  405842:	1a1b      	subs	r3, r3, r0
  405844:	4481      	add	r9, r0
  405846:	eba8 0800 	sub.w	r8, r8, r0
  40584a:	f8ca 3008 	str.w	r3, [sl, #8]
  40584e:	2b00      	cmp	r3, #0
  405850:	d1e7      	bne.n	405822 <__sfvwrite_r+0x2e>
  405852:	2000      	movs	r0, #0
  405854:	b003      	add	sp, #12
  405856:	e8bd 8ff0 	ldmia.w	sp!, {r4, r5, r6, r7, r8, r9, sl, fp, pc}
  40585a:	4621      	mov	r1, r4
  40585c:	9800      	ldr	r0, [sp, #0]
  40585e:	f7fe fc93 	bl	404188 <__swsetup_r>
  405862:	2800      	cmp	r0, #0
  405864:	f040 8133 	bne.w	405ace <__sfvwrite_r+0x2da>
  405868:	89a3      	ldrh	r3, [r4, #12]
  40586a:	6835      	ldr	r5, [r6, #0]
  40586c:	f013 0002 	ands.w	r0, r3, #2
  405870:	d1d2      	bne.n	405818 <__sfvwrite_r+0x24>
  405872:	f013 0901 	ands.w	r9, r3, #1
  405876:	d145      	bne.n	405904 <__sfvwrite_r+0x110>
  405878:	464f      	mov	r7, r9
  40587a:	9601      	str	r6, [sp, #4]
  40587c:	b337      	cbz	r7, 4058cc <__sfvwrite_r+0xd8>
  40587e:	059a      	lsls	r2, r3, #22
  405880:	f8d4 8008 	ldr.w	r8, [r4, #8]
  405884:	f140 8083 	bpl.w	40598e <__sfvwrite_r+0x19a>
  405888:	4547      	cmp	r7, r8
  40588a:	46c3      	mov	fp, r8
  40588c:	f0c0 80ab 	bcc.w	4059e6 <__sfvwrite_r+0x1f2>
  405890:	f413 6f90 	tst.w	r3, #1152	; 0x480
  405894:	f040 80ac 	bne.w	4059f0 <__sfvwrite_r+0x1fc>
  405898:	6820      	ldr	r0, [r4, #0]
  40589a:	46ba      	mov	sl, r7
  40589c:	465a      	mov	r2, fp
  40589e:	4649      	mov	r1, r9
  4058a0:	f000 fd06 	bl	4062b0 <memmove>
  4058a4:	68a2      	ldr	r2, [r4, #8]
  4058a6:	6823      	ldr	r3, [r4, #0]
  4058a8:	eba2 0208 	sub.w	r2, r2, r8
  4058ac:	445b      	add	r3, fp
  4058ae:	60a2      	str	r2, [r4, #8]
  4058b0:	6023      	str	r3, [r4, #0]
  4058b2:	9a01      	ldr	r2, [sp, #4]
  4058b4:	6893      	ldr	r3, [r2, #8]
  4058b6:	eba3 030a 	sub.w	r3, r3, sl
  4058ba:	44d1      	add	r9, sl
  4058bc:	eba7 070a 	sub.w	r7, r7, sl
  4058c0:	6093      	str	r3, [r2, #8]
  4058c2:	2b00      	cmp	r3, #0
  4058c4:	d0c5      	beq.n	405852 <__sfvwrite_r+0x5e>
  4058c6:	89a3      	ldrh	r3, [r4, #12]
  4058c8:	2f00      	cmp	r7, #0
  4058ca:	d1d8      	bne.n	40587e <__sfvwrite_r+0x8a>
  4058cc:	f8d5 9000 	ldr.w	r9, [r5]
  4058d0:	686f      	ldr	r7, [r5, #4]
  4058d2:	3508      	adds	r5, #8
  4058d4:	e7d2      	b.n	40587c <__sfvwrite_r+0x88>
  4058d6:	f8d5 9000 	ldr.w	r9, [r5]
  4058da:	f8d5 8004 	ldr.w	r8, [r5, #4]
  4058de:	3508      	adds	r5, #8
  4058e0:	e79f      	b.n	405822 <__sfvwrite_r+0x2e>
  4058e2:	2000      	movs	r0, #0
  4058e4:	4770      	bx	lr
  4058e6:	4621      	mov	r1, r4
  4058e8:	9800      	ldr	r0, [sp, #0]
  4058ea:	f7ff fd1f 	bl	40532c <_fflush_r>
  4058ee:	b370      	cbz	r0, 40594e <__sfvwrite_r+0x15a>
  4058f0:	f9b4 300c 	ldrsh.w	r3, [r4, #12]
  4058f4:	f043 0340 	orr.w	r3, r3, #64	; 0x40
  4058f8:	f04f 30ff 	mov.w	r0, #4294967295
  4058fc:	81a3      	strh	r3, [r4, #12]
  4058fe:	b003      	add	sp, #12
  405900:	e8bd 8ff0 	ldmia.w	sp!, {r4, r5, r6, r7, r8, r9, sl, fp, pc}
  405904:	4681      	mov	r9, r0
  405906:	4633      	mov	r3, r6
  405908:	464e      	mov	r6, r9
  40590a:	46a8      	mov	r8, r5
  40590c:	469a      	mov	sl, r3
  40590e:	464d      	mov	r5, r9
  405910:	b34e      	cbz	r6, 405966 <__sfvwrite_r+0x172>
  405912:	b380      	cbz	r0, 405976 <__sfvwrite_r+0x182>
  405914:	6820      	ldr	r0, [r4, #0]
  405916:	6923      	ldr	r3, [r4, #16]
  405918:	6962      	ldr	r2, [r4, #20]
  40591a:	45b1      	cmp	r9, r6
  40591c:	46cb      	mov	fp, r9
  40591e:	bf28      	it	cs
  405920:	46b3      	movcs	fp, r6
  405922:	4298      	cmp	r0, r3
  405924:	465f      	mov	r7, fp
  405926:	d904      	bls.n	405932 <__sfvwrite_r+0x13e>
  405928:	68a3      	ldr	r3, [r4, #8]
  40592a:	4413      	add	r3, r2
  40592c:	459b      	cmp	fp, r3
  40592e:	f300 80a6 	bgt.w	405a7e <__sfvwrite_r+0x28a>
  405932:	4593      	cmp	fp, r2
  405934:	db4b      	blt.n	4059ce <__sfvwrite_r+0x1da>
  405936:	4613      	mov	r3, r2
  405938:	6a67      	ldr	r7, [r4, #36]	; 0x24
  40593a:	69e1      	ldr	r1, [r4, #28]
  40593c:	9800      	ldr	r0, [sp, #0]
  40593e:	462a      	mov	r2, r5
  405940:	47b8      	blx	r7
  405942:	1e07      	subs	r7, r0, #0
  405944:	ddd4      	ble.n	4058f0 <__sfvwrite_r+0xfc>
  405946:	ebb9 0907 	subs.w	r9, r9, r7
  40594a:	d0cc      	beq.n	4058e6 <__sfvwrite_r+0xf2>
  40594c:	2001      	movs	r0, #1
  40594e:	f8da 3008 	ldr.w	r3, [sl, #8]
  405952:	1bdb      	subs	r3, r3, r7
  405954:	443d      	add	r5, r7
  405956:	1bf6      	subs	r6, r6, r7
  405958:	f8ca 3008 	str.w	r3, [sl, #8]
  40595c:	2b00      	cmp	r3, #0
  40595e:	f43f af78 	beq.w	405852 <__sfvwrite_r+0x5e>
  405962:	2e00      	cmp	r6, #0
  405964:	d1d5      	bne.n	405912 <__sfvwrite_r+0x11e>
  405966:	f108 0308 	add.w	r3, r8, #8
  40596a:	e913 0060 	ldmdb	r3, {r5, r6}
  40596e:	4698      	mov	r8, r3
  405970:	3308      	adds	r3, #8
  405972:	2e00      	cmp	r6, #0
  405974:	d0f9      	beq.n	40596a <__sfvwrite_r+0x176>
  405976:	4632      	mov	r2, r6
  405978:	210a      	movs	r1, #10
  40597a:	4628      	mov	r0, r5
  40597c:	f000 fc48 	bl	406210 <memchr>
  405980:	2800      	cmp	r0, #0
  405982:	f000 80a1 	beq.w	405ac8 <__sfvwrite_r+0x2d4>
  405986:	3001      	adds	r0, #1
  405988:	eba0 0905 	sub.w	r9, r0, r5
  40598c:	e7c2      	b.n	405914 <__sfvwrite_r+0x120>
  40598e:	6820      	ldr	r0, [r4, #0]
  405990:	6923      	ldr	r3, [r4, #16]
  405992:	4298      	cmp	r0, r3
  405994:	d802      	bhi.n	40599c <__sfvwrite_r+0x1a8>
  405996:	6963      	ldr	r3, [r4, #20]
  405998:	429f      	cmp	r7, r3
  40599a:	d25d      	bcs.n	405a58 <__sfvwrite_r+0x264>
  40599c:	45b8      	cmp	r8, r7
  40599e:	bf28      	it	cs
  4059a0:	46b8      	movcs	r8, r7
  4059a2:	4642      	mov	r2, r8
  4059a4:	4649      	mov	r1, r9
  4059a6:	f000 fc83 	bl	4062b0 <memmove>
  4059aa:	68a3      	ldr	r3, [r4, #8]
  4059ac:	6822      	ldr	r2, [r4, #0]
  4059ae:	eba3 0308 	sub.w	r3, r3, r8
  4059b2:	4442      	add	r2, r8
  4059b4:	60a3      	str	r3, [r4, #8]
  4059b6:	6022      	str	r2, [r4, #0]
  4059b8:	b10b      	cbz	r3, 4059be <__sfvwrite_r+0x1ca>
  4059ba:	46c2      	mov	sl, r8
  4059bc:	e779      	b.n	4058b2 <__sfvwrite_r+0xbe>
  4059be:	4621      	mov	r1, r4
  4059c0:	9800      	ldr	r0, [sp, #0]
  4059c2:	f7ff fcb3 	bl	40532c <_fflush_r>
  4059c6:	2800      	cmp	r0, #0
  4059c8:	d192      	bne.n	4058f0 <__sfvwrite_r+0xfc>
  4059ca:	46c2      	mov	sl, r8
  4059cc:	e771      	b.n	4058b2 <__sfvwrite_r+0xbe>
  4059ce:	465a      	mov	r2, fp
  4059d0:	4629      	mov	r1, r5
  4059d2:	f000 fc6d 	bl	4062b0 <memmove>
  4059d6:	68a2      	ldr	r2, [r4, #8]
  4059d8:	6823      	ldr	r3, [r4, #0]
  4059da:	eba2 020b 	sub.w	r2, r2, fp
  4059de:	445b      	add	r3, fp
  4059e0:	60a2      	str	r2, [r4, #8]
  4059e2:	6023      	str	r3, [r4, #0]
  4059e4:	e7af      	b.n	405946 <__sfvwrite_r+0x152>
  4059e6:	6820      	ldr	r0, [r4, #0]
  4059e8:	46b8      	mov	r8, r7
  4059ea:	46ba      	mov	sl, r7
  4059ec:	46bb      	mov	fp, r7
  4059ee:	e755      	b.n	40589c <__sfvwrite_r+0xa8>
  4059f0:	6962      	ldr	r2, [r4, #20]
  4059f2:	6820      	ldr	r0, [r4, #0]
  4059f4:	6921      	ldr	r1, [r4, #16]
  4059f6:	eb02 0842 	add.w	r8, r2, r2, lsl #1
  4059fa:	eba0 0a01 	sub.w	sl, r0, r1
  4059fe:	eb08 78d8 	add.w	r8, r8, r8, lsr #31
  405a02:	f10a 0001 	add.w	r0, sl, #1
  405a06:	ea4f 0868 	mov.w	r8, r8, asr #1
  405a0a:	4438      	add	r0, r7
  405a0c:	4540      	cmp	r0, r8
  405a0e:	4642      	mov	r2, r8
  405a10:	bf84      	itt	hi
  405a12:	4680      	movhi	r8, r0
  405a14:	4642      	movhi	r2, r8
  405a16:	055b      	lsls	r3, r3, #21
  405a18:	d544      	bpl.n	405aa4 <__sfvwrite_r+0x2b0>
  405a1a:	4611      	mov	r1, r2
  405a1c:	9800      	ldr	r0, [sp, #0]
  405a1e:	f000 f92f 	bl	405c80 <_malloc_r>
  405a22:	4683      	mov	fp, r0
  405a24:	2800      	cmp	r0, #0
  405a26:	d055      	beq.n	405ad4 <__sfvwrite_r+0x2e0>
  405a28:	4652      	mov	r2, sl
  405a2a:	6921      	ldr	r1, [r4, #16]
  405a2c:	f7fc f8d6 	bl	401bdc <memcpy>
  405a30:	89a3      	ldrh	r3, [r4, #12]
  405a32:	f423 6390 	bic.w	r3, r3, #1152	; 0x480
  405a36:	f043 0380 	orr.w	r3, r3, #128	; 0x80
  405a3a:	81a3      	strh	r3, [r4, #12]
  405a3c:	eb0b 000a 	add.w	r0, fp, sl
  405a40:	eba8 030a 	sub.w	r3, r8, sl
  405a44:	f8c4 b010 	str.w	fp, [r4, #16]
  405a48:	f8c4 8014 	str.w	r8, [r4, #20]
  405a4c:	6020      	str	r0, [r4, #0]
  405a4e:	60a3      	str	r3, [r4, #8]
  405a50:	46b8      	mov	r8, r7
  405a52:	46ba      	mov	sl, r7
  405a54:	46bb      	mov	fp, r7
  405a56:	e721      	b.n	40589c <__sfvwrite_r+0xa8>
  405a58:	f06f 4100 	mvn.w	r1, #2147483648	; 0x80000000
  405a5c:	42b9      	cmp	r1, r7
  405a5e:	bf28      	it	cs
  405a60:	4639      	movcs	r1, r7
  405a62:	464a      	mov	r2, r9
  405a64:	fb91 f1f3 	sdiv	r1, r1, r3
  405a68:	9800      	ldr	r0, [sp, #0]
  405a6a:	6a66      	ldr	r6, [r4, #36]	; 0x24
  405a6c:	fb03 f301 	mul.w	r3, r3, r1
  405a70:	69e1      	ldr	r1, [r4, #28]
  405a72:	47b0      	blx	r6
  405a74:	f1b0 0a00 	subs.w	sl, r0, #0
  405a78:	f73f af1b 	bgt.w	4058b2 <__sfvwrite_r+0xbe>
  405a7c:	e738      	b.n	4058f0 <__sfvwrite_r+0xfc>
  405a7e:	461a      	mov	r2, r3
  405a80:	4629      	mov	r1, r5
  405a82:	9301      	str	r3, [sp, #4]
  405a84:	f000 fc14 	bl	4062b0 <memmove>
  405a88:	6822      	ldr	r2, [r4, #0]
  405a8a:	9b01      	ldr	r3, [sp, #4]
  405a8c:	9800      	ldr	r0, [sp, #0]
  405a8e:	441a      	add	r2, r3
  405a90:	6022      	str	r2, [r4, #0]
  405a92:	4621      	mov	r1, r4
  405a94:	f7ff fc4a 	bl	40532c <_fflush_r>
  405a98:	9b01      	ldr	r3, [sp, #4]
  405a9a:	2800      	cmp	r0, #0
  405a9c:	f47f af28 	bne.w	4058f0 <__sfvwrite_r+0xfc>
  405aa0:	461f      	mov	r7, r3
  405aa2:	e750      	b.n	405946 <__sfvwrite_r+0x152>
  405aa4:	9800      	ldr	r0, [sp, #0]
  405aa6:	f000 ff6d 	bl	406984 <_realloc_r>
  405aaa:	4683      	mov	fp, r0
  405aac:	2800      	cmp	r0, #0
  405aae:	d1c5      	bne.n	405a3c <__sfvwrite_r+0x248>
  405ab0:	9d00      	ldr	r5, [sp, #0]
  405ab2:	6921      	ldr	r1, [r4, #16]
  405ab4:	4628      	mov	r0, r5
  405ab6:	f7ff fdb7 	bl	405628 <_free_r>
  405aba:	f9b4 300c 	ldrsh.w	r3, [r4, #12]
  405abe:	220c      	movs	r2, #12
  405ac0:	f023 0380 	bic.w	r3, r3, #128	; 0x80
  405ac4:	602a      	str	r2, [r5, #0]
  405ac6:	e715      	b.n	4058f4 <__sfvwrite_r+0x100>
  405ac8:	f106 0901 	add.w	r9, r6, #1
  405acc:	e722      	b.n	405914 <__sfvwrite_r+0x120>
  405ace:	f04f 30ff 	mov.w	r0, #4294967295
  405ad2:	e6bf      	b.n	405854 <__sfvwrite_r+0x60>
  405ad4:	9a00      	ldr	r2, [sp, #0]
  405ad6:	230c      	movs	r3, #12
  405ad8:	6013      	str	r3, [r2, #0]
  405ada:	f9b4 300c 	ldrsh.w	r3, [r4, #12]
  405ade:	e709      	b.n	4058f4 <__sfvwrite_r+0x100>
  405ae0:	7ffffc00 	.word	0x7ffffc00

00405ae4 <_fwalk_reent>:
  405ae4:	e92d 43f8 	stmdb	sp!, {r3, r4, r5, r6, r7, r8, r9, lr}
  405ae8:	f510 7738 	adds.w	r7, r0, #736	; 0x2e0
  405aec:	d01f      	beq.n	405b2e <_fwalk_reent+0x4a>
  405aee:	4688      	mov	r8, r1
  405af0:	4606      	mov	r6, r0
  405af2:	f04f 0900 	mov.w	r9, #0
  405af6:	687d      	ldr	r5, [r7, #4]
  405af8:	68bc      	ldr	r4, [r7, #8]
  405afa:	3d01      	subs	r5, #1
  405afc:	d411      	bmi.n	405b22 <_fwalk_reent+0x3e>
  405afe:	89a3      	ldrh	r3, [r4, #12]
  405b00:	2b01      	cmp	r3, #1
  405b02:	f105 35ff 	add.w	r5, r5, #4294967295
  405b06:	d908      	bls.n	405b1a <_fwalk_reent+0x36>
  405b08:	f9b4 300e 	ldrsh.w	r3, [r4, #14]
  405b0c:	3301      	adds	r3, #1
  405b0e:	4621      	mov	r1, r4
  405b10:	4630      	mov	r0, r6
  405b12:	d002      	beq.n	405b1a <_fwalk_reent+0x36>
  405b14:	47c0      	blx	r8
  405b16:	ea49 0900 	orr.w	r9, r9, r0
  405b1a:	1c6b      	adds	r3, r5, #1
  405b1c:	f104 0468 	add.w	r4, r4, #104	; 0x68
  405b20:	d1ed      	bne.n	405afe <_fwalk_reent+0x1a>
  405b22:	683f      	ldr	r7, [r7, #0]
  405b24:	2f00      	cmp	r7, #0
  405b26:	d1e6      	bne.n	405af6 <_fwalk_reent+0x12>
  405b28:	4648      	mov	r0, r9
  405b2a:	e8bd 83f8 	ldmia.w	sp!, {r3, r4, r5, r6, r7, r8, r9, pc}
  405b2e:	46b9      	mov	r9, r7
  405b30:	4648      	mov	r0, r9
  405b32:	e8bd 83f8 	ldmia.w	sp!, {r3, r4, r5, r6, r7, r8, r9, pc}
  405b36:	bf00      	nop

00405b38 <__locale_mb_cur_max>:
  405b38:	4b04      	ldr	r3, [pc, #16]	; (405b4c <__locale_mb_cur_max+0x14>)
  405b3a:	4a05      	ldr	r2, [pc, #20]	; (405b50 <__locale_mb_cur_max+0x18>)
  405b3c:	681b      	ldr	r3, [r3, #0]
  405b3e:	6b5b      	ldr	r3, [r3, #52]	; 0x34
  405b40:	2b00      	cmp	r3, #0
  405b42:	bf08      	it	eq
  405b44:	4613      	moveq	r3, r2
  405b46:	f893 0128 	ldrb.w	r0, [r3, #296]	; 0x128
  405b4a:	4770      	bx	lr
  405b4c:	20400008 	.word	0x20400008
  405b50:	2040043c 	.word	0x2040043c

00405b54 <_localeconv_r>:
  405b54:	4a04      	ldr	r2, [pc, #16]	; (405b68 <_localeconv_r+0x14>)
  405b56:	4b05      	ldr	r3, [pc, #20]	; (405b6c <_localeconv_r+0x18>)
  405b58:	6812      	ldr	r2, [r2, #0]
  405b5a:	6b50      	ldr	r0, [r2, #52]	; 0x34
  405b5c:	2800      	cmp	r0, #0
  405b5e:	bf08      	it	eq
  405b60:	4618      	moveq	r0, r3
  405b62:	30f0      	adds	r0, #240	; 0xf0
  405b64:	4770      	bx	lr
  405b66:	bf00      	nop
  405b68:	20400008 	.word	0x20400008
  405b6c:	2040043c 	.word	0x2040043c

00405b70 <__retarget_lock_init_recursive>:
  405b70:	4770      	bx	lr
  405b72:	bf00      	nop

00405b74 <__retarget_lock_close_recursive>:
  405b74:	4770      	bx	lr
  405b76:	bf00      	nop

00405b78 <__retarget_lock_acquire_recursive>:
  405b78:	4770      	bx	lr
  405b7a:	bf00      	nop

00405b7c <__retarget_lock_release_recursive>:
  405b7c:	4770      	bx	lr
  405b7e:	bf00      	nop

00405b80 <__swhatbuf_r>:
  405b80:	b570      	push	{r4, r5, r6, lr}
  405b82:	460c      	mov	r4, r1
  405b84:	f9b1 100e 	ldrsh.w	r1, [r1, #14]
  405b88:	2900      	cmp	r1, #0
  405b8a:	b090      	sub	sp, #64	; 0x40
  405b8c:	4615      	mov	r5, r2
  405b8e:	461e      	mov	r6, r3
  405b90:	db14      	blt.n	405bbc <__swhatbuf_r+0x3c>
  405b92:	aa01      	add	r2, sp, #4
  405b94:	f001 fb8c 	bl	4072b0 <_fstat_r>
  405b98:	2800      	cmp	r0, #0
  405b9a:	db0f      	blt.n	405bbc <__swhatbuf_r+0x3c>
  405b9c:	9a02      	ldr	r2, [sp, #8]
  405b9e:	f402 4270 	and.w	r2, r2, #61440	; 0xf000
  405ba2:	f5a2 5200 	sub.w	r2, r2, #8192	; 0x2000
  405ba6:	fab2 f282 	clz	r2, r2
  405baa:	0952      	lsrs	r2, r2, #5
  405bac:	f44f 6380 	mov.w	r3, #1024	; 0x400
  405bb0:	f44f 6000 	mov.w	r0, #2048	; 0x800
  405bb4:	6032      	str	r2, [r6, #0]
  405bb6:	602b      	str	r3, [r5, #0]
  405bb8:	b010      	add	sp, #64	; 0x40
  405bba:	bd70      	pop	{r4, r5, r6, pc}
  405bbc:	89a2      	ldrh	r2, [r4, #12]
  405bbe:	2300      	movs	r3, #0
  405bc0:	f012 0080 	ands.w	r0, r2, #128	; 0x80
  405bc4:	6033      	str	r3, [r6, #0]
  405bc6:	d004      	beq.n	405bd2 <__swhatbuf_r+0x52>
  405bc8:	2240      	movs	r2, #64	; 0x40
  405bca:	4618      	mov	r0, r3
  405bcc:	602a      	str	r2, [r5, #0]
  405bce:	b010      	add	sp, #64	; 0x40
  405bd0:	bd70      	pop	{r4, r5, r6, pc}
  405bd2:	f44f 6380 	mov.w	r3, #1024	; 0x400
  405bd6:	602b      	str	r3, [r5, #0]
  405bd8:	b010      	add	sp, #64	; 0x40
  405bda:	bd70      	pop	{r4, r5, r6, pc}

00405bdc <__smakebuf_r>:
  405bdc:	898a      	ldrh	r2, [r1, #12]
  405bde:	0792      	lsls	r2, r2, #30
  405be0:	460b      	mov	r3, r1
  405be2:	d506      	bpl.n	405bf2 <__smakebuf_r+0x16>
  405be4:	f101 0243 	add.w	r2, r1, #67	; 0x43
  405be8:	2101      	movs	r1, #1
  405bea:	601a      	str	r2, [r3, #0]
  405bec:	611a      	str	r2, [r3, #16]
  405bee:	6159      	str	r1, [r3, #20]
  405bf0:	4770      	bx	lr
  405bf2:	b5f0      	push	{r4, r5, r6, r7, lr}
  405bf4:	b083      	sub	sp, #12
  405bf6:	ab01      	add	r3, sp, #4
  405bf8:	466a      	mov	r2, sp
  405bfa:	460c      	mov	r4, r1
  405bfc:	4606      	mov	r6, r0
  405bfe:	f7ff ffbf 	bl	405b80 <__swhatbuf_r>
  405c02:	9900      	ldr	r1, [sp, #0]
  405c04:	4605      	mov	r5, r0
  405c06:	4630      	mov	r0, r6
  405c08:	f000 f83a 	bl	405c80 <_malloc_r>
  405c0c:	f9b4 300c 	ldrsh.w	r3, [r4, #12]
  405c10:	b1d8      	cbz	r0, 405c4a <__smakebuf_r+0x6e>
  405c12:	9a01      	ldr	r2, [sp, #4]
  405c14:	4f15      	ldr	r7, [pc, #84]	; (405c6c <__smakebuf_r+0x90>)
  405c16:	9900      	ldr	r1, [sp, #0]
  405c18:	63f7      	str	r7, [r6, #60]	; 0x3c
  405c1a:	f043 0380 	orr.w	r3, r3, #128	; 0x80
  405c1e:	81a3      	strh	r3, [r4, #12]
  405c20:	6020      	str	r0, [r4, #0]
  405c22:	6120      	str	r0, [r4, #16]
  405c24:	6161      	str	r1, [r4, #20]
  405c26:	b91a      	cbnz	r2, 405c30 <__smakebuf_r+0x54>
  405c28:	432b      	orrs	r3, r5
  405c2a:	81a3      	strh	r3, [r4, #12]
  405c2c:	b003      	add	sp, #12
  405c2e:	bdf0      	pop	{r4, r5, r6, r7, pc}
  405c30:	4630      	mov	r0, r6
  405c32:	f9b4 100e 	ldrsh.w	r1, [r4, #14]
  405c36:	f001 fb4f 	bl	4072d8 <_isatty_r>
  405c3a:	b1a0      	cbz	r0, 405c66 <__smakebuf_r+0x8a>
  405c3c:	89a3      	ldrh	r3, [r4, #12]
  405c3e:	f023 0303 	bic.w	r3, r3, #3
  405c42:	f043 0301 	orr.w	r3, r3, #1
  405c46:	b21b      	sxth	r3, r3
  405c48:	e7ee      	b.n	405c28 <__smakebuf_r+0x4c>
  405c4a:	059a      	lsls	r2, r3, #22
  405c4c:	d4ee      	bmi.n	405c2c <__smakebuf_r+0x50>
  405c4e:	f023 0303 	bic.w	r3, r3, #3
  405c52:	f104 0243 	add.w	r2, r4, #67	; 0x43
  405c56:	f043 0302 	orr.w	r3, r3, #2
  405c5a:	2101      	movs	r1, #1
  405c5c:	81a3      	strh	r3, [r4, #12]
  405c5e:	6022      	str	r2, [r4, #0]
  405c60:	6122      	str	r2, [r4, #16]
  405c62:	6161      	str	r1, [r4, #20]
  405c64:	e7e2      	b.n	405c2c <__smakebuf_r+0x50>
  405c66:	f9b4 300c 	ldrsh.w	r3, [r4, #12]
  405c6a:	e7dd      	b.n	405c28 <__smakebuf_r+0x4c>
  405c6c:	00405381 	.word	0x00405381

00405c70 <malloc>:
  405c70:	4b02      	ldr	r3, [pc, #8]	; (405c7c <malloc+0xc>)
  405c72:	4601      	mov	r1, r0
  405c74:	6818      	ldr	r0, [r3, #0]
  405c76:	f000 b803 	b.w	405c80 <_malloc_r>
  405c7a:	bf00      	nop
  405c7c:	20400008 	.word	0x20400008

00405c80 <_malloc_r>:
  405c80:	e92d 4ff0 	stmdb	sp!, {r4, r5, r6, r7, r8, r9, sl, fp, lr}
  405c84:	f101 060b 	add.w	r6, r1, #11
  405c88:	2e16      	cmp	r6, #22
  405c8a:	b083      	sub	sp, #12
  405c8c:	4605      	mov	r5, r0
  405c8e:	f240 809e 	bls.w	405dce <_malloc_r+0x14e>
  405c92:	f036 0607 	bics.w	r6, r6, #7
  405c96:	f100 80bd 	bmi.w	405e14 <_malloc_r+0x194>
  405c9a:	42b1      	cmp	r1, r6
  405c9c:	f200 80ba 	bhi.w	405e14 <_malloc_r+0x194>
  405ca0:	f000 fb6a 	bl	406378 <__malloc_lock>
  405ca4:	f5b6 7ffc 	cmp.w	r6, #504	; 0x1f8
  405ca8:	f0c0 8293 	bcc.w	4061d2 <_malloc_r+0x552>
  405cac:	0a73      	lsrs	r3, r6, #9
  405cae:	f000 80b8 	beq.w	405e22 <_malloc_r+0x1a2>
  405cb2:	2b04      	cmp	r3, #4
  405cb4:	f200 8179 	bhi.w	405faa <_malloc_r+0x32a>
  405cb8:	09b3      	lsrs	r3, r6, #6
  405cba:	f103 0039 	add.w	r0, r3, #57	; 0x39
  405cbe:	f103 0e38 	add.w	lr, r3, #56	; 0x38
  405cc2:	00c3      	lsls	r3, r0, #3
  405cc4:	4fbf      	ldr	r7, [pc, #764]	; (405fc4 <_malloc_r+0x344>)
  405cc6:	443b      	add	r3, r7
  405cc8:	f1a3 0108 	sub.w	r1, r3, #8
  405ccc:	685c      	ldr	r4, [r3, #4]
  405cce:	42a1      	cmp	r1, r4
  405cd0:	d106      	bne.n	405ce0 <_malloc_r+0x60>
  405cd2:	e00c      	b.n	405cee <_malloc_r+0x6e>
  405cd4:	2a00      	cmp	r2, #0
  405cd6:	f280 80aa 	bge.w	405e2e <_malloc_r+0x1ae>
  405cda:	68e4      	ldr	r4, [r4, #12]
  405cdc:	42a1      	cmp	r1, r4
  405cde:	d006      	beq.n	405cee <_malloc_r+0x6e>
  405ce0:	6863      	ldr	r3, [r4, #4]
  405ce2:	f023 0303 	bic.w	r3, r3, #3
  405ce6:	1b9a      	subs	r2, r3, r6
  405ce8:	2a0f      	cmp	r2, #15
  405cea:	ddf3      	ble.n	405cd4 <_malloc_r+0x54>
  405cec:	4670      	mov	r0, lr
  405cee:	693c      	ldr	r4, [r7, #16]
  405cf0:	f8df e2e4 	ldr.w	lr, [pc, #740]	; 405fd8 <_malloc_r+0x358>
  405cf4:	4574      	cmp	r4, lr
  405cf6:	f000 81ab 	beq.w	406050 <_malloc_r+0x3d0>
  405cfa:	6863      	ldr	r3, [r4, #4]
  405cfc:	f023 0303 	bic.w	r3, r3, #3
  405d00:	1b9a      	subs	r2, r3, r6
  405d02:	2a0f      	cmp	r2, #15
  405d04:	f300 8190 	bgt.w	406028 <_malloc_r+0x3a8>
  405d08:	2a00      	cmp	r2, #0
  405d0a:	f8c7 e014 	str.w	lr, [r7, #20]
  405d0e:	f8c7 e010 	str.w	lr, [r7, #16]
  405d12:	f280 809d 	bge.w	405e50 <_malloc_r+0x1d0>
  405d16:	f5b3 7f00 	cmp.w	r3, #512	; 0x200
  405d1a:	f080 8161 	bcs.w	405fe0 <_malloc_r+0x360>
  405d1e:	08db      	lsrs	r3, r3, #3
  405d20:	f103 0c01 	add.w	ip, r3, #1
  405d24:	1099      	asrs	r1, r3, #2
  405d26:	687a      	ldr	r2, [r7, #4]
  405d28:	f857 803c 	ldr.w	r8, [r7, ip, lsl #3]
  405d2c:	f8c4 8008 	str.w	r8, [r4, #8]
  405d30:	2301      	movs	r3, #1
  405d32:	408b      	lsls	r3, r1
  405d34:	eb07 01cc 	add.w	r1, r7, ip, lsl #3
  405d38:	4313      	orrs	r3, r2
  405d3a:	3908      	subs	r1, #8
  405d3c:	60e1      	str	r1, [r4, #12]
  405d3e:	607b      	str	r3, [r7, #4]
  405d40:	f847 403c 	str.w	r4, [r7, ip, lsl #3]
  405d44:	f8c8 400c 	str.w	r4, [r8, #12]
  405d48:	1082      	asrs	r2, r0, #2
  405d4a:	2401      	movs	r4, #1
  405d4c:	4094      	lsls	r4, r2
  405d4e:	429c      	cmp	r4, r3
  405d50:	f200 808b 	bhi.w	405e6a <_malloc_r+0x1ea>
  405d54:	421c      	tst	r4, r3
  405d56:	d106      	bne.n	405d66 <_malloc_r+0xe6>
  405d58:	f020 0003 	bic.w	r0, r0, #3
  405d5c:	0064      	lsls	r4, r4, #1
  405d5e:	421c      	tst	r4, r3
  405d60:	f100 0004 	add.w	r0, r0, #4
  405d64:	d0fa      	beq.n	405d5c <_malloc_r+0xdc>
  405d66:	eb07 09c0 	add.w	r9, r7, r0, lsl #3
  405d6a:	46cc      	mov	ip, r9
  405d6c:	4680      	mov	r8, r0
  405d6e:	f8dc 300c 	ldr.w	r3, [ip, #12]
  405d72:	459c      	cmp	ip, r3
  405d74:	d107      	bne.n	405d86 <_malloc_r+0x106>
  405d76:	e16d      	b.n	406054 <_malloc_r+0x3d4>
  405d78:	2a00      	cmp	r2, #0
  405d7a:	f280 817b 	bge.w	406074 <_malloc_r+0x3f4>
  405d7e:	68db      	ldr	r3, [r3, #12]
  405d80:	459c      	cmp	ip, r3
  405d82:	f000 8167 	beq.w	406054 <_malloc_r+0x3d4>
  405d86:	6859      	ldr	r1, [r3, #4]
  405d88:	f021 0103 	bic.w	r1, r1, #3
  405d8c:	1b8a      	subs	r2, r1, r6
  405d8e:	2a0f      	cmp	r2, #15
  405d90:	ddf2      	ble.n	405d78 <_malloc_r+0xf8>
  405d92:	f8d3 c00c 	ldr.w	ip, [r3, #12]
  405d96:	f8d3 8008 	ldr.w	r8, [r3, #8]
  405d9a:	9300      	str	r3, [sp, #0]
  405d9c:	199c      	adds	r4, r3, r6
  405d9e:	4628      	mov	r0, r5
  405da0:	f046 0601 	orr.w	r6, r6, #1
  405da4:	f042 0501 	orr.w	r5, r2, #1
  405da8:	605e      	str	r6, [r3, #4]
  405daa:	f8c8 c00c 	str.w	ip, [r8, #12]
  405dae:	f8cc 8008 	str.w	r8, [ip, #8]
  405db2:	617c      	str	r4, [r7, #20]
  405db4:	613c      	str	r4, [r7, #16]
  405db6:	f8c4 e00c 	str.w	lr, [r4, #12]
  405dba:	f8c4 e008 	str.w	lr, [r4, #8]
  405dbe:	6065      	str	r5, [r4, #4]
  405dc0:	505a      	str	r2, [r3, r1]
  405dc2:	f000 fadf 	bl	406384 <__malloc_unlock>
  405dc6:	9b00      	ldr	r3, [sp, #0]
  405dc8:	f103 0408 	add.w	r4, r3, #8
  405dcc:	e01e      	b.n	405e0c <_malloc_r+0x18c>
  405dce:	2910      	cmp	r1, #16
  405dd0:	d820      	bhi.n	405e14 <_malloc_r+0x194>
  405dd2:	f000 fad1 	bl	406378 <__malloc_lock>
  405dd6:	2610      	movs	r6, #16
  405dd8:	2318      	movs	r3, #24
  405dda:	2002      	movs	r0, #2
  405ddc:	4f79      	ldr	r7, [pc, #484]	; (405fc4 <_malloc_r+0x344>)
  405dde:	443b      	add	r3, r7
  405de0:	f1a3 0208 	sub.w	r2, r3, #8
  405de4:	685c      	ldr	r4, [r3, #4]
  405de6:	4294      	cmp	r4, r2
  405de8:	f000 813d 	beq.w	406066 <_malloc_r+0x3e6>
  405dec:	6863      	ldr	r3, [r4, #4]
  405dee:	68e1      	ldr	r1, [r4, #12]
  405df0:	68a6      	ldr	r6, [r4, #8]
  405df2:	f023 0303 	bic.w	r3, r3, #3
  405df6:	4423      	add	r3, r4
  405df8:	4628      	mov	r0, r5
  405dfa:	685a      	ldr	r2, [r3, #4]
  405dfc:	60f1      	str	r1, [r6, #12]
  405dfe:	f042 0201 	orr.w	r2, r2, #1
  405e02:	608e      	str	r6, [r1, #8]
  405e04:	605a      	str	r2, [r3, #4]
  405e06:	f000 fabd 	bl	406384 <__malloc_unlock>
  405e0a:	3408      	adds	r4, #8
  405e0c:	4620      	mov	r0, r4
  405e0e:	b003      	add	sp, #12
  405e10:	e8bd 8ff0 	ldmia.w	sp!, {r4, r5, r6, r7, r8, r9, sl, fp, pc}
  405e14:	2400      	movs	r4, #0
  405e16:	230c      	movs	r3, #12
  405e18:	4620      	mov	r0, r4
  405e1a:	602b      	str	r3, [r5, #0]
  405e1c:	b003      	add	sp, #12
  405e1e:	e8bd 8ff0 	ldmia.w	sp!, {r4, r5, r6, r7, r8, r9, sl, fp, pc}
  405e22:	2040      	movs	r0, #64	; 0x40
  405e24:	f44f 7300 	mov.w	r3, #512	; 0x200
  405e28:	f04f 0e3f 	mov.w	lr, #63	; 0x3f
  405e2c:	e74a      	b.n	405cc4 <_malloc_r+0x44>
  405e2e:	4423      	add	r3, r4
  405e30:	68e1      	ldr	r1, [r4, #12]
  405e32:	685a      	ldr	r2, [r3, #4]
  405e34:	68a6      	ldr	r6, [r4, #8]
  405e36:	f042 0201 	orr.w	r2, r2, #1
  405e3a:	60f1      	str	r1, [r6, #12]
  405e3c:	4628      	mov	r0, r5
  405e3e:	608e      	str	r6, [r1, #8]
  405e40:	605a      	str	r2, [r3, #4]
  405e42:	f000 fa9f 	bl	406384 <__malloc_unlock>
  405e46:	3408      	adds	r4, #8
  405e48:	4620      	mov	r0, r4
  405e4a:	b003      	add	sp, #12
  405e4c:	e8bd 8ff0 	ldmia.w	sp!, {r4, r5, r6, r7, r8, r9, sl, fp, pc}
  405e50:	4423      	add	r3, r4
  405e52:	4628      	mov	r0, r5
  405e54:	685a      	ldr	r2, [r3, #4]
  405e56:	f042 0201 	orr.w	r2, r2, #1
  405e5a:	605a      	str	r2, [r3, #4]
  405e5c:	f000 fa92 	bl	406384 <__malloc_unlock>
  405e60:	3408      	adds	r4, #8
  405e62:	4620      	mov	r0, r4
  405e64:	b003      	add	sp, #12
  405e66:	e8bd 8ff0 	ldmia.w	sp!, {r4, r5, r6, r7, r8, r9, sl, fp, pc}
  405e6a:	68bc      	ldr	r4, [r7, #8]
  405e6c:	6863      	ldr	r3, [r4, #4]
  405e6e:	f023 0803 	bic.w	r8, r3, #3
  405e72:	45b0      	cmp	r8, r6
  405e74:	d304      	bcc.n	405e80 <_malloc_r+0x200>
  405e76:	eba8 0306 	sub.w	r3, r8, r6
  405e7a:	2b0f      	cmp	r3, #15
  405e7c:	f300 8085 	bgt.w	405f8a <_malloc_r+0x30a>
  405e80:	f8df 9158 	ldr.w	r9, [pc, #344]	; 405fdc <_malloc_r+0x35c>
  405e84:	4b50      	ldr	r3, [pc, #320]	; (405fc8 <_malloc_r+0x348>)
  405e86:	f8d9 2000 	ldr.w	r2, [r9]
  405e8a:	681b      	ldr	r3, [r3, #0]
  405e8c:	3201      	adds	r2, #1
  405e8e:	4433      	add	r3, r6
  405e90:	eb04 0a08 	add.w	sl, r4, r8
  405e94:	f000 8155 	beq.w	406142 <_malloc_r+0x4c2>
  405e98:	f503 5380 	add.w	r3, r3, #4096	; 0x1000
  405e9c:	330f      	adds	r3, #15
  405e9e:	f423 6b7f 	bic.w	fp, r3, #4080	; 0xff0
  405ea2:	f02b 0b0f 	bic.w	fp, fp, #15
  405ea6:	4659      	mov	r1, fp
  405ea8:	4628      	mov	r0, r5
  405eaa:	f000 ff11 	bl	406cd0 <_sbrk_r>
  405eae:	1c41      	adds	r1, r0, #1
  405eb0:	4602      	mov	r2, r0
  405eb2:	f000 80fc 	beq.w	4060ae <_malloc_r+0x42e>
  405eb6:	4582      	cmp	sl, r0
  405eb8:	f200 80f7 	bhi.w	4060aa <_malloc_r+0x42a>
  405ebc:	4b43      	ldr	r3, [pc, #268]	; (405fcc <_malloc_r+0x34c>)
  405ebe:	6819      	ldr	r1, [r3, #0]
  405ec0:	4459      	add	r1, fp
  405ec2:	6019      	str	r1, [r3, #0]
  405ec4:	f000 814d 	beq.w	406162 <_malloc_r+0x4e2>
  405ec8:	f8d9 0000 	ldr.w	r0, [r9]
  405ecc:	3001      	adds	r0, #1
  405ece:	bf1b      	ittet	ne
  405ed0:	eba2 0a0a 	subne.w	sl, r2, sl
  405ed4:	4451      	addne	r1, sl
  405ed6:	f8c9 2000 	streq.w	r2, [r9]
  405eda:	6019      	strne	r1, [r3, #0]
  405edc:	f012 0107 	ands.w	r1, r2, #7
  405ee0:	f000 8115 	beq.w	40610e <_malloc_r+0x48e>
  405ee4:	f1c1 0008 	rsb	r0, r1, #8
  405ee8:	f5c1 5180 	rsb	r1, r1, #4096	; 0x1000
  405eec:	4402      	add	r2, r0
  405eee:	3108      	adds	r1, #8
  405ef0:	eb02 090b 	add.w	r9, r2, fp
  405ef4:	f3c9 090b 	ubfx	r9, r9, #0, #12
  405ef8:	eba1 0909 	sub.w	r9, r1, r9
  405efc:	4649      	mov	r1, r9
  405efe:	4628      	mov	r0, r5
  405f00:	9301      	str	r3, [sp, #4]
  405f02:	9200      	str	r2, [sp, #0]
  405f04:	f000 fee4 	bl	406cd0 <_sbrk_r>
  405f08:	1c43      	adds	r3, r0, #1
  405f0a:	e89d 000c 	ldmia.w	sp, {r2, r3}
  405f0e:	f000 8143 	beq.w	406198 <_malloc_r+0x518>
  405f12:	1a80      	subs	r0, r0, r2
  405f14:	4448      	add	r0, r9
  405f16:	f040 0001 	orr.w	r0, r0, #1
  405f1a:	6819      	ldr	r1, [r3, #0]
  405f1c:	60ba      	str	r2, [r7, #8]
  405f1e:	4449      	add	r1, r9
  405f20:	42bc      	cmp	r4, r7
  405f22:	6050      	str	r0, [r2, #4]
  405f24:	6019      	str	r1, [r3, #0]
  405f26:	d017      	beq.n	405f58 <_malloc_r+0x2d8>
  405f28:	f1b8 0f0f 	cmp.w	r8, #15
  405f2c:	f240 80fb 	bls.w	406126 <_malloc_r+0x4a6>
  405f30:	6860      	ldr	r0, [r4, #4]
  405f32:	f1a8 020c 	sub.w	r2, r8, #12
  405f36:	f022 0207 	bic.w	r2, r2, #7
  405f3a:	eb04 0e02 	add.w	lr, r4, r2
  405f3e:	f000 0001 	and.w	r0, r0, #1
  405f42:	f04f 0c05 	mov.w	ip, #5
  405f46:	4310      	orrs	r0, r2
  405f48:	2a0f      	cmp	r2, #15
  405f4a:	6060      	str	r0, [r4, #4]
  405f4c:	f8ce c004 	str.w	ip, [lr, #4]
  405f50:	f8ce c008 	str.w	ip, [lr, #8]
  405f54:	f200 8117 	bhi.w	406186 <_malloc_r+0x506>
  405f58:	4b1d      	ldr	r3, [pc, #116]	; (405fd0 <_malloc_r+0x350>)
  405f5a:	68bc      	ldr	r4, [r7, #8]
  405f5c:	681a      	ldr	r2, [r3, #0]
  405f5e:	4291      	cmp	r1, r2
  405f60:	bf88      	it	hi
  405f62:	6019      	strhi	r1, [r3, #0]
  405f64:	4b1b      	ldr	r3, [pc, #108]	; (405fd4 <_malloc_r+0x354>)
  405f66:	681a      	ldr	r2, [r3, #0]
  405f68:	4291      	cmp	r1, r2
  405f6a:	6862      	ldr	r2, [r4, #4]
  405f6c:	bf88      	it	hi
  405f6e:	6019      	strhi	r1, [r3, #0]
  405f70:	f022 0203 	bic.w	r2, r2, #3
  405f74:	4296      	cmp	r6, r2
  405f76:	eba2 0306 	sub.w	r3, r2, r6
  405f7a:	d801      	bhi.n	405f80 <_malloc_r+0x300>
  405f7c:	2b0f      	cmp	r3, #15
  405f7e:	dc04      	bgt.n	405f8a <_malloc_r+0x30a>
  405f80:	4628      	mov	r0, r5
  405f82:	f000 f9ff 	bl	406384 <__malloc_unlock>
  405f86:	2400      	movs	r4, #0
  405f88:	e740      	b.n	405e0c <_malloc_r+0x18c>
  405f8a:	19a2      	adds	r2, r4, r6
  405f8c:	f043 0301 	orr.w	r3, r3, #1
  405f90:	f046 0601 	orr.w	r6, r6, #1
  405f94:	6066      	str	r6, [r4, #4]
  405f96:	4628      	mov	r0, r5
  405f98:	60ba      	str	r2, [r7, #8]
  405f9a:	6053      	str	r3, [r2, #4]
  405f9c:	f000 f9f2 	bl	406384 <__malloc_unlock>
  405fa0:	3408      	adds	r4, #8
  405fa2:	4620      	mov	r0, r4
  405fa4:	b003      	add	sp, #12
  405fa6:	e8bd 8ff0 	ldmia.w	sp!, {r4, r5, r6, r7, r8, r9, sl, fp, pc}
  405faa:	2b14      	cmp	r3, #20
  405fac:	d971      	bls.n	406092 <_malloc_r+0x412>
  405fae:	2b54      	cmp	r3, #84	; 0x54
  405fb0:	f200 80a3 	bhi.w	4060fa <_malloc_r+0x47a>
  405fb4:	0b33      	lsrs	r3, r6, #12
  405fb6:	f103 006f 	add.w	r0, r3, #111	; 0x6f
  405fba:	f103 0e6e 	add.w	lr, r3, #110	; 0x6e
  405fbe:	00c3      	lsls	r3, r0, #3
  405fc0:	e680      	b.n	405cc4 <_malloc_r+0x44>
  405fc2:	bf00      	nop
  405fc4:	204005a8 	.word	0x204005a8
  405fc8:	20400e3c 	.word	0x20400e3c
  405fcc:	20400e0c 	.word	0x20400e0c
  405fd0:	20400e34 	.word	0x20400e34
  405fd4:	20400e38 	.word	0x20400e38
  405fd8:	204005b0 	.word	0x204005b0
  405fdc:	204009b0 	.word	0x204009b0
  405fe0:	0a5a      	lsrs	r2, r3, #9
  405fe2:	2a04      	cmp	r2, #4
  405fe4:	d95b      	bls.n	40609e <_malloc_r+0x41e>
  405fe6:	2a14      	cmp	r2, #20
  405fe8:	f200 80ae 	bhi.w	406148 <_malloc_r+0x4c8>
  405fec:	f102 015c 	add.w	r1, r2, #92	; 0x5c
  405ff0:	00c9      	lsls	r1, r1, #3
  405ff2:	325b      	adds	r2, #91	; 0x5b
  405ff4:	eb07 0c01 	add.w	ip, r7, r1
  405ff8:	5879      	ldr	r1, [r7, r1]
  405ffa:	f1ac 0c08 	sub.w	ip, ip, #8
  405ffe:	458c      	cmp	ip, r1
  406000:	f000 8088 	beq.w	406114 <_malloc_r+0x494>
  406004:	684a      	ldr	r2, [r1, #4]
  406006:	f022 0203 	bic.w	r2, r2, #3
  40600a:	4293      	cmp	r3, r2
  40600c:	d273      	bcs.n	4060f6 <_malloc_r+0x476>
  40600e:	6889      	ldr	r1, [r1, #8]
  406010:	458c      	cmp	ip, r1
  406012:	d1f7      	bne.n	406004 <_malloc_r+0x384>
  406014:	f8dc 200c 	ldr.w	r2, [ip, #12]
  406018:	687b      	ldr	r3, [r7, #4]
  40601a:	60e2      	str	r2, [r4, #12]
  40601c:	f8c4 c008 	str.w	ip, [r4, #8]
  406020:	6094      	str	r4, [r2, #8]
  406022:	f8cc 400c 	str.w	r4, [ip, #12]
  406026:	e68f      	b.n	405d48 <_malloc_r+0xc8>
  406028:	19a1      	adds	r1, r4, r6
  40602a:	f046 0c01 	orr.w	ip, r6, #1
  40602e:	f042 0601 	orr.w	r6, r2, #1
  406032:	f8c4 c004 	str.w	ip, [r4, #4]
  406036:	4628      	mov	r0, r5
  406038:	6179      	str	r1, [r7, #20]
  40603a:	6139      	str	r1, [r7, #16]
  40603c:	f8c1 e00c 	str.w	lr, [r1, #12]
  406040:	f8c1 e008 	str.w	lr, [r1, #8]
  406044:	604e      	str	r6, [r1, #4]
  406046:	50e2      	str	r2, [r4, r3]
  406048:	f000 f99c 	bl	406384 <__malloc_unlock>
  40604c:	3408      	adds	r4, #8
  40604e:	e6dd      	b.n	405e0c <_malloc_r+0x18c>
  406050:	687b      	ldr	r3, [r7, #4]
  406052:	e679      	b.n	405d48 <_malloc_r+0xc8>
  406054:	f108 0801 	add.w	r8, r8, #1
  406058:	f018 0f03 	tst.w	r8, #3
  40605c:	f10c 0c08 	add.w	ip, ip, #8
  406060:	f47f ae85 	bne.w	405d6e <_malloc_r+0xee>
  406064:	e02d      	b.n	4060c2 <_malloc_r+0x442>
  406066:	68dc      	ldr	r4, [r3, #12]
  406068:	42a3      	cmp	r3, r4
  40606a:	bf08      	it	eq
  40606c:	3002      	addeq	r0, #2
  40606e:	f43f ae3e 	beq.w	405cee <_malloc_r+0x6e>
  406072:	e6bb      	b.n	405dec <_malloc_r+0x16c>
  406074:	4419      	add	r1, r3
  406076:	461c      	mov	r4, r3
  406078:	684a      	ldr	r2, [r1, #4]
  40607a:	68db      	ldr	r3, [r3, #12]
  40607c:	f854 6f08 	ldr.w	r6, [r4, #8]!
  406080:	f042 0201 	orr.w	r2, r2, #1
  406084:	604a      	str	r2, [r1, #4]
  406086:	4628      	mov	r0, r5
  406088:	60f3      	str	r3, [r6, #12]
  40608a:	609e      	str	r6, [r3, #8]
  40608c:	f000 f97a 	bl	406384 <__malloc_unlock>
  406090:	e6bc      	b.n	405e0c <_malloc_r+0x18c>
  406092:	f103 005c 	add.w	r0, r3, #92	; 0x5c
  406096:	f103 0e5b 	add.w	lr, r3, #91	; 0x5b
  40609a:	00c3      	lsls	r3, r0, #3
  40609c:	e612      	b.n	405cc4 <_malloc_r+0x44>
  40609e:	099a      	lsrs	r2, r3, #6
  4060a0:	f102 0139 	add.w	r1, r2, #57	; 0x39
  4060a4:	00c9      	lsls	r1, r1, #3
  4060a6:	3238      	adds	r2, #56	; 0x38
  4060a8:	e7a4      	b.n	405ff4 <_malloc_r+0x374>
  4060aa:	42bc      	cmp	r4, r7
  4060ac:	d054      	beq.n	406158 <_malloc_r+0x4d8>
  4060ae:	68bc      	ldr	r4, [r7, #8]
  4060b0:	6862      	ldr	r2, [r4, #4]
  4060b2:	f022 0203 	bic.w	r2, r2, #3
  4060b6:	e75d      	b.n	405f74 <_malloc_r+0x2f4>
  4060b8:	f859 3908 	ldr.w	r3, [r9], #-8
  4060bc:	4599      	cmp	r9, r3
  4060be:	f040 8086 	bne.w	4061ce <_malloc_r+0x54e>
  4060c2:	f010 0f03 	tst.w	r0, #3
  4060c6:	f100 30ff 	add.w	r0, r0, #4294967295
  4060ca:	d1f5      	bne.n	4060b8 <_malloc_r+0x438>
  4060cc:	687b      	ldr	r3, [r7, #4]
  4060ce:	ea23 0304 	bic.w	r3, r3, r4
  4060d2:	607b      	str	r3, [r7, #4]
  4060d4:	0064      	lsls	r4, r4, #1
  4060d6:	429c      	cmp	r4, r3
  4060d8:	f63f aec7 	bhi.w	405e6a <_malloc_r+0x1ea>
  4060dc:	2c00      	cmp	r4, #0
  4060de:	f43f aec4 	beq.w	405e6a <_malloc_r+0x1ea>
  4060e2:	421c      	tst	r4, r3
  4060e4:	4640      	mov	r0, r8
  4060e6:	f47f ae3e 	bne.w	405d66 <_malloc_r+0xe6>
  4060ea:	0064      	lsls	r4, r4, #1
  4060ec:	421c      	tst	r4, r3
  4060ee:	f100 0004 	add.w	r0, r0, #4
  4060f2:	d0fa      	beq.n	4060ea <_malloc_r+0x46a>
  4060f4:	e637      	b.n	405d66 <_malloc_r+0xe6>
  4060f6:	468c      	mov	ip, r1
  4060f8:	e78c      	b.n	406014 <_malloc_r+0x394>
  4060fa:	f5b3 7faa 	cmp.w	r3, #340	; 0x154
  4060fe:	d815      	bhi.n	40612c <_malloc_r+0x4ac>
  406100:	0bf3      	lsrs	r3, r6, #15
  406102:	f103 0078 	add.w	r0, r3, #120	; 0x78
  406106:	f103 0e77 	add.w	lr, r3, #119	; 0x77
  40610a:	00c3      	lsls	r3, r0, #3
  40610c:	e5da      	b.n	405cc4 <_malloc_r+0x44>
  40610e:	f44f 5180 	mov.w	r1, #4096	; 0x1000
  406112:	e6ed      	b.n	405ef0 <_malloc_r+0x270>
  406114:	687b      	ldr	r3, [r7, #4]
  406116:	1092      	asrs	r2, r2, #2
  406118:	2101      	movs	r1, #1
  40611a:	fa01 f202 	lsl.w	r2, r1, r2
  40611e:	4313      	orrs	r3, r2
  406120:	607b      	str	r3, [r7, #4]
  406122:	4662      	mov	r2, ip
  406124:	e779      	b.n	40601a <_malloc_r+0x39a>
  406126:	2301      	movs	r3, #1
  406128:	6053      	str	r3, [r2, #4]
  40612a:	e729      	b.n	405f80 <_malloc_r+0x300>
  40612c:	f240 5254 	movw	r2, #1364	; 0x554
  406130:	4293      	cmp	r3, r2
  406132:	d822      	bhi.n	40617a <_malloc_r+0x4fa>
  406134:	0cb3      	lsrs	r3, r6, #18
  406136:	f103 007d 	add.w	r0, r3, #125	; 0x7d
  40613a:	f103 0e7c 	add.w	lr, r3, #124	; 0x7c
  40613e:	00c3      	lsls	r3, r0, #3
  406140:	e5c0      	b.n	405cc4 <_malloc_r+0x44>
  406142:	f103 0b10 	add.w	fp, r3, #16
  406146:	e6ae      	b.n	405ea6 <_malloc_r+0x226>
  406148:	2a54      	cmp	r2, #84	; 0x54
  40614a:	d829      	bhi.n	4061a0 <_malloc_r+0x520>
  40614c:	0b1a      	lsrs	r2, r3, #12
  40614e:	f102 016f 	add.w	r1, r2, #111	; 0x6f
  406152:	00c9      	lsls	r1, r1, #3
  406154:	326e      	adds	r2, #110	; 0x6e
  406156:	e74d      	b.n	405ff4 <_malloc_r+0x374>
  406158:	4b20      	ldr	r3, [pc, #128]	; (4061dc <_malloc_r+0x55c>)
  40615a:	6819      	ldr	r1, [r3, #0]
  40615c:	4459      	add	r1, fp
  40615e:	6019      	str	r1, [r3, #0]
  406160:	e6b2      	b.n	405ec8 <_malloc_r+0x248>
  406162:	f3ca 000b 	ubfx	r0, sl, #0, #12
  406166:	2800      	cmp	r0, #0
  406168:	f47f aeae 	bne.w	405ec8 <_malloc_r+0x248>
  40616c:	eb08 030b 	add.w	r3, r8, fp
  406170:	68ba      	ldr	r2, [r7, #8]
  406172:	f043 0301 	orr.w	r3, r3, #1
  406176:	6053      	str	r3, [r2, #4]
  406178:	e6ee      	b.n	405f58 <_malloc_r+0x2d8>
  40617a:	207f      	movs	r0, #127	; 0x7f
  40617c:	f44f 737e 	mov.w	r3, #1016	; 0x3f8
  406180:	f04f 0e7e 	mov.w	lr, #126	; 0x7e
  406184:	e59e      	b.n	405cc4 <_malloc_r+0x44>
  406186:	f104 0108 	add.w	r1, r4, #8
  40618a:	4628      	mov	r0, r5
  40618c:	9300      	str	r3, [sp, #0]
  40618e:	f7ff fa4b 	bl	405628 <_free_r>
  406192:	9b00      	ldr	r3, [sp, #0]
  406194:	6819      	ldr	r1, [r3, #0]
  406196:	e6df      	b.n	405f58 <_malloc_r+0x2d8>
  406198:	2001      	movs	r0, #1
  40619a:	f04f 0900 	mov.w	r9, #0
  40619e:	e6bc      	b.n	405f1a <_malloc_r+0x29a>
  4061a0:	f5b2 7faa 	cmp.w	r2, #340	; 0x154
  4061a4:	d805      	bhi.n	4061b2 <_malloc_r+0x532>
  4061a6:	0bda      	lsrs	r2, r3, #15
  4061a8:	f102 0178 	add.w	r1, r2, #120	; 0x78
  4061ac:	00c9      	lsls	r1, r1, #3
  4061ae:	3277      	adds	r2, #119	; 0x77
  4061b0:	e720      	b.n	405ff4 <_malloc_r+0x374>
  4061b2:	f240 5154 	movw	r1, #1364	; 0x554
  4061b6:	428a      	cmp	r2, r1
  4061b8:	d805      	bhi.n	4061c6 <_malloc_r+0x546>
  4061ba:	0c9a      	lsrs	r2, r3, #18
  4061bc:	f102 017d 	add.w	r1, r2, #125	; 0x7d
  4061c0:	00c9      	lsls	r1, r1, #3
  4061c2:	327c      	adds	r2, #124	; 0x7c
  4061c4:	e716      	b.n	405ff4 <_malloc_r+0x374>
  4061c6:	f44f 717e 	mov.w	r1, #1016	; 0x3f8
  4061ca:	227e      	movs	r2, #126	; 0x7e
  4061cc:	e712      	b.n	405ff4 <_malloc_r+0x374>
  4061ce:	687b      	ldr	r3, [r7, #4]
  4061d0:	e780      	b.n	4060d4 <_malloc_r+0x454>
  4061d2:	08f0      	lsrs	r0, r6, #3
  4061d4:	f106 0308 	add.w	r3, r6, #8
  4061d8:	e600      	b.n	405ddc <_malloc_r+0x15c>
  4061da:	bf00      	nop
  4061dc:	20400e0c 	.word	0x20400e0c

004061e0 <__ascii_mbtowc>:
  4061e0:	b082      	sub	sp, #8
  4061e2:	b149      	cbz	r1, 4061f8 <__ascii_mbtowc+0x18>
  4061e4:	b15a      	cbz	r2, 4061fe <__ascii_mbtowc+0x1e>
  4061e6:	b16b      	cbz	r3, 406204 <__ascii_mbtowc+0x24>
  4061e8:	7813      	ldrb	r3, [r2, #0]
  4061ea:	600b      	str	r3, [r1, #0]
  4061ec:	7812      	ldrb	r2, [r2, #0]
  4061ee:	1c10      	adds	r0, r2, #0
  4061f0:	bf18      	it	ne
  4061f2:	2001      	movne	r0, #1
  4061f4:	b002      	add	sp, #8
  4061f6:	4770      	bx	lr
  4061f8:	a901      	add	r1, sp, #4
  4061fa:	2a00      	cmp	r2, #0
  4061fc:	d1f3      	bne.n	4061e6 <__ascii_mbtowc+0x6>
  4061fe:	4610      	mov	r0, r2
  406200:	b002      	add	sp, #8
  406202:	4770      	bx	lr
  406204:	f06f 0001 	mvn.w	r0, #1
  406208:	e7f4      	b.n	4061f4 <__ascii_mbtowc+0x14>
  40620a:	bf00      	nop
  40620c:	0000      	movs	r0, r0
	...

00406210 <memchr>:
  406210:	f001 01ff 	and.w	r1, r1, #255	; 0xff
  406214:	2a10      	cmp	r2, #16
  406216:	db2b      	blt.n	406270 <memchr+0x60>
  406218:	f010 0f07 	tst.w	r0, #7
  40621c:	d008      	beq.n	406230 <memchr+0x20>
  40621e:	f810 3b01 	ldrb.w	r3, [r0], #1
  406222:	3a01      	subs	r2, #1
  406224:	428b      	cmp	r3, r1
  406226:	d02d      	beq.n	406284 <memchr+0x74>
  406228:	f010 0f07 	tst.w	r0, #7
  40622c:	b342      	cbz	r2, 406280 <memchr+0x70>
  40622e:	d1f6      	bne.n	40621e <memchr+0xe>
  406230:	b4f0      	push	{r4, r5, r6, r7}
  406232:	ea41 2101 	orr.w	r1, r1, r1, lsl #8
  406236:	ea41 4101 	orr.w	r1, r1, r1, lsl #16
  40623a:	f022 0407 	bic.w	r4, r2, #7
  40623e:	f07f 0700 	mvns.w	r7, #0
  406242:	2300      	movs	r3, #0
  406244:	e8f0 5602 	ldrd	r5, r6, [r0], #8
  406248:	3c08      	subs	r4, #8
  40624a:	ea85 0501 	eor.w	r5, r5, r1
  40624e:	ea86 0601 	eor.w	r6, r6, r1
  406252:	fa85 f547 	uadd8	r5, r5, r7
  406256:	faa3 f587 	sel	r5, r3, r7
  40625a:	fa86 f647 	uadd8	r6, r6, r7
  40625e:	faa5 f687 	sel	r6, r5, r7
  406262:	b98e      	cbnz	r6, 406288 <memchr+0x78>
  406264:	d1ee      	bne.n	406244 <memchr+0x34>
  406266:	bcf0      	pop	{r4, r5, r6, r7}
  406268:	f001 01ff 	and.w	r1, r1, #255	; 0xff
  40626c:	f002 0207 	and.w	r2, r2, #7
  406270:	b132      	cbz	r2, 406280 <memchr+0x70>
  406272:	f810 3b01 	ldrb.w	r3, [r0], #1
  406276:	3a01      	subs	r2, #1
  406278:	ea83 0301 	eor.w	r3, r3, r1
  40627c:	b113      	cbz	r3, 406284 <memchr+0x74>
  40627e:	d1f8      	bne.n	406272 <memchr+0x62>
  406280:	2000      	movs	r0, #0
  406282:	4770      	bx	lr
  406284:	3801      	subs	r0, #1
  406286:	4770      	bx	lr
  406288:	2d00      	cmp	r5, #0
  40628a:	bf06      	itte	eq
  40628c:	4635      	moveq	r5, r6
  40628e:	3803      	subeq	r0, #3
  406290:	3807      	subne	r0, #7
  406292:	f015 0f01 	tst.w	r5, #1
  406296:	d107      	bne.n	4062a8 <memchr+0x98>
  406298:	3001      	adds	r0, #1
  40629a:	f415 7f80 	tst.w	r5, #256	; 0x100
  40629e:	bf02      	ittt	eq
  4062a0:	3001      	addeq	r0, #1
  4062a2:	f415 3fc0 	tsteq.w	r5, #98304	; 0x18000
  4062a6:	3001      	addeq	r0, #1
  4062a8:	bcf0      	pop	{r4, r5, r6, r7}
  4062aa:	3801      	subs	r0, #1
  4062ac:	4770      	bx	lr
  4062ae:	bf00      	nop

004062b0 <memmove>:
  4062b0:	4288      	cmp	r0, r1
  4062b2:	b5f0      	push	{r4, r5, r6, r7, lr}
  4062b4:	d90d      	bls.n	4062d2 <memmove+0x22>
  4062b6:	188b      	adds	r3, r1, r2
  4062b8:	4298      	cmp	r0, r3
  4062ba:	d20a      	bcs.n	4062d2 <memmove+0x22>
  4062bc:	1884      	adds	r4, r0, r2
  4062be:	2a00      	cmp	r2, #0
  4062c0:	d051      	beq.n	406366 <memmove+0xb6>
  4062c2:	4622      	mov	r2, r4
  4062c4:	f813 4d01 	ldrb.w	r4, [r3, #-1]!
  4062c8:	f802 4d01 	strb.w	r4, [r2, #-1]!
  4062cc:	4299      	cmp	r1, r3
  4062ce:	d1f9      	bne.n	4062c4 <memmove+0x14>
  4062d0:	bdf0      	pop	{r4, r5, r6, r7, pc}
  4062d2:	2a0f      	cmp	r2, #15
  4062d4:	d948      	bls.n	406368 <memmove+0xb8>
  4062d6:	ea41 0300 	orr.w	r3, r1, r0
  4062da:	079b      	lsls	r3, r3, #30
  4062dc:	d146      	bne.n	40636c <memmove+0xbc>
  4062de:	f100 0410 	add.w	r4, r0, #16
  4062e2:	f101 0310 	add.w	r3, r1, #16
  4062e6:	4615      	mov	r5, r2
  4062e8:	f853 6c10 	ldr.w	r6, [r3, #-16]
  4062ec:	f844 6c10 	str.w	r6, [r4, #-16]
  4062f0:	f853 6c0c 	ldr.w	r6, [r3, #-12]
  4062f4:	f844 6c0c 	str.w	r6, [r4, #-12]
  4062f8:	f853 6c08 	ldr.w	r6, [r3, #-8]
  4062fc:	f844 6c08 	str.w	r6, [r4, #-8]
  406300:	3d10      	subs	r5, #16
  406302:	f853 6c04 	ldr.w	r6, [r3, #-4]
  406306:	f844 6c04 	str.w	r6, [r4, #-4]
  40630a:	2d0f      	cmp	r5, #15
  40630c:	f103 0310 	add.w	r3, r3, #16
  406310:	f104 0410 	add.w	r4, r4, #16
  406314:	d8e8      	bhi.n	4062e8 <memmove+0x38>
  406316:	f1a2 0310 	sub.w	r3, r2, #16
  40631a:	f023 030f 	bic.w	r3, r3, #15
  40631e:	f002 0e0f 	and.w	lr, r2, #15
  406322:	3310      	adds	r3, #16
  406324:	f1be 0f03 	cmp.w	lr, #3
  406328:	4419      	add	r1, r3
  40632a:	4403      	add	r3, r0
  40632c:	d921      	bls.n	406372 <memmove+0xc2>
  40632e:	1f1e      	subs	r6, r3, #4
  406330:	460d      	mov	r5, r1
  406332:	4674      	mov	r4, lr
  406334:	3c04      	subs	r4, #4
  406336:	f855 7b04 	ldr.w	r7, [r5], #4
  40633a:	f846 7f04 	str.w	r7, [r6, #4]!
  40633e:	2c03      	cmp	r4, #3
  406340:	d8f8      	bhi.n	406334 <memmove+0x84>
  406342:	f1ae 0404 	sub.w	r4, lr, #4
  406346:	f024 0403 	bic.w	r4, r4, #3
  40634a:	3404      	adds	r4, #4
  40634c:	4421      	add	r1, r4
  40634e:	4423      	add	r3, r4
  406350:	f002 0203 	and.w	r2, r2, #3
  406354:	b162      	cbz	r2, 406370 <memmove+0xc0>
  406356:	3b01      	subs	r3, #1
  406358:	440a      	add	r2, r1
  40635a:	f811 4b01 	ldrb.w	r4, [r1], #1
  40635e:	f803 4f01 	strb.w	r4, [r3, #1]!
  406362:	428a      	cmp	r2, r1
  406364:	d1f9      	bne.n	40635a <memmove+0xaa>
  406366:	bdf0      	pop	{r4, r5, r6, r7, pc}
  406368:	4603      	mov	r3, r0
  40636a:	e7f3      	b.n	406354 <memmove+0xa4>
  40636c:	4603      	mov	r3, r0
  40636e:	e7f2      	b.n	406356 <memmove+0xa6>
  406370:	bdf0      	pop	{r4, r5, r6, r7, pc}
  406372:	4672      	mov	r2, lr
  406374:	e7ee      	b.n	406354 <memmove+0xa4>
  406376:	bf00      	nop

00406378 <__malloc_lock>:
  406378:	4801      	ldr	r0, [pc, #4]	; (406380 <__malloc_lock+0x8>)
  40637a:	f7ff bbfd 	b.w	405b78 <__retarget_lock_acquire_recursive>
  40637e:	bf00      	nop
  406380:	20400e6c 	.word	0x20400e6c

00406384 <__malloc_unlock>:
  406384:	4801      	ldr	r0, [pc, #4]	; (40638c <__malloc_unlock+0x8>)
  406386:	f7ff bbf9 	b.w	405b7c <__retarget_lock_release_recursive>
  40638a:	bf00      	nop
  40638c:	20400e6c 	.word	0x20400e6c

00406390 <_Balloc>:
  406390:	6cc3      	ldr	r3, [r0, #76]	; 0x4c
  406392:	b570      	push	{r4, r5, r6, lr}
  406394:	4605      	mov	r5, r0
  406396:	460c      	mov	r4, r1
  406398:	b14b      	cbz	r3, 4063ae <_Balloc+0x1e>
  40639a:	f853 0024 	ldr.w	r0, [r3, r4, lsl #2]
  40639e:	b180      	cbz	r0, 4063c2 <_Balloc+0x32>
  4063a0:	6802      	ldr	r2, [r0, #0]
  4063a2:	f843 2024 	str.w	r2, [r3, r4, lsl #2]
  4063a6:	2300      	movs	r3, #0
  4063a8:	6103      	str	r3, [r0, #16]
  4063aa:	60c3      	str	r3, [r0, #12]
  4063ac:	bd70      	pop	{r4, r5, r6, pc}
  4063ae:	2221      	movs	r2, #33	; 0x21
  4063b0:	2104      	movs	r1, #4
  4063b2:	f000 fed9 	bl	407168 <_calloc_r>
  4063b6:	64e8      	str	r0, [r5, #76]	; 0x4c
  4063b8:	4603      	mov	r3, r0
  4063ba:	2800      	cmp	r0, #0
  4063bc:	d1ed      	bne.n	40639a <_Balloc+0xa>
  4063be:	2000      	movs	r0, #0
  4063c0:	bd70      	pop	{r4, r5, r6, pc}
  4063c2:	2101      	movs	r1, #1
  4063c4:	fa01 f604 	lsl.w	r6, r1, r4
  4063c8:	1d72      	adds	r2, r6, #5
  4063ca:	4628      	mov	r0, r5
  4063cc:	0092      	lsls	r2, r2, #2
  4063ce:	f000 fecb 	bl	407168 <_calloc_r>
  4063d2:	2800      	cmp	r0, #0
  4063d4:	d0f3      	beq.n	4063be <_Balloc+0x2e>
  4063d6:	6044      	str	r4, [r0, #4]
  4063d8:	6086      	str	r6, [r0, #8]
  4063da:	e7e4      	b.n	4063a6 <_Balloc+0x16>

004063dc <_Bfree>:
  4063dc:	b131      	cbz	r1, 4063ec <_Bfree+0x10>
  4063de:	6cc3      	ldr	r3, [r0, #76]	; 0x4c
  4063e0:	684a      	ldr	r2, [r1, #4]
  4063e2:	f853 0022 	ldr.w	r0, [r3, r2, lsl #2]
  4063e6:	6008      	str	r0, [r1, #0]
  4063e8:	f843 1022 	str.w	r1, [r3, r2, lsl #2]
  4063ec:	4770      	bx	lr
  4063ee:	bf00      	nop

004063f0 <__multadd>:
  4063f0:	b5f0      	push	{r4, r5, r6, r7, lr}
  4063f2:	690c      	ldr	r4, [r1, #16]
  4063f4:	b083      	sub	sp, #12
  4063f6:	460d      	mov	r5, r1
  4063f8:	4606      	mov	r6, r0
  4063fa:	f101 0e14 	add.w	lr, r1, #20
  4063fe:	2700      	movs	r7, #0
  406400:	f8de 0000 	ldr.w	r0, [lr]
  406404:	b281      	uxth	r1, r0
  406406:	fb02 3301 	mla	r3, r2, r1, r3
  40640a:	0c01      	lsrs	r1, r0, #16
  40640c:	0c18      	lsrs	r0, r3, #16
  40640e:	fb02 0101 	mla	r1, r2, r1, r0
  406412:	b29b      	uxth	r3, r3
  406414:	3701      	adds	r7, #1
  406416:	eb03 4301 	add.w	r3, r3, r1, lsl #16
  40641a:	42bc      	cmp	r4, r7
  40641c:	f84e 3b04 	str.w	r3, [lr], #4
  406420:	ea4f 4311 	mov.w	r3, r1, lsr #16
  406424:	dcec      	bgt.n	406400 <__multadd+0x10>
  406426:	b13b      	cbz	r3, 406438 <__multadd+0x48>
  406428:	68aa      	ldr	r2, [r5, #8]
  40642a:	4294      	cmp	r4, r2
  40642c:	da07      	bge.n	40643e <__multadd+0x4e>
  40642e:	eb05 0284 	add.w	r2, r5, r4, lsl #2
  406432:	3401      	adds	r4, #1
  406434:	6153      	str	r3, [r2, #20]
  406436:	612c      	str	r4, [r5, #16]
  406438:	4628      	mov	r0, r5
  40643a:	b003      	add	sp, #12
  40643c:	bdf0      	pop	{r4, r5, r6, r7, pc}
  40643e:	6869      	ldr	r1, [r5, #4]
  406440:	9301      	str	r3, [sp, #4]
  406442:	3101      	adds	r1, #1
  406444:	4630      	mov	r0, r6
  406446:	f7ff ffa3 	bl	406390 <_Balloc>
  40644a:	692a      	ldr	r2, [r5, #16]
  40644c:	3202      	adds	r2, #2
  40644e:	f105 010c 	add.w	r1, r5, #12
  406452:	4607      	mov	r7, r0
  406454:	0092      	lsls	r2, r2, #2
  406456:	300c      	adds	r0, #12
  406458:	f7fb fbc0 	bl	401bdc <memcpy>
  40645c:	6cf2      	ldr	r2, [r6, #76]	; 0x4c
  40645e:	6869      	ldr	r1, [r5, #4]
  406460:	9b01      	ldr	r3, [sp, #4]
  406462:	f852 0021 	ldr.w	r0, [r2, r1, lsl #2]
  406466:	6028      	str	r0, [r5, #0]
  406468:	f842 5021 	str.w	r5, [r2, r1, lsl #2]
  40646c:	463d      	mov	r5, r7
  40646e:	e7de      	b.n	40642e <__multadd+0x3e>

00406470 <__hi0bits>:
  406470:	0c02      	lsrs	r2, r0, #16
  406472:	0412      	lsls	r2, r2, #16
  406474:	4603      	mov	r3, r0
  406476:	b9b2      	cbnz	r2, 4064a6 <__hi0bits+0x36>
  406478:	0403      	lsls	r3, r0, #16
  40647a:	2010      	movs	r0, #16
  40647c:	f013 4f7f 	tst.w	r3, #4278190080	; 0xff000000
  406480:	bf04      	itt	eq
  406482:	021b      	lsleq	r3, r3, #8
  406484:	3008      	addeq	r0, #8
  406486:	f013 4f70 	tst.w	r3, #4026531840	; 0xf0000000
  40648a:	bf04      	itt	eq
  40648c:	011b      	lsleq	r3, r3, #4
  40648e:	3004      	addeq	r0, #4
  406490:	f013 4f40 	tst.w	r3, #3221225472	; 0xc0000000
  406494:	bf04      	itt	eq
  406496:	009b      	lsleq	r3, r3, #2
  406498:	3002      	addeq	r0, #2
  40649a:	2b00      	cmp	r3, #0
  40649c:	db02      	blt.n	4064a4 <__hi0bits+0x34>
  40649e:	005b      	lsls	r3, r3, #1
  4064a0:	d403      	bmi.n	4064aa <__hi0bits+0x3a>
  4064a2:	2020      	movs	r0, #32
  4064a4:	4770      	bx	lr
  4064a6:	2000      	movs	r0, #0
  4064a8:	e7e8      	b.n	40647c <__hi0bits+0xc>
  4064aa:	3001      	adds	r0, #1
  4064ac:	4770      	bx	lr
  4064ae:	bf00      	nop

004064b0 <__lo0bits>:
  4064b0:	6803      	ldr	r3, [r0, #0]
  4064b2:	f013 0207 	ands.w	r2, r3, #7
  4064b6:	4601      	mov	r1, r0
  4064b8:	d007      	beq.n	4064ca <__lo0bits+0x1a>
  4064ba:	07da      	lsls	r2, r3, #31
  4064bc:	d421      	bmi.n	406502 <__lo0bits+0x52>
  4064be:	0798      	lsls	r0, r3, #30
  4064c0:	d421      	bmi.n	406506 <__lo0bits+0x56>
  4064c2:	089b      	lsrs	r3, r3, #2
  4064c4:	600b      	str	r3, [r1, #0]
  4064c6:	2002      	movs	r0, #2
  4064c8:	4770      	bx	lr
  4064ca:	b298      	uxth	r0, r3
  4064cc:	b198      	cbz	r0, 4064f6 <__lo0bits+0x46>
  4064ce:	4610      	mov	r0, r2
  4064d0:	f013 0fff 	tst.w	r3, #255	; 0xff
  4064d4:	bf04      	itt	eq
  4064d6:	0a1b      	lsreq	r3, r3, #8
  4064d8:	3008      	addeq	r0, #8
  4064da:	071a      	lsls	r2, r3, #28
  4064dc:	bf04      	itt	eq
  4064de:	091b      	lsreq	r3, r3, #4
  4064e0:	3004      	addeq	r0, #4
  4064e2:	079a      	lsls	r2, r3, #30
  4064e4:	bf04      	itt	eq
  4064e6:	089b      	lsreq	r3, r3, #2
  4064e8:	3002      	addeq	r0, #2
  4064ea:	07da      	lsls	r2, r3, #31
  4064ec:	d407      	bmi.n	4064fe <__lo0bits+0x4e>
  4064ee:	085b      	lsrs	r3, r3, #1
  4064f0:	d104      	bne.n	4064fc <__lo0bits+0x4c>
  4064f2:	2020      	movs	r0, #32
  4064f4:	4770      	bx	lr
  4064f6:	0c1b      	lsrs	r3, r3, #16
  4064f8:	2010      	movs	r0, #16
  4064fa:	e7e9      	b.n	4064d0 <__lo0bits+0x20>
  4064fc:	3001      	adds	r0, #1
  4064fe:	600b      	str	r3, [r1, #0]
  406500:	4770      	bx	lr
  406502:	2000      	movs	r0, #0
  406504:	4770      	bx	lr
  406506:	085b      	lsrs	r3, r3, #1
  406508:	600b      	str	r3, [r1, #0]
  40650a:	2001      	movs	r0, #1
  40650c:	4770      	bx	lr
  40650e:	bf00      	nop

00406510 <__i2b>:
  406510:	b510      	push	{r4, lr}
  406512:	460c      	mov	r4, r1
  406514:	2101      	movs	r1, #1
  406516:	f7ff ff3b 	bl	406390 <_Balloc>
  40651a:	2201      	movs	r2, #1
  40651c:	6144      	str	r4, [r0, #20]
  40651e:	6102      	str	r2, [r0, #16]
  406520:	bd10      	pop	{r4, pc}
  406522:	bf00      	nop

00406524 <__multiply>:
  406524:	e92d 4ff0 	stmdb	sp!, {r4, r5, r6, r7, r8, r9, sl, fp, lr}
  406528:	690c      	ldr	r4, [r1, #16]
  40652a:	6915      	ldr	r5, [r2, #16]
  40652c:	42ac      	cmp	r4, r5
  40652e:	b083      	sub	sp, #12
  406530:	468b      	mov	fp, r1
  406532:	4616      	mov	r6, r2
  406534:	da04      	bge.n	406540 <__multiply+0x1c>
  406536:	4622      	mov	r2, r4
  406538:	46b3      	mov	fp, r6
  40653a:	462c      	mov	r4, r5
  40653c:	460e      	mov	r6, r1
  40653e:	4615      	mov	r5, r2
  406540:	f8db 3008 	ldr.w	r3, [fp, #8]
  406544:	f8db 1004 	ldr.w	r1, [fp, #4]
  406548:	eb04 0805 	add.w	r8, r4, r5
  40654c:	4598      	cmp	r8, r3
  40654e:	bfc8      	it	gt
  406550:	3101      	addgt	r1, #1
  406552:	f7ff ff1d 	bl	406390 <_Balloc>
  406556:	f100 0914 	add.w	r9, r0, #20
  40655a:	eb09 0a88 	add.w	sl, r9, r8, lsl #2
  40655e:	45d1      	cmp	r9, sl
  406560:	9000      	str	r0, [sp, #0]
  406562:	d205      	bcs.n	406570 <__multiply+0x4c>
  406564:	464b      	mov	r3, r9
  406566:	2100      	movs	r1, #0
  406568:	f843 1b04 	str.w	r1, [r3], #4
  40656c:	459a      	cmp	sl, r3
  40656e:	d8fb      	bhi.n	406568 <__multiply+0x44>
  406570:	f106 0c14 	add.w	ip, r6, #20
  406574:	eb0c 0385 	add.w	r3, ip, r5, lsl #2
  406578:	f10b 0b14 	add.w	fp, fp, #20
  40657c:	459c      	cmp	ip, r3
  40657e:	eb0b 0e84 	add.w	lr, fp, r4, lsl #2
  406582:	d24c      	bcs.n	40661e <__multiply+0xfa>
  406584:	f8cd a004 	str.w	sl, [sp, #4]
  406588:	469a      	mov	sl, r3
  40658a:	f8dc 5000 	ldr.w	r5, [ip]
  40658e:	b2af      	uxth	r7, r5
  406590:	b1ef      	cbz	r7, 4065ce <__multiply+0xaa>
  406592:	2100      	movs	r1, #0
  406594:	464d      	mov	r5, r9
  406596:	465e      	mov	r6, fp
  406598:	460c      	mov	r4, r1
  40659a:	f856 2b04 	ldr.w	r2, [r6], #4
  40659e:	6828      	ldr	r0, [r5, #0]
  4065a0:	b293      	uxth	r3, r2
  4065a2:	b281      	uxth	r1, r0
  4065a4:	fb07 1303 	mla	r3, r7, r3, r1
  4065a8:	0c12      	lsrs	r2, r2, #16
  4065aa:	0c01      	lsrs	r1, r0, #16
  4065ac:	4423      	add	r3, r4
  4065ae:	fb07 1102 	mla	r1, r7, r2, r1
  4065b2:	eb01 4113 	add.w	r1, r1, r3, lsr #16
  4065b6:	b29b      	uxth	r3, r3
  4065b8:	ea43 4301 	orr.w	r3, r3, r1, lsl #16
  4065bc:	45b6      	cmp	lr, r6
  4065be:	f845 3b04 	str.w	r3, [r5], #4
  4065c2:	ea4f 4411 	mov.w	r4, r1, lsr #16
  4065c6:	d8e8      	bhi.n	40659a <__multiply+0x76>
  4065c8:	602c      	str	r4, [r5, #0]
  4065ca:	f8dc 5000 	ldr.w	r5, [ip]
  4065ce:	0c2d      	lsrs	r5, r5, #16
  4065d0:	d01d      	beq.n	40660e <__multiply+0xea>
  4065d2:	f8d9 3000 	ldr.w	r3, [r9]
  4065d6:	4648      	mov	r0, r9
  4065d8:	461c      	mov	r4, r3
  4065da:	4659      	mov	r1, fp
  4065dc:	2200      	movs	r2, #0
  4065de:	880e      	ldrh	r6, [r1, #0]
  4065e0:	0c24      	lsrs	r4, r4, #16
  4065e2:	fb05 4406 	mla	r4, r5, r6, r4
  4065e6:	4422      	add	r2, r4
  4065e8:	b29b      	uxth	r3, r3
  4065ea:	ea43 4302 	orr.w	r3, r3, r2, lsl #16
  4065ee:	f840 3b04 	str.w	r3, [r0], #4
  4065f2:	f851 3b04 	ldr.w	r3, [r1], #4
  4065f6:	6804      	ldr	r4, [r0, #0]
  4065f8:	0c1b      	lsrs	r3, r3, #16
  4065fa:	b2a6      	uxth	r6, r4
  4065fc:	fb05 6303 	mla	r3, r5, r3, r6
  406600:	eb03 4312 	add.w	r3, r3, r2, lsr #16
  406604:	458e      	cmp	lr, r1
  406606:	ea4f 4213 	mov.w	r2, r3, lsr #16
  40660a:	d8e8      	bhi.n	4065de <__multiply+0xba>
  40660c:	6003      	str	r3, [r0, #0]
  40660e:	f10c 0c04 	add.w	ip, ip, #4
  406612:	45e2      	cmp	sl, ip
  406614:	f109 0904 	add.w	r9, r9, #4
  406618:	d8b7      	bhi.n	40658a <__multiply+0x66>
  40661a:	f8dd a004 	ldr.w	sl, [sp, #4]
  40661e:	f1b8 0f00 	cmp.w	r8, #0
  406622:	dd0b      	ble.n	40663c <__multiply+0x118>
  406624:	f85a 3c04 	ldr.w	r3, [sl, #-4]
  406628:	f1aa 0a04 	sub.w	sl, sl, #4
  40662c:	b11b      	cbz	r3, 406636 <__multiply+0x112>
  40662e:	e005      	b.n	40663c <__multiply+0x118>
  406630:	f85a 3d04 	ldr.w	r3, [sl, #-4]!
  406634:	b913      	cbnz	r3, 40663c <__multiply+0x118>
  406636:	f1b8 0801 	subs.w	r8, r8, #1
  40663a:	d1f9      	bne.n	406630 <__multiply+0x10c>
  40663c:	9800      	ldr	r0, [sp, #0]
  40663e:	f8c0 8010 	str.w	r8, [r0, #16]
  406642:	b003      	add	sp, #12
  406644:	e8bd 8ff0 	ldmia.w	sp!, {r4, r5, r6, r7, r8, r9, sl, fp, pc}

00406648 <__pow5mult>:
  406648:	f012 0303 	ands.w	r3, r2, #3
  40664c:	e92d 41f0 	stmdb	sp!, {r4, r5, r6, r7, r8, lr}
  406650:	4614      	mov	r4, r2
  406652:	4607      	mov	r7, r0
  406654:	d12e      	bne.n	4066b4 <__pow5mult+0x6c>
  406656:	460d      	mov	r5, r1
  406658:	10a4      	asrs	r4, r4, #2
  40665a:	d01c      	beq.n	406696 <__pow5mult+0x4e>
  40665c:	6cbe      	ldr	r6, [r7, #72]	; 0x48
  40665e:	b396      	cbz	r6, 4066c6 <__pow5mult+0x7e>
  406660:	07e3      	lsls	r3, r4, #31
  406662:	f04f 0800 	mov.w	r8, #0
  406666:	d406      	bmi.n	406676 <__pow5mult+0x2e>
  406668:	1064      	asrs	r4, r4, #1
  40666a:	d014      	beq.n	406696 <__pow5mult+0x4e>
  40666c:	6830      	ldr	r0, [r6, #0]
  40666e:	b1a8      	cbz	r0, 40669c <__pow5mult+0x54>
  406670:	4606      	mov	r6, r0
  406672:	07e3      	lsls	r3, r4, #31
  406674:	d5f8      	bpl.n	406668 <__pow5mult+0x20>
  406676:	4632      	mov	r2, r6
  406678:	4629      	mov	r1, r5
  40667a:	4638      	mov	r0, r7
  40667c:	f7ff ff52 	bl	406524 <__multiply>
  406680:	b1b5      	cbz	r5, 4066b0 <__pow5mult+0x68>
  406682:	686a      	ldr	r2, [r5, #4]
  406684:	6cfb      	ldr	r3, [r7, #76]	; 0x4c
  406686:	1064      	asrs	r4, r4, #1
  406688:	f853 1022 	ldr.w	r1, [r3, r2, lsl #2]
  40668c:	6029      	str	r1, [r5, #0]
  40668e:	f843 5022 	str.w	r5, [r3, r2, lsl #2]
  406692:	4605      	mov	r5, r0
  406694:	d1ea      	bne.n	40666c <__pow5mult+0x24>
  406696:	4628      	mov	r0, r5
  406698:	e8bd 81f0 	ldmia.w	sp!, {r4, r5, r6, r7, r8, pc}
  40669c:	4632      	mov	r2, r6
  40669e:	4631      	mov	r1, r6
  4066a0:	4638      	mov	r0, r7
  4066a2:	f7ff ff3f 	bl	406524 <__multiply>
  4066a6:	6030      	str	r0, [r6, #0]
  4066a8:	f8c0 8000 	str.w	r8, [r0]
  4066ac:	4606      	mov	r6, r0
  4066ae:	e7e0      	b.n	406672 <__pow5mult+0x2a>
  4066b0:	4605      	mov	r5, r0
  4066b2:	e7d9      	b.n	406668 <__pow5mult+0x20>
  4066b4:	1e5a      	subs	r2, r3, #1
  4066b6:	4d0b      	ldr	r5, [pc, #44]	; (4066e4 <__pow5mult+0x9c>)
  4066b8:	2300      	movs	r3, #0
  4066ba:	f855 2022 	ldr.w	r2, [r5, r2, lsl #2]
  4066be:	f7ff fe97 	bl	4063f0 <__multadd>
  4066c2:	4605      	mov	r5, r0
  4066c4:	e7c8      	b.n	406658 <__pow5mult+0x10>
  4066c6:	2101      	movs	r1, #1
  4066c8:	4638      	mov	r0, r7
  4066ca:	f7ff fe61 	bl	406390 <_Balloc>
  4066ce:	f240 2171 	movw	r1, #625	; 0x271
  4066d2:	2201      	movs	r2, #1
  4066d4:	2300      	movs	r3, #0
  4066d6:	6141      	str	r1, [r0, #20]
  4066d8:	6102      	str	r2, [r0, #16]
  4066da:	4606      	mov	r6, r0
  4066dc:	64b8      	str	r0, [r7, #72]	; 0x48
  4066de:	6003      	str	r3, [r0, #0]
  4066e0:	e7be      	b.n	406660 <__pow5mult+0x18>
  4066e2:	bf00      	nop
  4066e4:	00410c08 	.word	0x00410c08

004066e8 <__lshift>:
  4066e8:	e92d 43f8 	stmdb	sp!, {r3, r4, r5, r6, r7, r8, r9, lr}
  4066ec:	4691      	mov	r9, r2
  4066ee:	690a      	ldr	r2, [r1, #16]
  4066f0:	688b      	ldr	r3, [r1, #8]
  4066f2:	ea4f 1469 	mov.w	r4, r9, asr #5
  4066f6:	eb04 0802 	add.w	r8, r4, r2
  4066fa:	f108 0501 	add.w	r5, r8, #1
  4066fe:	429d      	cmp	r5, r3
  406700:	460e      	mov	r6, r1
  406702:	4607      	mov	r7, r0
  406704:	6849      	ldr	r1, [r1, #4]
  406706:	dd04      	ble.n	406712 <__lshift+0x2a>
  406708:	005b      	lsls	r3, r3, #1
  40670a:	429d      	cmp	r5, r3
  40670c:	f101 0101 	add.w	r1, r1, #1
  406710:	dcfa      	bgt.n	406708 <__lshift+0x20>
  406712:	4638      	mov	r0, r7
  406714:	f7ff fe3c 	bl	406390 <_Balloc>
  406718:	2c00      	cmp	r4, #0
  40671a:	f100 0314 	add.w	r3, r0, #20
  40671e:	dd06      	ble.n	40672e <__lshift+0x46>
  406720:	eb03 0284 	add.w	r2, r3, r4, lsl #2
  406724:	2100      	movs	r1, #0
  406726:	f843 1b04 	str.w	r1, [r3], #4
  40672a:	429a      	cmp	r2, r3
  40672c:	d1fb      	bne.n	406726 <__lshift+0x3e>
  40672e:	6934      	ldr	r4, [r6, #16]
  406730:	f106 0114 	add.w	r1, r6, #20
  406734:	f019 091f 	ands.w	r9, r9, #31
  406738:	eb01 0e84 	add.w	lr, r1, r4, lsl #2
  40673c:	d01d      	beq.n	40677a <__lshift+0x92>
  40673e:	f1c9 0c20 	rsb	ip, r9, #32
  406742:	2200      	movs	r2, #0
  406744:	680c      	ldr	r4, [r1, #0]
  406746:	fa04 f409 	lsl.w	r4, r4, r9
  40674a:	4314      	orrs	r4, r2
  40674c:	f843 4b04 	str.w	r4, [r3], #4
  406750:	f851 2b04 	ldr.w	r2, [r1], #4
  406754:	458e      	cmp	lr, r1
  406756:	fa22 f20c 	lsr.w	r2, r2, ip
  40675a:	d8f3      	bhi.n	406744 <__lshift+0x5c>
  40675c:	601a      	str	r2, [r3, #0]
  40675e:	b10a      	cbz	r2, 406764 <__lshift+0x7c>
  406760:	f108 0502 	add.w	r5, r8, #2
  406764:	6cfb      	ldr	r3, [r7, #76]	; 0x4c
  406766:	6872      	ldr	r2, [r6, #4]
  406768:	3d01      	subs	r5, #1
  40676a:	f853 1022 	ldr.w	r1, [r3, r2, lsl #2]
  40676e:	6105      	str	r5, [r0, #16]
  406770:	6031      	str	r1, [r6, #0]
  406772:	f843 6022 	str.w	r6, [r3, r2, lsl #2]
  406776:	e8bd 83f8 	ldmia.w	sp!, {r3, r4, r5, r6, r7, r8, r9, pc}
  40677a:	3b04      	subs	r3, #4
  40677c:	f851 2b04 	ldr.w	r2, [r1], #4
  406780:	f843 2f04 	str.w	r2, [r3, #4]!
  406784:	458e      	cmp	lr, r1
  406786:	d8f9      	bhi.n	40677c <__lshift+0x94>
  406788:	e7ec      	b.n	406764 <__lshift+0x7c>
  40678a:	bf00      	nop

0040678c <__mcmp>:
  40678c:	b430      	push	{r4, r5}
  40678e:	690b      	ldr	r3, [r1, #16]
  406790:	4605      	mov	r5, r0
  406792:	6900      	ldr	r0, [r0, #16]
  406794:	1ac0      	subs	r0, r0, r3
  406796:	d10f      	bne.n	4067b8 <__mcmp+0x2c>
  406798:	009b      	lsls	r3, r3, #2
  40679a:	3514      	adds	r5, #20
  40679c:	3114      	adds	r1, #20
  40679e:	4419      	add	r1, r3
  4067a0:	442b      	add	r3, r5
  4067a2:	e001      	b.n	4067a8 <__mcmp+0x1c>
  4067a4:	429d      	cmp	r5, r3
  4067a6:	d207      	bcs.n	4067b8 <__mcmp+0x2c>
  4067a8:	f853 4d04 	ldr.w	r4, [r3, #-4]!
  4067ac:	f851 2d04 	ldr.w	r2, [r1, #-4]!
  4067b0:	4294      	cmp	r4, r2
  4067b2:	d0f7      	beq.n	4067a4 <__mcmp+0x18>
  4067b4:	d302      	bcc.n	4067bc <__mcmp+0x30>
  4067b6:	2001      	movs	r0, #1
  4067b8:	bc30      	pop	{r4, r5}
  4067ba:	4770      	bx	lr
  4067bc:	f04f 30ff 	mov.w	r0, #4294967295
  4067c0:	e7fa      	b.n	4067b8 <__mcmp+0x2c>
  4067c2:	bf00      	nop

004067c4 <__mdiff>:
  4067c4:	e92d 41f0 	stmdb	sp!, {r4, r5, r6, r7, r8, lr}
  4067c8:	690f      	ldr	r7, [r1, #16]
  4067ca:	460e      	mov	r6, r1
  4067cc:	6911      	ldr	r1, [r2, #16]
  4067ce:	1a7f      	subs	r7, r7, r1
  4067d0:	2f00      	cmp	r7, #0
  4067d2:	4690      	mov	r8, r2
  4067d4:	d117      	bne.n	406806 <__mdiff+0x42>
  4067d6:	0089      	lsls	r1, r1, #2
  4067d8:	f106 0514 	add.w	r5, r6, #20
  4067dc:	f102 0e14 	add.w	lr, r2, #20
  4067e0:	186b      	adds	r3, r5, r1
  4067e2:	4471      	add	r1, lr
  4067e4:	e001      	b.n	4067ea <__mdiff+0x26>
  4067e6:	429d      	cmp	r5, r3
  4067e8:	d25c      	bcs.n	4068a4 <__mdiff+0xe0>
  4067ea:	f853 2d04 	ldr.w	r2, [r3, #-4]!
  4067ee:	f851 4d04 	ldr.w	r4, [r1, #-4]!
  4067f2:	42a2      	cmp	r2, r4
  4067f4:	d0f7      	beq.n	4067e6 <__mdiff+0x22>
  4067f6:	d25e      	bcs.n	4068b6 <__mdiff+0xf2>
  4067f8:	4633      	mov	r3, r6
  4067fa:	462c      	mov	r4, r5
  4067fc:	4646      	mov	r6, r8
  4067fe:	4675      	mov	r5, lr
  406800:	4698      	mov	r8, r3
  406802:	2701      	movs	r7, #1
  406804:	e005      	b.n	406812 <__mdiff+0x4e>
  406806:	db58      	blt.n	4068ba <__mdiff+0xf6>
  406808:	f106 0514 	add.w	r5, r6, #20
  40680c:	f108 0414 	add.w	r4, r8, #20
  406810:	2700      	movs	r7, #0
  406812:	6871      	ldr	r1, [r6, #4]
  406814:	f7ff fdbc 	bl	406390 <_Balloc>
  406818:	f8d8 3010 	ldr.w	r3, [r8, #16]
  40681c:	6936      	ldr	r6, [r6, #16]
  40681e:	60c7      	str	r7, [r0, #12]
  406820:	eb04 0c83 	add.w	ip, r4, r3, lsl #2
  406824:	46a6      	mov	lr, r4
  406826:	eb05 0786 	add.w	r7, r5, r6, lsl #2
  40682a:	f100 0414 	add.w	r4, r0, #20
  40682e:	2300      	movs	r3, #0
  406830:	f85e 1b04 	ldr.w	r1, [lr], #4
  406834:	f855 8b04 	ldr.w	r8, [r5], #4
  406838:	b28a      	uxth	r2, r1
  40683a:	fa13 f388 	uxtah	r3, r3, r8
  40683e:	0c09      	lsrs	r1, r1, #16
  406840:	1a9a      	subs	r2, r3, r2
  406842:	ebc1 4318 	rsb	r3, r1, r8, lsr #16
  406846:	eb03 4322 	add.w	r3, r3, r2, asr #16
  40684a:	b292      	uxth	r2, r2
  40684c:	ea42 4203 	orr.w	r2, r2, r3, lsl #16
  406850:	45f4      	cmp	ip, lr
  406852:	f844 2b04 	str.w	r2, [r4], #4
  406856:	ea4f 4323 	mov.w	r3, r3, asr #16
  40685a:	d8e9      	bhi.n	406830 <__mdiff+0x6c>
  40685c:	42af      	cmp	r7, r5
  40685e:	d917      	bls.n	406890 <__mdiff+0xcc>
  406860:	46a4      	mov	ip, r4
  406862:	46ae      	mov	lr, r5
  406864:	f85e 2b04 	ldr.w	r2, [lr], #4
  406868:	fa13 f382 	uxtah	r3, r3, r2
  40686c:	1419      	asrs	r1, r3, #16
  40686e:	eb01 4112 	add.w	r1, r1, r2, lsr #16
  406872:	b29b      	uxth	r3, r3
  406874:	ea43 4201 	orr.w	r2, r3, r1, lsl #16
  406878:	4577      	cmp	r7, lr
  40687a:	f84c 2b04 	str.w	r2, [ip], #4
  40687e:	ea4f 4321 	mov.w	r3, r1, asr #16
  406882:	d8ef      	bhi.n	406864 <__mdiff+0xa0>
  406884:	43ed      	mvns	r5, r5
  406886:	442f      	add	r7, r5
  406888:	f027 0703 	bic.w	r7, r7, #3
  40688c:	3704      	adds	r7, #4
  40688e:	443c      	add	r4, r7
  406890:	3c04      	subs	r4, #4
  406892:	b922      	cbnz	r2, 40689e <__mdiff+0xda>
  406894:	f854 3d04 	ldr.w	r3, [r4, #-4]!
  406898:	3e01      	subs	r6, #1
  40689a:	2b00      	cmp	r3, #0
  40689c:	d0fa      	beq.n	406894 <__mdiff+0xd0>
  40689e:	6106      	str	r6, [r0, #16]
  4068a0:	e8bd 81f0 	ldmia.w	sp!, {r4, r5, r6, r7, r8, pc}
  4068a4:	2100      	movs	r1, #0
  4068a6:	f7ff fd73 	bl	406390 <_Balloc>
  4068aa:	2201      	movs	r2, #1
  4068ac:	2300      	movs	r3, #0
  4068ae:	6102      	str	r2, [r0, #16]
  4068b0:	6143      	str	r3, [r0, #20]
  4068b2:	e8bd 81f0 	ldmia.w	sp!, {r4, r5, r6, r7, r8, pc}
  4068b6:	4674      	mov	r4, lr
  4068b8:	e7ab      	b.n	406812 <__mdiff+0x4e>
  4068ba:	4633      	mov	r3, r6
  4068bc:	f106 0414 	add.w	r4, r6, #20
  4068c0:	f102 0514 	add.w	r5, r2, #20
  4068c4:	4616      	mov	r6, r2
  4068c6:	2701      	movs	r7, #1
  4068c8:	4698      	mov	r8, r3
  4068ca:	e7a2      	b.n	406812 <__mdiff+0x4e>

004068cc <__d2b>:
  4068cc:	e92d 41f0 	stmdb	sp!, {r4, r5, r6, r7, r8, lr}
  4068d0:	b082      	sub	sp, #8
  4068d2:	2101      	movs	r1, #1
  4068d4:	461c      	mov	r4, r3
  4068d6:	f3c3 570a 	ubfx	r7, r3, #20, #11
  4068da:	4615      	mov	r5, r2
  4068dc:	9e08      	ldr	r6, [sp, #32]
  4068de:	f7ff fd57 	bl	406390 <_Balloc>
  4068e2:	f3c4 0413 	ubfx	r4, r4, #0, #20
  4068e6:	4680      	mov	r8, r0
  4068e8:	b10f      	cbz	r7, 4068ee <__d2b+0x22>
  4068ea:	f444 1480 	orr.w	r4, r4, #1048576	; 0x100000
  4068ee:	9401      	str	r4, [sp, #4]
  4068f0:	b31d      	cbz	r5, 40693a <__d2b+0x6e>
  4068f2:	a802      	add	r0, sp, #8
  4068f4:	f840 5d08 	str.w	r5, [r0, #-8]!
  4068f8:	f7ff fdda 	bl	4064b0 <__lo0bits>
  4068fc:	2800      	cmp	r0, #0
  4068fe:	d134      	bne.n	40696a <__d2b+0x9e>
  406900:	e89d 000c 	ldmia.w	sp, {r2, r3}
  406904:	f8c8 2014 	str.w	r2, [r8, #20]
  406908:	2b00      	cmp	r3, #0
  40690a:	bf0c      	ite	eq
  40690c:	2101      	moveq	r1, #1
  40690e:	2102      	movne	r1, #2
  406910:	f8c8 3018 	str.w	r3, [r8, #24]
  406914:	f8c8 1010 	str.w	r1, [r8, #16]
  406918:	b9df      	cbnz	r7, 406952 <__d2b+0x86>
  40691a:	eb08 0381 	add.w	r3, r8, r1, lsl #2
  40691e:	f2a0 4032 	subw	r0, r0, #1074	; 0x432
  406922:	6030      	str	r0, [r6, #0]
  406924:	6918      	ldr	r0, [r3, #16]
  406926:	f7ff fda3 	bl	406470 <__hi0bits>
  40692a:	9b09      	ldr	r3, [sp, #36]	; 0x24
  40692c:	ebc0 1041 	rsb	r0, r0, r1, lsl #5
  406930:	6018      	str	r0, [r3, #0]
  406932:	4640      	mov	r0, r8
  406934:	b002      	add	sp, #8
  406936:	e8bd 81f0 	ldmia.w	sp!, {r4, r5, r6, r7, r8, pc}
  40693a:	a801      	add	r0, sp, #4
  40693c:	f7ff fdb8 	bl	4064b0 <__lo0bits>
  406940:	9b01      	ldr	r3, [sp, #4]
  406942:	f8c8 3014 	str.w	r3, [r8, #20]
  406946:	2101      	movs	r1, #1
  406948:	3020      	adds	r0, #32
  40694a:	f8c8 1010 	str.w	r1, [r8, #16]
  40694e:	2f00      	cmp	r7, #0
  406950:	d0e3      	beq.n	40691a <__d2b+0x4e>
  406952:	9b09      	ldr	r3, [sp, #36]	; 0x24
  406954:	f2a7 4733 	subw	r7, r7, #1075	; 0x433
  406958:	4407      	add	r7, r0
  40695a:	f1c0 0035 	rsb	r0, r0, #53	; 0x35
  40695e:	6037      	str	r7, [r6, #0]
  406960:	6018      	str	r0, [r3, #0]
  406962:	4640      	mov	r0, r8
  406964:	b002      	add	sp, #8
  406966:	e8bd 81f0 	ldmia.w	sp!, {r4, r5, r6, r7, r8, pc}
  40696a:	e89d 000a 	ldmia.w	sp, {r1, r3}
  40696e:	f1c0 0220 	rsb	r2, r0, #32
  406972:	fa03 f202 	lsl.w	r2, r3, r2
  406976:	430a      	orrs	r2, r1
  406978:	40c3      	lsrs	r3, r0
  40697a:	9301      	str	r3, [sp, #4]
  40697c:	f8c8 2014 	str.w	r2, [r8, #20]
  406980:	e7c2      	b.n	406908 <__d2b+0x3c>
  406982:	bf00      	nop

00406984 <_realloc_r>:
  406984:	2900      	cmp	r1, #0
  406986:	f000 8095 	beq.w	406ab4 <_realloc_r+0x130>
  40698a:	e92d 4ff0 	stmdb	sp!, {r4, r5, r6, r7, r8, r9, sl, fp, lr}
  40698e:	460d      	mov	r5, r1
  406990:	4616      	mov	r6, r2
  406992:	b083      	sub	sp, #12
  406994:	4680      	mov	r8, r0
  406996:	f106 070b 	add.w	r7, r6, #11
  40699a:	f7ff fced 	bl	406378 <__malloc_lock>
  40699e:	f855 ec04 	ldr.w	lr, [r5, #-4]
  4069a2:	2f16      	cmp	r7, #22
  4069a4:	f02e 0403 	bic.w	r4, lr, #3
  4069a8:	f1a5 0908 	sub.w	r9, r5, #8
  4069ac:	d83c      	bhi.n	406a28 <_realloc_r+0xa4>
  4069ae:	2210      	movs	r2, #16
  4069b0:	4617      	mov	r7, r2
  4069b2:	42be      	cmp	r6, r7
  4069b4:	d83d      	bhi.n	406a32 <_realloc_r+0xae>
  4069b6:	4294      	cmp	r4, r2
  4069b8:	da43      	bge.n	406a42 <_realloc_r+0xbe>
  4069ba:	4bc4      	ldr	r3, [pc, #784]	; (406ccc <_realloc_r+0x348>)
  4069bc:	6899      	ldr	r1, [r3, #8]
  4069be:	eb09 0004 	add.w	r0, r9, r4
  4069c2:	4288      	cmp	r0, r1
  4069c4:	f000 80b4 	beq.w	406b30 <_realloc_r+0x1ac>
  4069c8:	6843      	ldr	r3, [r0, #4]
  4069ca:	f023 0101 	bic.w	r1, r3, #1
  4069ce:	4401      	add	r1, r0
  4069d0:	6849      	ldr	r1, [r1, #4]
  4069d2:	07c9      	lsls	r1, r1, #31
  4069d4:	d54c      	bpl.n	406a70 <_realloc_r+0xec>
  4069d6:	f01e 0f01 	tst.w	lr, #1
  4069da:	f000 809b 	beq.w	406b14 <_realloc_r+0x190>
  4069de:	4631      	mov	r1, r6
  4069e0:	4640      	mov	r0, r8
  4069e2:	f7ff f94d 	bl	405c80 <_malloc_r>
  4069e6:	4606      	mov	r6, r0
  4069e8:	2800      	cmp	r0, #0
  4069ea:	d03a      	beq.n	406a62 <_realloc_r+0xde>
  4069ec:	f855 3c04 	ldr.w	r3, [r5, #-4]
  4069f0:	f023 0301 	bic.w	r3, r3, #1
  4069f4:	444b      	add	r3, r9
  4069f6:	f1a0 0208 	sub.w	r2, r0, #8
  4069fa:	429a      	cmp	r2, r3
  4069fc:	f000 8121 	beq.w	406c42 <_realloc_r+0x2be>
  406a00:	1f22      	subs	r2, r4, #4
  406a02:	2a24      	cmp	r2, #36	; 0x24
  406a04:	f200 8107 	bhi.w	406c16 <_realloc_r+0x292>
  406a08:	2a13      	cmp	r2, #19
  406a0a:	f200 80db 	bhi.w	406bc4 <_realloc_r+0x240>
  406a0e:	4603      	mov	r3, r0
  406a10:	462a      	mov	r2, r5
  406a12:	6811      	ldr	r1, [r2, #0]
  406a14:	6019      	str	r1, [r3, #0]
  406a16:	6851      	ldr	r1, [r2, #4]
  406a18:	6059      	str	r1, [r3, #4]
  406a1a:	6892      	ldr	r2, [r2, #8]
  406a1c:	609a      	str	r2, [r3, #8]
  406a1e:	4629      	mov	r1, r5
  406a20:	4640      	mov	r0, r8
  406a22:	f7fe fe01 	bl	405628 <_free_r>
  406a26:	e01c      	b.n	406a62 <_realloc_r+0xde>
  406a28:	f027 0707 	bic.w	r7, r7, #7
  406a2c:	2f00      	cmp	r7, #0
  406a2e:	463a      	mov	r2, r7
  406a30:	dabf      	bge.n	4069b2 <_realloc_r+0x2e>
  406a32:	2600      	movs	r6, #0
  406a34:	230c      	movs	r3, #12
  406a36:	4630      	mov	r0, r6
  406a38:	f8c8 3000 	str.w	r3, [r8]
  406a3c:	b003      	add	sp, #12
  406a3e:	e8bd 8ff0 	ldmia.w	sp!, {r4, r5, r6, r7, r8, r9, sl, fp, pc}
  406a42:	462e      	mov	r6, r5
  406a44:	1be3      	subs	r3, r4, r7
  406a46:	2b0f      	cmp	r3, #15
  406a48:	d81e      	bhi.n	406a88 <_realloc_r+0x104>
  406a4a:	f8d9 3004 	ldr.w	r3, [r9, #4]
  406a4e:	f003 0301 	and.w	r3, r3, #1
  406a52:	4323      	orrs	r3, r4
  406a54:	444c      	add	r4, r9
  406a56:	f8c9 3004 	str.w	r3, [r9, #4]
  406a5a:	6863      	ldr	r3, [r4, #4]
  406a5c:	f043 0301 	orr.w	r3, r3, #1
  406a60:	6063      	str	r3, [r4, #4]
  406a62:	4640      	mov	r0, r8
  406a64:	f7ff fc8e 	bl	406384 <__malloc_unlock>
  406a68:	4630      	mov	r0, r6
  406a6a:	b003      	add	sp, #12
  406a6c:	e8bd 8ff0 	ldmia.w	sp!, {r4, r5, r6, r7, r8, r9, sl, fp, pc}
  406a70:	f023 0303 	bic.w	r3, r3, #3
  406a74:	18e1      	adds	r1, r4, r3
  406a76:	4291      	cmp	r1, r2
  406a78:	db1f      	blt.n	406aba <_realloc_r+0x136>
  406a7a:	68c3      	ldr	r3, [r0, #12]
  406a7c:	6882      	ldr	r2, [r0, #8]
  406a7e:	462e      	mov	r6, r5
  406a80:	60d3      	str	r3, [r2, #12]
  406a82:	460c      	mov	r4, r1
  406a84:	609a      	str	r2, [r3, #8]
  406a86:	e7dd      	b.n	406a44 <_realloc_r+0xc0>
  406a88:	f8d9 2004 	ldr.w	r2, [r9, #4]
  406a8c:	eb09 0107 	add.w	r1, r9, r7
  406a90:	f002 0201 	and.w	r2, r2, #1
  406a94:	444c      	add	r4, r9
  406a96:	f043 0301 	orr.w	r3, r3, #1
  406a9a:	4317      	orrs	r7, r2
  406a9c:	f8c9 7004 	str.w	r7, [r9, #4]
  406aa0:	604b      	str	r3, [r1, #4]
  406aa2:	6863      	ldr	r3, [r4, #4]
  406aa4:	f043 0301 	orr.w	r3, r3, #1
  406aa8:	3108      	adds	r1, #8
  406aaa:	6063      	str	r3, [r4, #4]
  406aac:	4640      	mov	r0, r8
  406aae:	f7fe fdbb 	bl	405628 <_free_r>
  406ab2:	e7d6      	b.n	406a62 <_realloc_r+0xde>
  406ab4:	4611      	mov	r1, r2
  406ab6:	f7ff b8e3 	b.w	405c80 <_malloc_r>
  406aba:	f01e 0f01 	tst.w	lr, #1
  406abe:	d18e      	bne.n	4069de <_realloc_r+0x5a>
  406ac0:	f855 1c08 	ldr.w	r1, [r5, #-8]
  406ac4:	eba9 0a01 	sub.w	sl, r9, r1
  406ac8:	f8da 1004 	ldr.w	r1, [sl, #4]
  406acc:	f021 0103 	bic.w	r1, r1, #3
  406ad0:	440b      	add	r3, r1
  406ad2:	4423      	add	r3, r4
  406ad4:	4293      	cmp	r3, r2
  406ad6:	db25      	blt.n	406b24 <_realloc_r+0x1a0>
  406ad8:	68c2      	ldr	r2, [r0, #12]
  406ada:	6881      	ldr	r1, [r0, #8]
  406adc:	4656      	mov	r6, sl
  406ade:	60ca      	str	r2, [r1, #12]
  406ae0:	6091      	str	r1, [r2, #8]
  406ae2:	f8da 100c 	ldr.w	r1, [sl, #12]
  406ae6:	f856 0f08 	ldr.w	r0, [r6, #8]!
  406aea:	1f22      	subs	r2, r4, #4
  406aec:	2a24      	cmp	r2, #36	; 0x24
  406aee:	60c1      	str	r1, [r0, #12]
  406af0:	6088      	str	r0, [r1, #8]
  406af2:	f200 8094 	bhi.w	406c1e <_realloc_r+0x29a>
  406af6:	2a13      	cmp	r2, #19
  406af8:	d96f      	bls.n	406bda <_realloc_r+0x256>
  406afa:	6829      	ldr	r1, [r5, #0]
  406afc:	f8ca 1008 	str.w	r1, [sl, #8]
  406b00:	6869      	ldr	r1, [r5, #4]
  406b02:	f8ca 100c 	str.w	r1, [sl, #12]
  406b06:	2a1b      	cmp	r2, #27
  406b08:	f200 80a2 	bhi.w	406c50 <_realloc_r+0x2cc>
  406b0c:	3508      	adds	r5, #8
  406b0e:	f10a 0210 	add.w	r2, sl, #16
  406b12:	e063      	b.n	406bdc <_realloc_r+0x258>
  406b14:	f855 3c08 	ldr.w	r3, [r5, #-8]
  406b18:	eba9 0a03 	sub.w	sl, r9, r3
  406b1c:	f8da 1004 	ldr.w	r1, [sl, #4]
  406b20:	f021 0103 	bic.w	r1, r1, #3
  406b24:	1863      	adds	r3, r4, r1
  406b26:	4293      	cmp	r3, r2
  406b28:	f6ff af59 	blt.w	4069de <_realloc_r+0x5a>
  406b2c:	4656      	mov	r6, sl
  406b2e:	e7d8      	b.n	406ae2 <_realloc_r+0x15e>
  406b30:	6841      	ldr	r1, [r0, #4]
  406b32:	f021 0b03 	bic.w	fp, r1, #3
  406b36:	44a3      	add	fp, r4
  406b38:	f107 0010 	add.w	r0, r7, #16
  406b3c:	4583      	cmp	fp, r0
  406b3e:	da56      	bge.n	406bee <_realloc_r+0x26a>
  406b40:	f01e 0f01 	tst.w	lr, #1
  406b44:	f47f af4b 	bne.w	4069de <_realloc_r+0x5a>
  406b48:	f855 1c08 	ldr.w	r1, [r5, #-8]
  406b4c:	eba9 0a01 	sub.w	sl, r9, r1
  406b50:	f8da 1004 	ldr.w	r1, [sl, #4]
  406b54:	f021 0103 	bic.w	r1, r1, #3
  406b58:	448b      	add	fp, r1
  406b5a:	4558      	cmp	r0, fp
  406b5c:	dce2      	bgt.n	406b24 <_realloc_r+0x1a0>
  406b5e:	4656      	mov	r6, sl
  406b60:	f8da 100c 	ldr.w	r1, [sl, #12]
  406b64:	f856 0f08 	ldr.w	r0, [r6, #8]!
  406b68:	1f22      	subs	r2, r4, #4
  406b6a:	2a24      	cmp	r2, #36	; 0x24
  406b6c:	60c1      	str	r1, [r0, #12]
  406b6e:	6088      	str	r0, [r1, #8]
  406b70:	f200 808f 	bhi.w	406c92 <_realloc_r+0x30e>
  406b74:	2a13      	cmp	r2, #19
  406b76:	f240 808a 	bls.w	406c8e <_realloc_r+0x30a>
  406b7a:	6829      	ldr	r1, [r5, #0]
  406b7c:	f8ca 1008 	str.w	r1, [sl, #8]
  406b80:	6869      	ldr	r1, [r5, #4]
  406b82:	f8ca 100c 	str.w	r1, [sl, #12]
  406b86:	2a1b      	cmp	r2, #27
  406b88:	f200 808a 	bhi.w	406ca0 <_realloc_r+0x31c>
  406b8c:	3508      	adds	r5, #8
  406b8e:	f10a 0210 	add.w	r2, sl, #16
  406b92:	6829      	ldr	r1, [r5, #0]
  406b94:	6011      	str	r1, [r2, #0]
  406b96:	6869      	ldr	r1, [r5, #4]
  406b98:	6051      	str	r1, [r2, #4]
  406b9a:	68a9      	ldr	r1, [r5, #8]
  406b9c:	6091      	str	r1, [r2, #8]
  406b9e:	eb0a 0107 	add.w	r1, sl, r7
  406ba2:	ebab 0207 	sub.w	r2, fp, r7
  406ba6:	f042 0201 	orr.w	r2, r2, #1
  406baa:	6099      	str	r1, [r3, #8]
  406bac:	604a      	str	r2, [r1, #4]
  406bae:	f8da 3004 	ldr.w	r3, [sl, #4]
  406bb2:	f003 0301 	and.w	r3, r3, #1
  406bb6:	431f      	orrs	r7, r3
  406bb8:	4640      	mov	r0, r8
  406bba:	f8ca 7004 	str.w	r7, [sl, #4]
  406bbe:	f7ff fbe1 	bl	406384 <__malloc_unlock>
  406bc2:	e751      	b.n	406a68 <_realloc_r+0xe4>
  406bc4:	682b      	ldr	r3, [r5, #0]
  406bc6:	6003      	str	r3, [r0, #0]
  406bc8:	686b      	ldr	r3, [r5, #4]
  406bca:	6043      	str	r3, [r0, #4]
  406bcc:	2a1b      	cmp	r2, #27
  406bce:	d82d      	bhi.n	406c2c <_realloc_r+0x2a8>
  406bd0:	f100 0308 	add.w	r3, r0, #8
  406bd4:	f105 0208 	add.w	r2, r5, #8
  406bd8:	e71b      	b.n	406a12 <_realloc_r+0x8e>
  406bda:	4632      	mov	r2, r6
  406bdc:	6829      	ldr	r1, [r5, #0]
  406bde:	6011      	str	r1, [r2, #0]
  406be0:	6869      	ldr	r1, [r5, #4]
  406be2:	6051      	str	r1, [r2, #4]
  406be4:	68a9      	ldr	r1, [r5, #8]
  406be6:	6091      	str	r1, [r2, #8]
  406be8:	461c      	mov	r4, r3
  406bea:	46d1      	mov	r9, sl
  406bec:	e72a      	b.n	406a44 <_realloc_r+0xc0>
  406bee:	eb09 0107 	add.w	r1, r9, r7
  406bf2:	ebab 0b07 	sub.w	fp, fp, r7
  406bf6:	f04b 0201 	orr.w	r2, fp, #1
  406bfa:	6099      	str	r1, [r3, #8]
  406bfc:	604a      	str	r2, [r1, #4]
  406bfe:	f855 3c04 	ldr.w	r3, [r5, #-4]
  406c02:	f003 0301 	and.w	r3, r3, #1
  406c06:	431f      	orrs	r7, r3
  406c08:	4640      	mov	r0, r8
  406c0a:	f845 7c04 	str.w	r7, [r5, #-4]
  406c0e:	f7ff fbb9 	bl	406384 <__malloc_unlock>
  406c12:	462e      	mov	r6, r5
  406c14:	e728      	b.n	406a68 <_realloc_r+0xe4>
  406c16:	4629      	mov	r1, r5
  406c18:	f7ff fb4a 	bl	4062b0 <memmove>
  406c1c:	e6ff      	b.n	406a1e <_realloc_r+0x9a>
  406c1e:	4629      	mov	r1, r5
  406c20:	4630      	mov	r0, r6
  406c22:	461c      	mov	r4, r3
  406c24:	46d1      	mov	r9, sl
  406c26:	f7ff fb43 	bl	4062b0 <memmove>
  406c2a:	e70b      	b.n	406a44 <_realloc_r+0xc0>
  406c2c:	68ab      	ldr	r3, [r5, #8]
  406c2e:	6083      	str	r3, [r0, #8]
  406c30:	68eb      	ldr	r3, [r5, #12]
  406c32:	60c3      	str	r3, [r0, #12]
  406c34:	2a24      	cmp	r2, #36	; 0x24
  406c36:	d017      	beq.n	406c68 <_realloc_r+0x2e4>
  406c38:	f100 0310 	add.w	r3, r0, #16
  406c3c:	f105 0210 	add.w	r2, r5, #16
  406c40:	e6e7      	b.n	406a12 <_realloc_r+0x8e>
  406c42:	f850 3c04 	ldr.w	r3, [r0, #-4]
  406c46:	f023 0303 	bic.w	r3, r3, #3
  406c4a:	441c      	add	r4, r3
  406c4c:	462e      	mov	r6, r5
  406c4e:	e6f9      	b.n	406a44 <_realloc_r+0xc0>
  406c50:	68a9      	ldr	r1, [r5, #8]
  406c52:	f8ca 1010 	str.w	r1, [sl, #16]
  406c56:	68e9      	ldr	r1, [r5, #12]
  406c58:	f8ca 1014 	str.w	r1, [sl, #20]
  406c5c:	2a24      	cmp	r2, #36	; 0x24
  406c5e:	d00c      	beq.n	406c7a <_realloc_r+0x2f6>
  406c60:	3510      	adds	r5, #16
  406c62:	f10a 0218 	add.w	r2, sl, #24
  406c66:	e7b9      	b.n	406bdc <_realloc_r+0x258>
  406c68:	692b      	ldr	r3, [r5, #16]
  406c6a:	6103      	str	r3, [r0, #16]
  406c6c:	696b      	ldr	r3, [r5, #20]
  406c6e:	6143      	str	r3, [r0, #20]
  406c70:	f105 0218 	add.w	r2, r5, #24
  406c74:	f100 0318 	add.w	r3, r0, #24
  406c78:	e6cb      	b.n	406a12 <_realloc_r+0x8e>
  406c7a:	692a      	ldr	r2, [r5, #16]
  406c7c:	f8ca 2018 	str.w	r2, [sl, #24]
  406c80:	696a      	ldr	r2, [r5, #20]
  406c82:	f8ca 201c 	str.w	r2, [sl, #28]
  406c86:	3518      	adds	r5, #24
  406c88:	f10a 0220 	add.w	r2, sl, #32
  406c8c:	e7a6      	b.n	406bdc <_realloc_r+0x258>
  406c8e:	4632      	mov	r2, r6
  406c90:	e77f      	b.n	406b92 <_realloc_r+0x20e>
  406c92:	4629      	mov	r1, r5
  406c94:	4630      	mov	r0, r6
  406c96:	9301      	str	r3, [sp, #4]
  406c98:	f7ff fb0a 	bl	4062b0 <memmove>
  406c9c:	9b01      	ldr	r3, [sp, #4]
  406c9e:	e77e      	b.n	406b9e <_realloc_r+0x21a>
  406ca0:	68a9      	ldr	r1, [r5, #8]
  406ca2:	f8ca 1010 	str.w	r1, [sl, #16]
  406ca6:	68e9      	ldr	r1, [r5, #12]
  406ca8:	f8ca 1014 	str.w	r1, [sl, #20]
  406cac:	2a24      	cmp	r2, #36	; 0x24
  406cae:	d003      	beq.n	406cb8 <_realloc_r+0x334>
  406cb0:	3510      	adds	r5, #16
  406cb2:	f10a 0218 	add.w	r2, sl, #24
  406cb6:	e76c      	b.n	406b92 <_realloc_r+0x20e>
  406cb8:	692a      	ldr	r2, [r5, #16]
  406cba:	f8ca 2018 	str.w	r2, [sl, #24]
  406cbe:	696a      	ldr	r2, [r5, #20]
  406cc0:	f8ca 201c 	str.w	r2, [sl, #28]
  406cc4:	3518      	adds	r5, #24
  406cc6:	f10a 0220 	add.w	r2, sl, #32
  406cca:	e762      	b.n	406b92 <_realloc_r+0x20e>
  406ccc:	204005a8 	.word	0x204005a8

00406cd0 <_sbrk_r>:
  406cd0:	b538      	push	{r3, r4, r5, lr}
  406cd2:	4c07      	ldr	r4, [pc, #28]	; (406cf0 <_sbrk_r+0x20>)
  406cd4:	2300      	movs	r3, #0
  406cd6:	4605      	mov	r5, r0
  406cd8:	4608      	mov	r0, r1
  406cda:	6023      	str	r3, [r4, #0]
  406cdc:	f7fa fd60 	bl	4017a0 <_sbrk>
  406ce0:	1c43      	adds	r3, r0, #1
  406ce2:	d000      	beq.n	406ce6 <_sbrk_r+0x16>
  406ce4:	bd38      	pop	{r3, r4, r5, pc}
  406ce6:	6823      	ldr	r3, [r4, #0]
  406ce8:	2b00      	cmp	r3, #0
  406cea:	d0fb      	beq.n	406ce4 <_sbrk_r+0x14>
  406cec:	602b      	str	r3, [r5, #0]
  406cee:	bd38      	pop	{r3, r4, r5, pc}
  406cf0:	20400e80 	.word	0x20400e80

00406cf4 <__sread>:
  406cf4:	b510      	push	{r4, lr}
  406cf6:	460c      	mov	r4, r1
  406cf8:	f9b1 100e 	ldrsh.w	r1, [r1, #14]
  406cfc:	f000 fb14 	bl	407328 <_read_r>
  406d00:	2800      	cmp	r0, #0
  406d02:	db03      	blt.n	406d0c <__sread+0x18>
  406d04:	6d23      	ldr	r3, [r4, #80]	; 0x50
  406d06:	4403      	add	r3, r0
  406d08:	6523      	str	r3, [r4, #80]	; 0x50
  406d0a:	bd10      	pop	{r4, pc}
  406d0c:	89a3      	ldrh	r3, [r4, #12]
  406d0e:	f423 5380 	bic.w	r3, r3, #4096	; 0x1000
  406d12:	81a3      	strh	r3, [r4, #12]
  406d14:	bd10      	pop	{r4, pc}
  406d16:	bf00      	nop

00406d18 <__swrite>:
  406d18:	e92d 41f0 	stmdb	sp!, {r4, r5, r6, r7, r8, lr}
  406d1c:	4616      	mov	r6, r2
  406d1e:	f9b1 200c 	ldrsh.w	r2, [r1, #12]
  406d22:	461f      	mov	r7, r3
  406d24:	05d3      	lsls	r3, r2, #23
  406d26:	460c      	mov	r4, r1
  406d28:	4605      	mov	r5, r0
  406d2a:	d507      	bpl.n	406d3c <__swrite+0x24>
  406d2c:	2200      	movs	r2, #0
  406d2e:	2302      	movs	r3, #2
  406d30:	f9b1 100e 	ldrsh.w	r1, [r1, #14]
  406d34:	f000 fae2 	bl	4072fc <_lseek_r>
  406d38:	f9b4 200c 	ldrsh.w	r2, [r4, #12]
  406d3c:	f9b4 100e 	ldrsh.w	r1, [r4, #14]
  406d40:	f422 5280 	bic.w	r2, r2, #4096	; 0x1000
  406d44:	81a2      	strh	r2, [r4, #12]
  406d46:	463b      	mov	r3, r7
  406d48:	4632      	mov	r2, r6
  406d4a:	4628      	mov	r0, r5
  406d4c:	e8bd 41f0 	ldmia.w	sp!, {r4, r5, r6, r7, r8, lr}
  406d50:	f000 b992 	b.w	407078 <_write_r>

00406d54 <__sseek>:
  406d54:	b510      	push	{r4, lr}
  406d56:	460c      	mov	r4, r1
  406d58:	f9b1 100e 	ldrsh.w	r1, [r1, #14]
  406d5c:	f000 face 	bl	4072fc <_lseek_r>
  406d60:	89a3      	ldrh	r3, [r4, #12]
  406d62:	1c42      	adds	r2, r0, #1
  406d64:	bf0e      	itee	eq
  406d66:	f423 5380 	biceq.w	r3, r3, #4096	; 0x1000
  406d6a:	f443 5380 	orrne.w	r3, r3, #4096	; 0x1000
  406d6e:	6520      	strne	r0, [r4, #80]	; 0x50
  406d70:	81a3      	strh	r3, [r4, #12]
  406d72:	bd10      	pop	{r4, pc}

00406d74 <__sclose>:
  406d74:	f9b1 100e 	ldrsh.w	r1, [r1, #14]
  406d78:	f000 ba26 	b.w	4071c8 <_close_r>
  406d7c:	0000      	movs	r0, r0
	...

00406d80 <strlen>:
  406d80:	f890 f000 	pld	[r0]
  406d84:	e96d 4502 	strd	r4, r5, [sp, #-8]!
  406d88:	f020 0107 	bic.w	r1, r0, #7
  406d8c:	f06f 0c00 	mvn.w	ip, #0
  406d90:	f010 0407 	ands.w	r4, r0, #7
  406d94:	f891 f020 	pld	[r1, #32]
  406d98:	f040 8049 	bne.w	406e2e <strlen+0xae>
  406d9c:	f04f 0400 	mov.w	r4, #0
  406da0:	f06f 0007 	mvn.w	r0, #7
  406da4:	e9d1 2300 	ldrd	r2, r3, [r1]
  406da8:	f891 f040 	pld	[r1, #64]	; 0x40
  406dac:	f100 0008 	add.w	r0, r0, #8
  406db0:	fa82 f24c 	uadd8	r2, r2, ip
  406db4:	faa4 f28c 	sel	r2, r4, ip
  406db8:	fa83 f34c 	uadd8	r3, r3, ip
  406dbc:	faa2 f38c 	sel	r3, r2, ip
  406dc0:	bb4b      	cbnz	r3, 406e16 <strlen+0x96>
  406dc2:	e9d1 2302 	ldrd	r2, r3, [r1, #8]
  406dc6:	fa82 f24c 	uadd8	r2, r2, ip
  406dca:	f100 0008 	add.w	r0, r0, #8
  406dce:	faa4 f28c 	sel	r2, r4, ip
  406dd2:	fa83 f34c 	uadd8	r3, r3, ip
  406dd6:	faa2 f38c 	sel	r3, r2, ip
  406dda:	b9e3      	cbnz	r3, 406e16 <strlen+0x96>
  406ddc:	e9d1 2304 	ldrd	r2, r3, [r1, #16]
  406de0:	fa82 f24c 	uadd8	r2, r2, ip
  406de4:	f100 0008 	add.w	r0, r0, #8
  406de8:	faa4 f28c 	sel	r2, r4, ip
  406dec:	fa83 f34c 	uadd8	r3, r3, ip
  406df0:	faa2 f38c 	sel	r3, r2, ip
  406df4:	b97b      	cbnz	r3, 406e16 <strlen+0x96>
  406df6:	e9d1 2306 	ldrd	r2, r3, [r1, #24]
  406dfa:	f101 0120 	add.w	r1, r1, #32
  406dfe:	fa82 f24c 	uadd8	r2, r2, ip
  406e02:	f100 0008 	add.w	r0, r0, #8
  406e06:	faa4 f28c 	sel	r2, r4, ip
  406e0a:	fa83 f34c 	uadd8	r3, r3, ip
  406e0e:	faa2 f38c 	sel	r3, r2, ip
  406e12:	2b00      	cmp	r3, #0
  406e14:	d0c6      	beq.n	406da4 <strlen+0x24>
  406e16:	2a00      	cmp	r2, #0
  406e18:	bf04      	itt	eq
  406e1a:	3004      	addeq	r0, #4
  406e1c:	461a      	moveq	r2, r3
  406e1e:	ba12      	rev	r2, r2
  406e20:	fab2 f282 	clz	r2, r2
  406e24:	e8fd 4502 	ldrd	r4, r5, [sp], #8
  406e28:	eb00 00d2 	add.w	r0, r0, r2, lsr #3
  406e2c:	4770      	bx	lr
  406e2e:	e9d1 2300 	ldrd	r2, r3, [r1]
  406e32:	f004 0503 	and.w	r5, r4, #3
  406e36:	f1c4 0000 	rsb	r0, r4, #0
  406e3a:	ea4f 05c5 	mov.w	r5, r5, lsl #3
  406e3e:	f014 0f04 	tst.w	r4, #4
  406e42:	f891 f040 	pld	[r1, #64]	; 0x40
  406e46:	fa0c f505 	lsl.w	r5, ip, r5
  406e4a:	ea62 0205 	orn	r2, r2, r5
  406e4e:	bf1c      	itt	ne
  406e50:	ea63 0305 	ornne	r3, r3, r5
  406e54:	4662      	movne	r2, ip
  406e56:	f04f 0400 	mov.w	r4, #0
  406e5a:	e7a9      	b.n	406db0 <strlen+0x30>

00406e5c <__ssprint_r>:
  406e5c:	e92d 4ff0 	stmdb	sp!, {r4, r5, r6, r7, r8, r9, sl, fp, lr}
  406e60:	6893      	ldr	r3, [r2, #8]
  406e62:	b083      	sub	sp, #12
  406e64:	4690      	mov	r8, r2
  406e66:	2b00      	cmp	r3, #0
  406e68:	d070      	beq.n	406f4c <__ssprint_r+0xf0>
  406e6a:	4682      	mov	sl, r0
  406e6c:	460c      	mov	r4, r1
  406e6e:	6817      	ldr	r7, [r2, #0]
  406e70:	688d      	ldr	r5, [r1, #8]
  406e72:	6808      	ldr	r0, [r1, #0]
  406e74:	e042      	b.n	406efc <__ssprint_r+0xa0>
  406e76:	89a3      	ldrh	r3, [r4, #12]
  406e78:	f413 6f90 	tst.w	r3, #1152	; 0x480
  406e7c:	d02e      	beq.n	406edc <__ssprint_r+0x80>
  406e7e:	6965      	ldr	r5, [r4, #20]
  406e80:	6921      	ldr	r1, [r4, #16]
  406e82:	eb05 0545 	add.w	r5, r5, r5, lsl #1
  406e86:	eba0 0b01 	sub.w	fp, r0, r1
  406e8a:	eb05 75d5 	add.w	r5, r5, r5, lsr #31
  406e8e:	f10b 0001 	add.w	r0, fp, #1
  406e92:	106d      	asrs	r5, r5, #1
  406e94:	4430      	add	r0, r6
  406e96:	42a8      	cmp	r0, r5
  406e98:	462a      	mov	r2, r5
  406e9a:	bf84      	itt	hi
  406e9c:	4605      	movhi	r5, r0
  406e9e:	462a      	movhi	r2, r5
  406ea0:	055b      	lsls	r3, r3, #21
  406ea2:	d538      	bpl.n	406f16 <__ssprint_r+0xba>
  406ea4:	4611      	mov	r1, r2
  406ea6:	4650      	mov	r0, sl
  406ea8:	f7fe feea 	bl	405c80 <_malloc_r>
  406eac:	2800      	cmp	r0, #0
  406eae:	d03c      	beq.n	406f2a <__ssprint_r+0xce>
  406eb0:	465a      	mov	r2, fp
  406eb2:	6921      	ldr	r1, [r4, #16]
  406eb4:	9001      	str	r0, [sp, #4]
  406eb6:	f7fa fe91 	bl	401bdc <memcpy>
  406eba:	89a2      	ldrh	r2, [r4, #12]
  406ebc:	9b01      	ldr	r3, [sp, #4]
  406ebe:	f422 6290 	bic.w	r2, r2, #1152	; 0x480
  406ec2:	f042 0280 	orr.w	r2, r2, #128	; 0x80
  406ec6:	81a2      	strh	r2, [r4, #12]
  406ec8:	eba5 020b 	sub.w	r2, r5, fp
  406ecc:	eb03 000b 	add.w	r0, r3, fp
  406ed0:	6165      	str	r5, [r4, #20]
  406ed2:	6123      	str	r3, [r4, #16]
  406ed4:	6020      	str	r0, [r4, #0]
  406ed6:	60a2      	str	r2, [r4, #8]
  406ed8:	4635      	mov	r5, r6
  406eda:	46b3      	mov	fp, r6
  406edc:	465a      	mov	r2, fp
  406ede:	4649      	mov	r1, r9
  406ee0:	f7ff f9e6 	bl	4062b0 <memmove>
  406ee4:	f8d8 3008 	ldr.w	r3, [r8, #8]
  406ee8:	68a2      	ldr	r2, [r4, #8]
  406eea:	6820      	ldr	r0, [r4, #0]
  406eec:	1b55      	subs	r5, r2, r5
  406eee:	4458      	add	r0, fp
  406ef0:	1b9e      	subs	r6, r3, r6
  406ef2:	60a5      	str	r5, [r4, #8]
  406ef4:	6020      	str	r0, [r4, #0]
  406ef6:	f8c8 6008 	str.w	r6, [r8, #8]
  406efa:	b33e      	cbz	r6, 406f4c <__ssprint_r+0xf0>
  406efc:	687e      	ldr	r6, [r7, #4]
  406efe:	463b      	mov	r3, r7
  406f00:	3708      	adds	r7, #8
  406f02:	2e00      	cmp	r6, #0
  406f04:	d0fa      	beq.n	406efc <__ssprint_r+0xa0>
  406f06:	42ae      	cmp	r6, r5
  406f08:	f8d3 9000 	ldr.w	r9, [r3]
  406f0c:	46ab      	mov	fp, r5
  406f0e:	d2b2      	bcs.n	406e76 <__ssprint_r+0x1a>
  406f10:	4635      	mov	r5, r6
  406f12:	46b3      	mov	fp, r6
  406f14:	e7e2      	b.n	406edc <__ssprint_r+0x80>
  406f16:	4650      	mov	r0, sl
  406f18:	f7ff fd34 	bl	406984 <_realloc_r>
  406f1c:	4603      	mov	r3, r0
  406f1e:	2800      	cmp	r0, #0
  406f20:	d1d2      	bne.n	406ec8 <__ssprint_r+0x6c>
  406f22:	6921      	ldr	r1, [r4, #16]
  406f24:	4650      	mov	r0, sl
  406f26:	f7fe fb7f 	bl	405628 <_free_r>
  406f2a:	230c      	movs	r3, #12
  406f2c:	f8ca 3000 	str.w	r3, [sl]
  406f30:	89a3      	ldrh	r3, [r4, #12]
  406f32:	2200      	movs	r2, #0
  406f34:	f043 0340 	orr.w	r3, r3, #64	; 0x40
  406f38:	f04f 30ff 	mov.w	r0, #4294967295
  406f3c:	81a3      	strh	r3, [r4, #12]
  406f3e:	f8c8 2008 	str.w	r2, [r8, #8]
  406f42:	f8c8 2004 	str.w	r2, [r8, #4]
  406f46:	b003      	add	sp, #12
  406f48:	e8bd 8ff0 	ldmia.w	sp!, {r4, r5, r6, r7, r8, r9, sl, fp, pc}
  406f4c:	2000      	movs	r0, #0
  406f4e:	f8c8 0004 	str.w	r0, [r8, #4]
  406f52:	b003      	add	sp, #12
  406f54:	e8bd 8ff0 	ldmia.w	sp!, {r4, r5, r6, r7, r8, r9, sl, fp, pc}

00406f58 <__swbuf_r>:
  406f58:	b5f8      	push	{r3, r4, r5, r6, r7, lr}
  406f5a:	460d      	mov	r5, r1
  406f5c:	4614      	mov	r4, r2
  406f5e:	4606      	mov	r6, r0
  406f60:	b110      	cbz	r0, 406f68 <__swbuf_r+0x10>
  406f62:	6b83      	ldr	r3, [r0, #56]	; 0x38
  406f64:	2b00      	cmp	r3, #0
  406f66:	d04b      	beq.n	407000 <__swbuf_r+0xa8>
  406f68:	f9b4 200c 	ldrsh.w	r2, [r4, #12]
  406f6c:	69a3      	ldr	r3, [r4, #24]
  406f6e:	60a3      	str	r3, [r4, #8]
  406f70:	b291      	uxth	r1, r2
  406f72:	0708      	lsls	r0, r1, #28
  406f74:	d539      	bpl.n	406fea <__swbuf_r+0x92>
  406f76:	6923      	ldr	r3, [r4, #16]
  406f78:	2b00      	cmp	r3, #0
  406f7a:	d036      	beq.n	406fea <__swbuf_r+0x92>
  406f7c:	b2ed      	uxtb	r5, r5
  406f7e:	0489      	lsls	r1, r1, #18
  406f80:	462f      	mov	r7, r5
  406f82:	d515      	bpl.n	406fb0 <__swbuf_r+0x58>
  406f84:	6822      	ldr	r2, [r4, #0]
  406f86:	6961      	ldr	r1, [r4, #20]
  406f88:	1ad3      	subs	r3, r2, r3
  406f8a:	428b      	cmp	r3, r1
  406f8c:	da1c      	bge.n	406fc8 <__swbuf_r+0x70>
  406f8e:	3301      	adds	r3, #1
  406f90:	68a1      	ldr	r1, [r4, #8]
  406f92:	1c50      	adds	r0, r2, #1
  406f94:	3901      	subs	r1, #1
  406f96:	60a1      	str	r1, [r4, #8]
  406f98:	6020      	str	r0, [r4, #0]
  406f9a:	7015      	strb	r5, [r2, #0]
  406f9c:	6962      	ldr	r2, [r4, #20]
  406f9e:	429a      	cmp	r2, r3
  406fa0:	d01a      	beq.n	406fd8 <__swbuf_r+0x80>
  406fa2:	89a3      	ldrh	r3, [r4, #12]
  406fa4:	07db      	lsls	r3, r3, #31
  406fa6:	d501      	bpl.n	406fac <__swbuf_r+0x54>
  406fa8:	2d0a      	cmp	r5, #10
  406faa:	d015      	beq.n	406fd8 <__swbuf_r+0x80>
  406fac:	4638      	mov	r0, r7
  406fae:	bdf8      	pop	{r3, r4, r5, r6, r7, pc}
  406fb0:	6e61      	ldr	r1, [r4, #100]	; 0x64
  406fb2:	f442 5200 	orr.w	r2, r2, #8192	; 0x2000
  406fb6:	f421 5100 	bic.w	r1, r1, #8192	; 0x2000
  406fba:	81a2      	strh	r2, [r4, #12]
  406fbc:	6822      	ldr	r2, [r4, #0]
  406fbe:	6661      	str	r1, [r4, #100]	; 0x64
  406fc0:	6961      	ldr	r1, [r4, #20]
  406fc2:	1ad3      	subs	r3, r2, r3
  406fc4:	428b      	cmp	r3, r1
  406fc6:	dbe2      	blt.n	406f8e <__swbuf_r+0x36>
  406fc8:	4621      	mov	r1, r4
  406fca:	4630      	mov	r0, r6
  406fcc:	f7fe f9ae 	bl	40532c <_fflush_r>
  406fd0:	b940      	cbnz	r0, 406fe4 <__swbuf_r+0x8c>
  406fd2:	6822      	ldr	r2, [r4, #0]
  406fd4:	2301      	movs	r3, #1
  406fd6:	e7db      	b.n	406f90 <__swbuf_r+0x38>
  406fd8:	4621      	mov	r1, r4
  406fda:	4630      	mov	r0, r6
  406fdc:	f7fe f9a6 	bl	40532c <_fflush_r>
  406fe0:	2800      	cmp	r0, #0
  406fe2:	d0e3      	beq.n	406fac <__swbuf_r+0x54>
  406fe4:	f04f 37ff 	mov.w	r7, #4294967295
  406fe8:	e7e0      	b.n	406fac <__swbuf_r+0x54>
  406fea:	4621      	mov	r1, r4
  406fec:	4630      	mov	r0, r6
  406fee:	f7fd f8cb 	bl	404188 <__swsetup_r>
  406ff2:	2800      	cmp	r0, #0
  406ff4:	d1f6      	bne.n	406fe4 <__swbuf_r+0x8c>
  406ff6:	f9b4 200c 	ldrsh.w	r2, [r4, #12]
  406ffa:	6923      	ldr	r3, [r4, #16]
  406ffc:	b291      	uxth	r1, r2
  406ffe:	e7bd      	b.n	406f7c <__swbuf_r+0x24>
  407000:	f7fe f9ec 	bl	4053dc <__sinit>
  407004:	e7b0      	b.n	406f68 <__swbuf_r+0x10>
  407006:	bf00      	nop

00407008 <_wcrtomb_r>:
  407008:	b5f0      	push	{r4, r5, r6, r7, lr}
  40700a:	4606      	mov	r6, r0
  40700c:	b085      	sub	sp, #20
  40700e:	461f      	mov	r7, r3
  407010:	b189      	cbz	r1, 407036 <_wcrtomb_r+0x2e>
  407012:	4c10      	ldr	r4, [pc, #64]	; (407054 <_wcrtomb_r+0x4c>)
  407014:	4d10      	ldr	r5, [pc, #64]	; (407058 <_wcrtomb_r+0x50>)
  407016:	6824      	ldr	r4, [r4, #0]
  407018:	6b64      	ldr	r4, [r4, #52]	; 0x34
  40701a:	2c00      	cmp	r4, #0
  40701c:	bf08      	it	eq
  40701e:	462c      	moveq	r4, r5
  407020:	f8d4 40e0 	ldr.w	r4, [r4, #224]	; 0xe0
  407024:	47a0      	blx	r4
  407026:	1c43      	adds	r3, r0, #1
  407028:	d103      	bne.n	407032 <_wcrtomb_r+0x2a>
  40702a:	2200      	movs	r2, #0
  40702c:	238a      	movs	r3, #138	; 0x8a
  40702e:	603a      	str	r2, [r7, #0]
  407030:	6033      	str	r3, [r6, #0]
  407032:	b005      	add	sp, #20
  407034:	bdf0      	pop	{r4, r5, r6, r7, pc}
  407036:	460c      	mov	r4, r1
  407038:	4906      	ldr	r1, [pc, #24]	; (407054 <_wcrtomb_r+0x4c>)
  40703a:	4a07      	ldr	r2, [pc, #28]	; (407058 <_wcrtomb_r+0x50>)
  40703c:	6809      	ldr	r1, [r1, #0]
  40703e:	6b49      	ldr	r1, [r1, #52]	; 0x34
  407040:	2900      	cmp	r1, #0
  407042:	bf08      	it	eq
  407044:	4611      	moveq	r1, r2
  407046:	4622      	mov	r2, r4
  407048:	f8d1 40e0 	ldr.w	r4, [r1, #224]	; 0xe0
  40704c:	a901      	add	r1, sp, #4
  40704e:	47a0      	blx	r4
  407050:	e7e9      	b.n	407026 <_wcrtomb_r+0x1e>
  407052:	bf00      	nop
  407054:	20400008 	.word	0x20400008
  407058:	2040043c 	.word	0x2040043c

0040705c <__ascii_wctomb>:
  40705c:	b121      	cbz	r1, 407068 <__ascii_wctomb+0xc>
  40705e:	2aff      	cmp	r2, #255	; 0xff
  407060:	d804      	bhi.n	40706c <__ascii_wctomb+0x10>
  407062:	700a      	strb	r2, [r1, #0]
  407064:	2001      	movs	r0, #1
  407066:	4770      	bx	lr
  407068:	4608      	mov	r0, r1
  40706a:	4770      	bx	lr
  40706c:	238a      	movs	r3, #138	; 0x8a
  40706e:	6003      	str	r3, [r0, #0]
  407070:	f04f 30ff 	mov.w	r0, #4294967295
  407074:	4770      	bx	lr
  407076:	bf00      	nop

00407078 <_write_r>:
  407078:	b570      	push	{r4, r5, r6, lr}
  40707a:	460d      	mov	r5, r1
  40707c:	4c08      	ldr	r4, [pc, #32]	; (4070a0 <_write_r+0x28>)
  40707e:	4611      	mov	r1, r2
  407080:	4606      	mov	r6, r0
  407082:	461a      	mov	r2, r3
  407084:	4628      	mov	r0, r5
  407086:	2300      	movs	r3, #0
  407088:	6023      	str	r3, [r4, #0]
  40708a:	f7f9 f9ad 	bl	4003e8 <_write>
  40708e:	1c43      	adds	r3, r0, #1
  407090:	d000      	beq.n	407094 <_write_r+0x1c>
  407092:	bd70      	pop	{r4, r5, r6, pc}
  407094:	6823      	ldr	r3, [r4, #0]
  407096:	2b00      	cmp	r3, #0
  407098:	d0fb      	beq.n	407092 <_write_r+0x1a>
  40709a:	6033      	str	r3, [r6, #0]
  40709c:	bd70      	pop	{r4, r5, r6, pc}
  40709e:	bf00      	nop
  4070a0:	20400e80 	.word	0x20400e80

004070a4 <__register_exitproc>:
  4070a4:	e92d 43f8 	stmdb	sp!, {r3, r4, r5, r6, r7, r8, r9, lr}
  4070a8:	4d2c      	ldr	r5, [pc, #176]	; (40715c <__register_exitproc+0xb8>)
  4070aa:	4606      	mov	r6, r0
  4070ac:	6828      	ldr	r0, [r5, #0]
  4070ae:	4698      	mov	r8, r3
  4070b0:	460f      	mov	r7, r1
  4070b2:	4691      	mov	r9, r2
  4070b4:	f7fe fd60 	bl	405b78 <__retarget_lock_acquire_recursive>
  4070b8:	4b29      	ldr	r3, [pc, #164]	; (407160 <__register_exitproc+0xbc>)
  4070ba:	681c      	ldr	r4, [r3, #0]
  4070bc:	f8d4 3148 	ldr.w	r3, [r4, #328]	; 0x148
  4070c0:	2b00      	cmp	r3, #0
  4070c2:	d03e      	beq.n	407142 <__register_exitproc+0x9e>
  4070c4:	685a      	ldr	r2, [r3, #4]
  4070c6:	2a1f      	cmp	r2, #31
  4070c8:	dc1c      	bgt.n	407104 <__register_exitproc+0x60>
  4070ca:	f102 0e01 	add.w	lr, r2, #1
  4070ce:	b176      	cbz	r6, 4070ee <__register_exitproc+0x4a>
  4070d0:	eb03 0182 	add.w	r1, r3, r2, lsl #2
  4070d4:	2401      	movs	r4, #1
  4070d6:	f8c1 9088 	str.w	r9, [r1, #136]	; 0x88
  4070da:	f8d3 0188 	ldr.w	r0, [r3, #392]	; 0x188
  4070de:	4094      	lsls	r4, r2
  4070e0:	4320      	orrs	r0, r4
  4070e2:	2e02      	cmp	r6, #2
  4070e4:	f8c3 0188 	str.w	r0, [r3, #392]	; 0x188
  4070e8:	f8c1 8108 	str.w	r8, [r1, #264]	; 0x108
  4070ec:	d023      	beq.n	407136 <__register_exitproc+0x92>
  4070ee:	3202      	adds	r2, #2
  4070f0:	f8c3 e004 	str.w	lr, [r3, #4]
  4070f4:	6828      	ldr	r0, [r5, #0]
  4070f6:	f843 7022 	str.w	r7, [r3, r2, lsl #2]
  4070fa:	f7fe fd3f 	bl	405b7c <__retarget_lock_release_recursive>
  4070fe:	2000      	movs	r0, #0
  407100:	e8bd 83f8 	ldmia.w	sp!, {r3, r4, r5, r6, r7, r8, r9, pc}
  407104:	4b17      	ldr	r3, [pc, #92]	; (407164 <__register_exitproc+0xc0>)
  407106:	b30b      	cbz	r3, 40714c <__register_exitproc+0xa8>
  407108:	f44f 70c8 	mov.w	r0, #400	; 0x190
  40710c:	f7fe fdb0 	bl	405c70 <malloc>
  407110:	4603      	mov	r3, r0
  407112:	b1d8      	cbz	r0, 40714c <__register_exitproc+0xa8>
  407114:	f8d4 2148 	ldr.w	r2, [r4, #328]	; 0x148
  407118:	6002      	str	r2, [r0, #0]
  40711a:	2100      	movs	r1, #0
  40711c:	6041      	str	r1, [r0, #4]
  40711e:	460a      	mov	r2, r1
  407120:	f8c4 0148 	str.w	r0, [r4, #328]	; 0x148
  407124:	f04f 0e01 	mov.w	lr, #1
  407128:	f8c0 1188 	str.w	r1, [r0, #392]	; 0x188
  40712c:	f8c0 118c 	str.w	r1, [r0, #396]	; 0x18c
  407130:	2e00      	cmp	r6, #0
  407132:	d0dc      	beq.n	4070ee <__register_exitproc+0x4a>
  407134:	e7cc      	b.n	4070d0 <__register_exitproc+0x2c>
  407136:	f8d3 118c 	ldr.w	r1, [r3, #396]	; 0x18c
  40713a:	430c      	orrs	r4, r1
  40713c:	f8c3 418c 	str.w	r4, [r3, #396]	; 0x18c
  407140:	e7d5      	b.n	4070ee <__register_exitproc+0x4a>
  407142:	f504 73a6 	add.w	r3, r4, #332	; 0x14c
  407146:	f8c4 3148 	str.w	r3, [r4, #328]	; 0x148
  40714a:	e7bb      	b.n	4070c4 <__register_exitproc+0x20>
  40714c:	6828      	ldr	r0, [r5, #0]
  40714e:	f7fe fd15 	bl	405b7c <__retarget_lock_release_recursive>
  407152:	f04f 30ff 	mov.w	r0, #4294967295
  407156:	e8bd 83f8 	ldmia.w	sp!, {r3, r4, r5, r6, r7, r8, r9, pc}
  40715a:	bf00      	nop
  40715c:	20400438 	.word	0x20400438
  407160:	00410a70 	.word	0x00410a70
  407164:	00405c71 	.word	0x00405c71

00407168 <_calloc_r>:
  407168:	b510      	push	{r4, lr}
  40716a:	fb02 f101 	mul.w	r1, r2, r1
  40716e:	f7fe fd87 	bl	405c80 <_malloc_r>
  407172:	4604      	mov	r4, r0
  407174:	b1d8      	cbz	r0, 4071ae <_calloc_r+0x46>
  407176:	f850 2c04 	ldr.w	r2, [r0, #-4]
  40717a:	f022 0203 	bic.w	r2, r2, #3
  40717e:	3a04      	subs	r2, #4
  407180:	2a24      	cmp	r2, #36	; 0x24
  407182:	d818      	bhi.n	4071b6 <_calloc_r+0x4e>
  407184:	2a13      	cmp	r2, #19
  407186:	d914      	bls.n	4071b2 <_calloc_r+0x4a>
  407188:	2300      	movs	r3, #0
  40718a:	2a1b      	cmp	r2, #27
  40718c:	6003      	str	r3, [r0, #0]
  40718e:	6043      	str	r3, [r0, #4]
  407190:	d916      	bls.n	4071c0 <_calloc_r+0x58>
  407192:	2a24      	cmp	r2, #36	; 0x24
  407194:	6083      	str	r3, [r0, #8]
  407196:	60c3      	str	r3, [r0, #12]
  407198:	bf11      	iteee	ne
  40719a:	f100 0210 	addne.w	r2, r0, #16
  40719e:	6103      	streq	r3, [r0, #16]
  4071a0:	6143      	streq	r3, [r0, #20]
  4071a2:	f100 0218 	addeq.w	r2, r0, #24
  4071a6:	2300      	movs	r3, #0
  4071a8:	6013      	str	r3, [r2, #0]
  4071aa:	6053      	str	r3, [r2, #4]
  4071ac:	6093      	str	r3, [r2, #8]
  4071ae:	4620      	mov	r0, r4
  4071b0:	bd10      	pop	{r4, pc}
  4071b2:	4602      	mov	r2, r0
  4071b4:	e7f7      	b.n	4071a6 <_calloc_r+0x3e>
  4071b6:	2100      	movs	r1, #0
  4071b8:	f7fa fdaa 	bl	401d10 <memset>
  4071bc:	4620      	mov	r0, r4
  4071be:	bd10      	pop	{r4, pc}
  4071c0:	f100 0208 	add.w	r2, r0, #8
  4071c4:	e7ef      	b.n	4071a6 <_calloc_r+0x3e>
  4071c6:	bf00      	nop

004071c8 <_close_r>:
  4071c8:	b538      	push	{r3, r4, r5, lr}
  4071ca:	4c07      	ldr	r4, [pc, #28]	; (4071e8 <_close_r+0x20>)
  4071cc:	2300      	movs	r3, #0
  4071ce:	4605      	mov	r5, r0
  4071d0:	4608      	mov	r0, r1
  4071d2:	6023      	str	r3, [r4, #0]
  4071d4:	f7fa fb00 	bl	4017d8 <_close>
  4071d8:	1c43      	adds	r3, r0, #1
  4071da:	d000      	beq.n	4071de <_close_r+0x16>
  4071dc:	bd38      	pop	{r3, r4, r5, pc}
  4071de:	6823      	ldr	r3, [r4, #0]
  4071e0:	2b00      	cmp	r3, #0
  4071e2:	d0fb      	beq.n	4071dc <_close_r+0x14>
  4071e4:	602b      	str	r3, [r5, #0]
  4071e6:	bd38      	pop	{r3, r4, r5, pc}
  4071e8:	20400e80 	.word	0x20400e80

004071ec <_fclose_r>:
  4071ec:	b570      	push	{r4, r5, r6, lr}
  4071ee:	b159      	cbz	r1, 407208 <_fclose_r+0x1c>
  4071f0:	4605      	mov	r5, r0
  4071f2:	460c      	mov	r4, r1
  4071f4:	b110      	cbz	r0, 4071fc <_fclose_r+0x10>
  4071f6:	6b83      	ldr	r3, [r0, #56]	; 0x38
  4071f8:	2b00      	cmp	r3, #0
  4071fa:	d03c      	beq.n	407276 <_fclose_r+0x8a>
  4071fc:	6e63      	ldr	r3, [r4, #100]	; 0x64
  4071fe:	07d8      	lsls	r0, r3, #31
  407200:	d505      	bpl.n	40720e <_fclose_r+0x22>
  407202:	f9b4 300c 	ldrsh.w	r3, [r4, #12]
  407206:	b92b      	cbnz	r3, 407214 <_fclose_r+0x28>
  407208:	2600      	movs	r6, #0
  40720a:	4630      	mov	r0, r6
  40720c:	bd70      	pop	{r4, r5, r6, pc}
  40720e:	89a3      	ldrh	r3, [r4, #12]
  407210:	0599      	lsls	r1, r3, #22
  407212:	d53c      	bpl.n	40728e <_fclose_r+0xa2>
  407214:	4621      	mov	r1, r4
  407216:	4628      	mov	r0, r5
  407218:	f7fd ffe8 	bl	4051ec <__sflush_r>
  40721c:	6ae3      	ldr	r3, [r4, #44]	; 0x2c
  40721e:	4606      	mov	r6, r0
  407220:	b133      	cbz	r3, 407230 <_fclose_r+0x44>
  407222:	69e1      	ldr	r1, [r4, #28]
  407224:	4628      	mov	r0, r5
  407226:	4798      	blx	r3
  407228:	2800      	cmp	r0, #0
  40722a:	bfb8      	it	lt
  40722c:	f04f 36ff 	movlt.w	r6, #4294967295
  407230:	89a3      	ldrh	r3, [r4, #12]
  407232:	061a      	lsls	r2, r3, #24
  407234:	d422      	bmi.n	40727c <_fclose_r+0x90>
  407236:	6b21      	ldr	r1, [r4, #48]	; 0x30
  407238:	b141      	cbz	r1, 40724c <_fclose_r+0x60>
  40723a:	f104 0340 	add.w	r3, r4, #64	; 0x40
  40723e:	4299      	cmp	r1, r3
  407240:	d002      	beq.n	407248 <_fclose_r+0x5c>
  407242:	4628      	mov	r0, r5
  407244:	f7fe f9f0 	bl	405628 <_free_r>
  407248:	2300      	movs	r3, #0
  40724a:	6323      	str	r3, [r4, #48]	; 0x30
  40724c:	6c61      	ldr	r1, [r4, #68]	; 0x44
  40724e:	b121      	cbz	r1, 40725a <_fclose_r+0x6e>
  407250:	4628      	mov	r0, r5
  407252:	f7fe f9e9 	bl	405628 <_free_r>
  407256:	2300      	movs	r3, #0
  407258:	6463      	str	r3, [r4, #68]	; 0x44
  40725a:	f7fe f8eb 	bl	405434 <__sfp_lock_acquire>
  40725e:	6e63      	ldr	r3, [r4, #100]	; 0x64
  407260:	2200      	movs	r2, #0
  407262:	07db      	lsls	r3, r3, #31
  407264:	81a2      	strh	r2, [r4, #12]
  407266:	d50e      	bpl.n	407286 <_fclose_r+0x9a>
  407268:	6da0      	ldr	r0, [r4, #88]	; 0x58
  40726a:	f7fe fc83 	bl	405b74 <__retarget_lock_close_recursive>
  40726e:	f7fe f8e7 	bl	405440 <__sfp_lock_release>
  407272:	4630      	mov	r0, r6
  407274:	bd70      	pop	{r4, r5, r6, pc}
  407276:	f7fe f8b1 	bl	4053dc <__sinit>
  40727a:	e7bf      	b.n	4071fc <_fclose_r+0x10>
  40727c:	6921      	ldr	r1, [r4, #16]
  40727e:	4628      	mov	r0, r5
  407280:	f7fe f9d2 	bl	405628 <_free_r>
  407284:	e7d7      	b.n	407236 <_fclose_r+0x4a>
  407286:	6da0      	ldr	r0, [r4, #88]	; 0x58
  407288:	f7fe fc78 	bl	405b7c <__retarget_lock_release_recursive>
  40728c:	e7ec      	b.n	407268 <_fclose_r+0x7c>
  40728e:	6da0      	ldr	r0, [r4, #88]	; 0x58
  407290:	f7fe fc72 	bl	405b78 <__retarget_lock_acquire_recursive>
  407294:	f9b4 300c 	ldrsh.w	r3, [r4, #12]
  407298:	2b00      	cmp	r3, #0
  40729a:	d1bb      	bne.n	407214 <_fclose_r+0x28>
  40729c:	6e66      	ldr	r6, [r4, #100]	; 0x64
  40729e:	f016 0601 	ands.w	r6, r6, #1
  4072a2:	d1b1      	bne.n	407208 <_fclose_r+0x1c>
  4072a4:	6da0      	ldr	r0, [r4, #88]	; 0x58
  4072a6:	f7fe fc69 	bl	405b7c <__retarget_lock_release_recursive>
  4072aa:	4630      	mov	r0, r6
  4072ac:	bd70      	pop	{r4, r5, r6, pc}
  4072ae:	bf00      	nop

004072b0 <_fstat_r>:
  4072b0:	b538      	push	{r3, r4, r5, lr}
  4072b2:	460b      	mov	r3, r1
  4072b4:	4c07      	ldr	r4, [pc, #28]	; (4072d4 <_fstat_r+0x24>)
  4072b6:	4605      	mov	r5, r0
  4072b8:	4611      	mov	r1, r2
  4072ba:	4618      	mov	r0, r3
  4072bc:	2300      	movs	r3, #0
  4072be:	6023      	str	r3, [r4, #0]
  4072c0:	f7fa fa8d 	bl	4017de <_fstat>
  4072c4:	1c43      	adds	r3, r0, #1
  4072c6:	d000      	beq.n	4072ca <_fstat_r+0x1a>
  4072c8:	bd38      	pop	{r3, r4, r5, pc}
  4072ca:	6823      	ldr	r3, [r4, #0]
  4072cc:	2b00      	cmp	r3, #0
  4072ce:	d0fb      	beq.n	4072c8 <_fstat_r+0x18>
  4072d0:	602b      	str	r3, [r5, #0]
  4072d2:	bd38      	pop	{r3, r4, r5, pc}
  4072d4:	20400e80 	.word	0x20400e80

004072d8 <_isatty_r>:
  4072d8:	b538      	push	{r3, r4, r5, lr}
  4072da:	4c07      	ldr	r4, [pc, #28]	; (4072f8 <_isatty_r+0x20>)
  4072dc:	2300      	movs	r3, #0
  4072de:	4605      	mov	r5, r0
  4072e0:	4608      	mov	r0, r1
  4072e2:	6023      	str	r3, [r4, #0]
  4072e4:	f7fa fa80 	bl	4017e8 <_isatty>
  4072e8:	1c43      	adds	r3, r0, #1
  4072ea:	d000      	beq.n	4072ee <_isatty_r+0x16>
  4072ec:	bd38      	pop	{r3, r4, r5, pc}
  4072ee:	6823      	ldr	r3, [r4, #0]
  4072f0:	2b00      	cmp	r3, #0
  4072f2:	d0fb      	beq.n	4072ec <_isatty_r+0x14>
  4072f4:	602b      	str	r3, [r5, #0]
  4072f6:	bd38      	pop	{r3, r4, r5, pc}
  4072f8:	20400e80 	.word	0x20400e80

004072fc <_lseek_r>:
  4072fc:	b570      	push	{r4, r5, r6, lr}
  4072fe:	460d      	mov	r5, r1
  407300:	4c08      	ldr	r4, [pc, #32]	; (407324 <_lseek_r+0x28>)
  407302:	4611      	mov	r1, r2
  407304:	4606      	mov	r6, r0
  407306:	461a      	mov	r2, r3
  407308:	4628      	mov	r0, r5
  40730a:	2300      	movs	r3, #0
  40730c:	6023      	str	r3, [r4, #0]
  40730e:	f7fa fa6d 	bl	4017ec <_lseek>
  407312:	1c43      	adds	r3, r0, #1
  407314:	d000      	beq.n	407318 <_lseek_r+0x1c>
  407316:	bd70      	pop	{r4, r5, r6, pc}
  407318:	6823      	ldr	r3, [r4, #0]
  40731a:	2b00      	cmp	r3, #0
  40731c:	d0fb      	beq.n	407316 <_lseek_r+0x1a>
  40731e:	6033      	str	r3, [r6, #0]
  407320:	bd70      	pop	{r4, r5, r6, pc}
  407322:	bf00      	nop
  407324:	20400e80 	.word	0x20400e80

00407328 <_read_r>:
  407328:	b570      	push	{r4, r5, r6, lr}
  40732a:	460d      	mov	r5, r1
  40732c:	4c08      	ldr	r4, [pc, #32]	; (407350 <_read_r+0x28>)
  40732e:	4611      	mov	r1, r2
  407330:	4606      	mov	r6, r0
  407332:	461a      	mov	r2, r3
  407334:	4628      	mov	r0, r5
  407336:	2300      	movs	r3, #0
  407338:	6023      	str	r3, [r4, #0]
  40733a:	f7f9 f837 	bl	4003ac <_read>
  40733e:	1c43      	adds	r3, r0, #1
  407340:	d000      	beq.n	407344 <_read_r+0x1c>
  407342:	bd70      	pop	{r4, r5, r6, pc}
  407344:	6823      	ldr	r3, [r4, #0]
  407346:	2b00      	cmp	r3, #0
  407348:	d0fb      	beq.n	407342 <_read_r+0x1a>
  40734a:	6033      	str	r3, [r6, #0]
  40734c:	bd70      	pop	{r4, r5, r6, pc}
  40734e:	bf00      	nop
  407350:	20400e80 	.word	0x20400e80

00407354 <__aeabi_drsub>:
  407354:	f081 4100 	eor.w	r1, r1, #2147483648	; 0x80000000
  407358:	e002      	b.n	407360 <__adddf3>
  40735a:	bf00      	nop

0040735c <__aeabi_dsub>:
  40735c:	f083 4300 	eor.w	r3, r3, #2147483648	; 0x80000000

00407360 <__adddf3>:
  407360:	b530      	push	{r4, r5, lr}
  407362:	ea4f 0441 	mov.w	r4, r1, lsl #1
  407366:	ea4f 0543 	mov.w	r5, r3, lsl #1
  40736a:	ea94 0f05 	teq	r4, r5
  40736e:	bf08      	it	eq
  407370:	ea90 0f02 	teqeq	r0, r2
  407374:	bf1f      	itttt	ne
  407376:	ea54 0c00 	orrsne.w	ip, r4, r0
  40737a:	ea55 0c02 	orrsne.w	ip, r5, r2
  40737e:	ea7f 5c64 	mvnsne.w	ip, r4, asr #21
  407382:	ea7f 5c65 	mvnsne.w	ip, r5, asr #21
  407386:	f000 80e2 	beq.w	40754e <__adddf3+0x1ee>
  40738a:	ea4f 5454 	mov.w	r4, r4, lsr #21
  40738e:	ebd4 5555 	rsbs	r5, r4, r5, lsr #21
  407392:	bfb8      	it	lt
  407394:	426d      	neglt	r5, r5
  407396:	dd0c      	ble.n	4073b2 <__adddf3+0x52>
  407398:	442c      	add	r4, r5
  40739a:	ea80 0202 	eor.w	r2, r0, r2
  40739e:	ea81 0303 	eor.w	r3, r1, r3
  4073a2:	ea82 0000 	eor.w	r0, r2, r0
  4073a6:	ea83 0101 	eor.w	r1, r3, r1
  4073aa:	ea80 0202 	eor.w	r2, r0, r2
  4073ae:	ea81 0303 	eor.w	r3, r1, r3
  4073b2:	2d36      	cmp	r5, #54	; 0x36
  4073b4:	bf88      	it	hi
  4073b6:	bd30      	pophi	{r4, r5, pc}
  4073b8:	f011 4f00 	tst.w	r1, #2147483648	; 0x80000000
  4073bc:	ea4f 3101 	mov.w	r1, r1, lsl #12
  4073c0:	f44f 1c80 	mov.w	ip, #1048576	; 0x100000
  4073c4:	ea4c 3111 	orr.w	r1, ip, r1, lsr #12
  4073c8:	d002      	beq.n	4073d0 <__adddf3+0x70>
  4073ca:	4240      	negs	r0, r0
  4073cc:	eb61 0141 	sbc.w	r1, r1, r1, lsl #1
  4073d0:	f013 4f00 	tst.w	r3, #2147483648	; 0x80000000
  4073d4:	ea4f 3303 	mov.w	r3, r3, lsl #12
  4073d8:	ea4c 3313 	orr.w	r3, ip, r3, lsr #12
  4073dc:	d002      	beq.n	4073e4 <__adddf3+0x84>
  4073de:	4252      	negs	r2, r2
  4073e0:	eb63 0343 	sbc.w	r3, r3, r3, lsl #1
  4073e4:	ea94 0f05 	teq	r4, r5
  4073e8:	f000 80a7 	beq.w	40753a <__adddf3+0x1da>
  4073ec:	f1a4 0401 	sub.w	r4, r4, #1
  4073f0:	f1d5 0e20 	rsbs	lr, r5, #32
  4073f4:	db0d      	blt.n	407412 <__adddf3+0xb2>
  4073f6:	fa02 fc0e 	lsl.w	ip, r2, lr
  4073fa:	fa22 f205 	lsr.w	r2, r2, r5
  4073fe:	1880      	adds	r0, r0, r2
  407400:	f141 0100 	adc.w	r1, r1, #0
  407404:	fa03 f20e 	lsl.w	r2, r3, lr
  407408:	1880      	adds	r0, r0, r2
  40740a:	fa43 f305 	asr.w	r3, r3, r5
  40740e:	4159      	adcs	r1, r3
  407410:	e00e      	b.n	407430 <__adddf3+0xd0>
  407412:	f1a5 0520 	sub.w	r5, r5, #32
  407416:	f10e 0e20 	add.w	lr, lr, #32
  40741a:	2a01      	cmp	r2, #1
  40741c:	fa03 fc0e 	lsl.w	ip, r3, lr
  407420:	bf28      	it	cs
  407422:	f04c 0c02 	orrcs.w	ip, ip, #2
  407426:	fa43 f305 	asr.w	r3, r3, r5
  40742a:	18c0      	adds	r0, r0, r3
  40742c:	eb51 71e3 	adcs.w	r1, r1, r3, asr #31
  407430:	f001 4500 	and.w	r5, r1, #2147483648	; 0x80000000
  407434:	d507      	bpl.n	407446 <__adddf3+0xe6>
  407436:	f04f 0e00 	mov.w	lr, #0
  40743a:	f1dc 0c00 	rsbs	ip, ip, #0
  40743e:	eb7e 0000 	sbcs.w	r0, lr, r0
  407442:	eb6e 0101 	sbc.w	r1, lr, r1
  407446:	f5b1 1f80 	cmp.w	r1, #1048576	; 0x100000
  40744a:	d31b      	bcc.n	407484 <__adddf3+0x124>
  40744c:	f5b1 1f00 	cmp.w	r1, #2097152	; 0x200000
  407450:	d30c      	bcc.n	40746c <__adddf3+0x10c>
  407452:	0849      	lsrs	r1, r1, #1
  407454:	ea5f 0030 	movs.w	r0, r0, rrx
  407458:	ea4f 0c3c 	mov.w	ip, ip, rrx
  40745c:	f104 0401 	add.w	r4, r4, #1
  407460:	ea4f 5244 	mov.w	r2, r4, lsl #21
  407464:	f512 0f80 	cmn.w	r2, #4194304	; 0x400000
  407468:	f080 809a 	bcs.w	4075a0 <__adddf3+0x240>
  40746c:	f1bc 4f00 	cmp.w	ip, #2147483648	; 0x80000000
  407470:	bf08      	it	eq
  407472:	ea5f 0c50 	movseq.w	ip, r0, lsr #1
  407476:	f150 0000 	adcs.w	r0, r0, #0
  40747a:	eb41 5104 	adc.w	r1, r1, r4, lsl #20
  40747e:	ea41 0105 	orr.w	r1, r1, r5
  407482:	bd30      	pop	{r4, r5, pc}
  407484:	ea5f 0c4c 	movs.w	ip, ip, lsl #1
  407488:	4140      	adcs	r0, r0
  40748a:	eb41 0101 	adc.w	r1, r1, r1
  40748e:	f411 1f80 	tst.w	r1, #1048576	; 0x100000
  407492:	f1a4 0401 	sub.w	r4, r4, #1
  407496:	d1e9      	bne.n	40746c <__adddf3+0x10c>
  407498:	f091 0f00 	teq	r1, #0
  40749c:	bf04      	itt	eq
  40749e:	4601      	moveq	r1, r0
  4074a0:	2000      	moveq	r0, #0
  4074a2:	fab1 f381 	clz	r3, r1
  4074a6:	bf08      	it	eq
  4074a8:	3320      	addeq	r3, #32
  4074aa:	f1a3 030b 	sub.w	r3, r3, #11
  4074ae:	f1b3 0220 	subs.w	r2, r3, #32
  4074b2:	da0c      	bge.n	4074ce <__adddf3+0x16e>
  4074b4:	320c      	adds	r2, #12
  4074b6:	dd08      	ble.n	4074ca <__adddf3+0x16a>
  4074b8:	f102 0c14 	add.w	ip, r2, #20
  4074bc:	f1c2 020c 	rsb	r2, r2, #12
  4074c0:	fa01 f00c 	lsl.w	r0, r1, ip
  4074c4:	fa21 f102 	lsr.w	r1, r1, r2
  4074c8:	e00c      	b.n	4074e4 <__adddf3+0x184>
  4074ca:	f102 0214 	add.w	r2, r2, #20
  4074ce:	bfd8      	it	le
  4074d0:	f1c2 0c20 	rsble	ip, r2, #32
  4074d4:	fa01 f102 	lsl.w	r1, r1, r2
  4074d8:	fa20 fc0c 	lsr.w	ip, r0, ip
  4074dc:	bfdc      	itt	le
  4074de:	ea41 010c 	orrle.w	r1, r1, ip
  4074e2:	4090      	lslle	r0, r2
  4074e4:	1ae4      	subs	r4, r4, r3
  4074e6:	bfa2      	ittt	ge
  4074e8:	eb01 5104 	addge.w	r1, r1, r4, lsl #20
  4074ec:	4329      	orrge	r1, r5
  4074ee:	bd30      	popge	{r4, r5, pc}
  4074f0:	ea6f 0404 	mvn.w	r4, r4
  4074f4:	3c1f      	subs	r4, #31
  4074f6:	da1c      	bge.n	407532 <__adddf3+0x1d2>
  4074f8:	340c      	adds	r4, #12
  4074fa:	dc0e      	bgt.n	40751a <__adddf3+0x1ba>
  4074fc:	f104 0414 	add.w	r4, r4, #20
  407500:	f1c4 0220 	rsb	r2, r4, #32
  407504:	fa20 f004 	lsr.w	r0, r0, r4
  407508:	fa01 f302 	lsl.w	r3, r1, r2
  40750c:	ea40 0003 	orr.w	r0, r0, r3
  407510:	fa21 f304 	lsr.w	r3, r1, r4
  407514:	ea45 0103 	orr.w	r1, r5, r3
  407518:	bd30      	pop	{r4, r5, pc}
  40751a:	f1c4 040c 	rsb	r4, r4, #12
  40751e:	f1c4 0220 	rsb	r2, r4, #32
  407522:	fa20 f002 	lsr.w	r0, r0, r2
  407526:	fa01 f304 	lsl.w	r3, r1, r4
  40752a:	ea40 0003 	orr.w	r0, r0, r3
  40752e:	4629      	mov	r1, r5
  407530:	bd30      	pop	{r4, r5, pc}
  407532:	fa21 f004 	lsr.w	r0, r1, r4
  407536:	4629      	mov	r1, r5
  407538:	bd30      	pop	{r4, r5, pc}
  40753a:	f094 0f00 	teq	r4, #0
  40753e:	f483 1380 	eor.w	r3, r3, #1048576	; 0x100000
  407542:	bf06      	itte	eq
  407544:	f481 1180 	eoreq.w	r1, r1, #1048576	; 0x100000
  407548:	3401      	addeq	r4, #1
  40754a:	3d01      	subne	r5, #1
  40754c:	e74e      	b.n	4073ec <__adddf3+0x8c>
  40754e:	ea7f 5c64 	mvns.w	ip, r4, asr #21
  407552:	bf18      	it	ne
  407554:	ea7f 5c65 	mvnsne.w	ip, r5, asr #21
  407558:	d029      	beq.n	4075ae <__adddf3+0x24e>
  40755a:	ea94 0f05 	teq	r4, r5
  40755e:	bf08      	it	eq
  407560:	ea90 0f02 	teqeq	r0, r2
  407564:	d005      	beq.n	407572 <__adddf3+0x212>
  407566:	ea54 0c00 	orrs.w	ip, r4, r0
  40756a:	bf04      	itt	eq
  40756c:	4619      	moveq	r1, r3
  40756e:	4610      	moveq	r0, r2
  407570:	bd30      	pop	{r4, r5, pc}
  407572:	ea91 0f03 	teq	r1, r3
  407576:	bf1e      	ittt	ne
  407578:	2100      	movne	r1, #0
  40757a:	2000      	movne	r0, #0
  40757c:	bd30      	popne	{r4, r5, pc}
  40757e:	ea5f 5c54 	movs.w	ip, r4, lsr #21
  407582:	d105      	bne.n	407590 <__adddf3+0x230>
  407584:	0040      	lsls	r0, r0, #1
  407586:	4149      	adcs	r1, r1
  407588:	bf28      	it	cs
  40758a:	f041 4100 	orrcs.w	r1, r1, #2147483648	; 0x80000000
  40758e:	bd30      	pop	{r4, r5, pc}
  407590:	f514 0480 	adds.w	r4, r4, #4194304	; 0x400000
  407594:	bf3c      	itt	cc
  407596:	f501 1180 	addcc.w	r1, r1, #1048576	; 0x100000
  40759a:	bd30      	popcc	{r4, r5, pc}
  40759c:	f001 4500 	and.w	r5, r1, #2147483648	; 0x80000000
  4075a0:	f045 41fe 	orr.w	r1, r5, #2130706432	; 0x7f000000
  4075a4:	f441 0170 	orr.w	r1, r1, #15728640	; 0xf00000
  4075a8:	f04f 0000 	mov.w	r0, #0
  4075ac:	bd30      	pop	{r4, r5, pc}
  4075ae:	ea7f 5c64 	mvns.w	ip, r4, asr #21
  4075b2:	bf1a      	itte	ne
  4075b4:	4619      	movne	r1, r3
  4075b6:	4610      	movne	r0, r2
  4075b8:	ea7f 5c65 	mvnseq.w	ip, r5, asr #21
  4075bc:	bf1c      	itt	ne
  4075be:	460b      	movne	r3, r1
  4075c0:	4602      	movne	r2, r0
  4075c2:	ea50 3401 	orrs.w	r4, r0, r1, lsl #12
  4075c6:	bf06      	itte	eq
  4075c8:	ea52 3503 	orrseq.w	r5, r2, r3, lsl #12
  4075cc:	ea91 0f03 	teqeq	r1, r3
  4075d0:	f441 2100 	orrne.w	r1, r1, #524288	; 0x80000
  4075d4:	bd30      	pop	{r4, r5, pc}
  4075d6:	bf00      	nop

004075d8 <__aeabi_ui2d>:
  4075d8:	f090 0f00 	teq	r0, #0
  4075dc:	bf04      	itt	eq
  4075de:	2100      	moveq	r1, #0
  4075e0:	4770      	bxeq	lr
  4075e2:	b530      	push	{r4, r5, lr}
  4075e4:	f44f 6480 	mov.w	r4, #1024	; 0x400
  4075e8:	f104 0432 	add.w	r4, r4, #50	; 0x32
  4075ec:	f04f 0500 	mov.w	r5, #0
  4075f0:	f04f 0100 	mov.w	r1, #0
  4075f4:	e750      	b.n	407498 <__adddf3+0x138>
  4075f6:	bf00      	nop

004075f8 <__aeabi_i2d>:
  4075f8:	f090 0f00 	teq	r0, #0
  4075fc:	bf04      	itt	eq
  4075fe:	2100      	moveq	r1, #0
  407600:	4770      	bxeq	lr
  407602:	b530      	push	{r4, r5, lr}
  407604:	f44f 6480 	mov.w	r4, #1024	; 0x400
  407608:	f104 0432 	add.w	r4, r4, #50	; 0x32
  40760c:	f010 4500 	ands.w	r5, r0, #2147483648	; 0x80000000
  407610:	bf48      	it	mi
  407612:	4240      	negmi	r0, r0
  407614:	f04f 0100 	mov.w	r1, #0
  407618:	e73e      	b.n	407498 <__adddf3+0x138>
  40761a:	bf00      	nop

0040761c <__aeabi_f2d>:
  40761c:	0042      	lsls	r2, r0, #1
  40761e:	ea4f 01e2 	mov.w	r1, r2, asr #3
  407622:	ea4f 0131 	mov.w	r1, r1, rrx
  407626:	ea4f 7002 	mov.w	r0, r2, lsl #28
  40762a:	bf1f      	itttt	ne
  40762c:	f012 437f 	andsne.w	r3, r2, #4278190080	; 0xff000000
  407630:	f093 4f7f 	teqne	r3, #4278190080	; 0xff000000
  407634:	f081 5160 	eorne.w	r1, r1, #939524096	; 0x38000000
  407638:	4770      	bxne	lr
  40763a:	f092 0f00 	teq	r2, #0
  40763e:	bf14      	ite	ne
  407640:	f093 4f7f 	teqne	r3, #4278190080	; 0xff000000
  407644:	4770      	bxeq	lr
  407646:	b530      	push	{r4, r5, lr}
  407648:	f44f 7460 	mov.w	r4, #896	; 0x380
  40764c:	f001 4500 	and.w	r5, r1, #2147483648	; 0x80000000
  407650:	f021 4100 	bic.w	r1, r1, #2147483648	; 0x80000000
  407654:	e720      	b.n	407498 <__adddf3+0x138>
  407656:	bf00      	nop

00407658 <__aeabi_ul2d>:
  407658:	ea50 0201 	orrs.w	r2, r0, r1
  40765c:	bf08      	it	eq
  40765e:	4770      	bxeq	lr
  407660:	b530      	push	{r4, r5, lr}
  407662:	f04f 0500 	mov.w	r5, #0
  407666:	e00a      	b.n	40767e <__aeabi_l2d+0x16>

00407668 <__aeabi_l2d>:
  407668:	ea50 0201 	orrs.w	r2, r0, r1
  40766c:	bf08      	it	eq
  40766e:	4770      	bxeq	lr
  407670:	b530      	push	{r4, r5, lr}
  407672:	f011 4500 	ands.w	r5, r1, #2147483648	; 0x80000000
  407676:	d502      	bpl.n	40767e <__aeabi_l2d+0x16>
  407678:	4240      	negs	r0, r0
  40767a:	eb61 0141 	sbc.w	r1, r1, r1, lsl #1
  40767e:	f44f 6480 	mov.w	r4, #1024	; 0x400
  407682:	f104 0432 	add.w	r4, r4, #50	; 0x32
  407686:	ea5f 5c91 	movs.w	ip, r1, lsr #22
  40768a:	f43f aedc 	beq.w	407446 <__adddf3+0xe6>
  40768e:	f04f 0203 	mov.w	r2, #3
  407692:	ea5f 0cdc 	movs.w	ip, ip, lsr #3
  407696:	bf18      	it	ne
  407698:	3203      	addne	r2, #3
  40769a:	ea5f 0cdc 	movs.w	ip, ip, lsr #3
  40769e:	bf18      	it	ne
  4076a0:	3203      	addne	r2, #3
  4076a2:	eb02 02dc 	add.w	r2, r2, ip, lsr #3
  4076a6:	f1c2 0320 	rsb	r3, r2, #32
  4076aa:	fa00 fc03 	lsl.w	ip, r0, r3
  4076ae:	fa20 f002 	lsr.w	r0, r0, r2
  4076b2:	fa01 fe03 	lsl.w	lr, r1, r3
  4076b6:	ea40 000e 	orr.w	r0, r0, lr
  4076ba:	fa21 f102 	lsr.w	r1, r1, r2
  4076be:	4414      	add	r4, r2
  4076c0:	e6c1      	b.n	407446 <__adddf3+0xe6>
  4076c2:	bf00      	nop

004076c4 <__aeabi_dmul>:
  4076c4:	b570      	push	{r4, r5, r6, lr}
  4076c6:	f04f 0cff 	mov.w	ip, #255	; 0xff
  4076ca:	f44c 6ce0 	orr.w	ip, ip, #1792	; 0x700
  4076ce:	ea1c 5411 	ands.w	r4, ip, r1, lsr #20
  4076d2:	bf1d      	ittte	ne
  4076d4:	ea1c 5513 	andsne.w	r5, ip, r3, lsr #20
  4076d8:	ea94 0f0c 	teqne	r4, ip
  4076dc:	ea95 0f0c 	teqne	r5, ip
  4076e0:	f000 f8de 	bleq	4078a0 <__aeabi_dmul+0x1dc>
  4076e4:	442c      	add	r4, r5
  4076e6:	ea81 0603 	eor.w	r6, r1, r3
  4076ea:	ea21 514c 	bic.w	r1, r1, ip, lsl #21
  4076ee:	ea23 534c 	bic.w	r3, r3, ip, lsl #21
  4076f2:	ea50 3501 	orrs.w	r5, r0, r1, lsl #12
  4076f6:	bf18      	it	ne
  4076f8:	ea52 3503 	orrsne.w	r5, r2, r3, lsl #12
  4076fc:	f441 1180 	orr.w	r1, r1, #1048576	; 0x100000
  407700:	f443 1380 	orr.w	r3, r3, #1048576	; 0x100000
  407704:	d038      	beq.n	407778 <__aeabi_dmul+0xb4>
  407706:	fba0 ce02 	umull	ip, lr, r0, r2
  40770a:	f04f 0500 	mov.w	r5, #0
  40770e:	fbe1 e502 	umlal	lr, r5, r1, r2
  407712:	f006 4200 	and.w	r2, r6, #2147483648	; 0x80000000
  407716:	fbe0 e503 	umlal	lr, r5, r0, r3
  40771a:	f04f 0600 	mov.w	r6, #0
  40771e:	fbe1 5603 	umlal	r5, r6, r1, r3
  407722:	f09c 0f00 	teq	ip, #0
  407726:	bf18      	it	ne
  407728:	f04e 0e01 	orrne.w	lr, lr, #1
  40772c:	f1a4 04ff 	sub.w	r4, r4, #255	; 0xff
  407730:	f5b6 7f00 	cmp.w	r6, #512	; 0x200
  407734:	f564 7440 	sbc.w	r4, r4, #768	; 0x300
  407738:	d204      	bcs.n	407744 <__aeabi_dmul+0x80>
  40773a:	ea5f 0e4e 	movs.w	lr, lr, lsl #1
  40773e:	416d      	adcs	r5, r5
  407740:	eb46 0606 	adc.w	r6, r6, r6
  407744:	ea42 21c6 	orr.w	r1, r2, r6, lsl #11
  407748:	ea41 5155 	orr.w	r1, r1, r5, lsr #21
  40774c:	ea4f 20c5 	mov.w	r0, r5, lsl #11
  407750:	ea40 505e 	orr.w	r0, r0, lr, lsr #21
  407754:	ea4f 2ece 	mov.w	lr, lr, lsl #11
  407758:	f1b4 0cfd 	subs.w	ip, r4, #253	; 0xfd
  40775c:	bf88      	it	hi
  40775e:	f5bc 6fe0 	cmphi.w	ip, #1792	; 0x700
  407762:	d81e      	bhi.n	4077a2 <__aeabi_dmul+0xde>
  407764:	f1be 4f00 	cmp.w	lr, #2147483648	; 0x80000000
  407768:	bf08      	it	eq
  40776a:	ea5f 0e50 	movseq.w	lr, r0, lsr #1
  40776e:	f150 0000 	adcs.w	r0, r0, #0
  407772:	eb41 5104 	adc.w	r1, r1, r4, lsl #20
  407776:	bd70      	pop	{r4, r5, r6, pc}
  407778:	f006 4600 	and.w	r6, r6, #2147483648	; 0x80000000
  40777c:	ea46 0101 	orr.w	r1, r6, r1
  407780:	ea40 0002 	orr.w	r0, r0, r2
  407784:	ea81 0103 	eor.w	r1, r1, r3
  407788:	ebb4 045c 	subs.w	r4, r4, ip, lsr #1
  40778c:	bfc2      	ittt	gt
  40778e:	ebd4 050c 	rsbsgt	r5, r4, ip
  407792:	ea41 5104 	orrgt.w	r1, r1, r4, lsl #20
  407796:	bd70      	popgt	{r4, r5, r6, pc}
  407798:	f441 1180 	orr.w	r1, r1, #1048576	; 0x100000
  40779c:	f04f 0e00 	mov.w	lr, #0
  4077a0:	3c01      	subs	r4, #1
  4077a2:	f300 80ab 	bgt.w	4078fc <__aeabi_dmul+0x238>
  4077a6:	f114 0f36 	cmn.w	r4, #54	; 0x36
  4077aa:	bfde      	ittt	le
  4077ac:	2000      	movle	r0, #0
  4077ae:	f001 4100 	andle.w	r1, r1, #2147483648	; 0x80000000
  4077b2:	bd70      	pople	{r4, r5, r6, pc}
  4077b4:	f1c4 0400 	rsb	r4, r4, #0
  4077b8:	3c20      	subs	r4, #32
  4077ba:	da35      	bge.n	407828 <__aeabi_dmul+0x164>
  4077bc:	340c      	adds	r4, #12
  4077be:	dc1b      	bgt.n	4077f8 <__aeabi_dmul+0x134>
  4077c0:	f104 0414 	add.w	r4, r4, #20
  4077c4:	f1c4 0520 	rsb	r5, r4, #32
  4077c8:	fa00 f305 	lsl.w	r3, r0, r5
  4077cc:	fa20 f004 	lsr.w	r0, r0, r4
  4077d0:	fa01 f205 	lsl.w	r2, r1, r5
  4077d4:	ea40 0002 	orr.w	r0, r0, r2
  4077d8:	f001 4200 	and.w	r2, r1, #2147483648	; 0x80000000
  4077dc:	f021 4100 	bic.w	r1, r1, #2147483648	; 0x80000000
  4077e0:	eb10 70d3 	adds.w	r0, r0, r3, lsr #31
  4077e4:	fa21 f604 	lsr.w	r6, r1, r4
  4077e8:	eb42 0106 	adc.w	r1, r2, r6
  4077ec:	ea5e 0e43 	orrs.w	lr, lr, r3, lsl #1
  4077f0:	bf08      	it	eq
  4077f2:	ea20 70d3 	biceq.w	r0, r0, r3, lsr #31
  4077f6:	bd70      	pop	{r4, r5, r6, pc}
  4077f8:	f1c4 040c 	rsb	r4, r4, #12
  4077fc:	f1c4 0520 	rsb	r5, r4, #32
  407800:	fa00 f304 	lsl.w	r3, r0, r4
  407804:	fa20 f005 	lsr.w	r0, r0, r5
  407808:	fa01 f204 	lsl.w	r2, r1, r4
  40780c:	ea40 0002 	orr.w	r0, r0, r2
  407810:	f001 4100 	and.w	r1, r1, #2147483648	; 0x80000000
  407814:	eb10 70d3 	adds.w	r0, r0, r3, lsr #31
  407818:	f141 0100 	adc.w	r1, r1, #0
  40781c:	ea5e 0e43 	orrs.w	lr, lr, r3, lsl #1
  407820:	bf08      	it	eq
  407822:	ea20 70d3 	biceq.w	r0, r0, r3, lsr #31
  407826:	bd70      	pop	{r4, r5, r6, pc}
  407828:	f1c4 0520 	rsb	r5, r4, #32
  40782c:	fa00 f205 	lsl.w	r2, r0, r5
  407830:	ea4e 0e02 	orr.w	lr, lr, r2
  407834:	fa20 f304 	lsr.w	r3, r0, r4
  407838:	fa01 f205 	lsl.w	r2, r1, r5
  40783c:	ea43 0302 	orr.w	r3, r3, r2
  407840:	fa21 f004 	lsr.w	r0, r1, r4
  407844:	f001 4100 	and.w	r1, r1, #2147483648	; 0x80000000
  407848:	fa21 f204 	lsr.w	r2, r1, r4
  40784c:	ea20 0002 	bic.w	r0, r0, r2
  407850:	eb00 70d3 	add.w	r0, r0, r3, lsr #31
  407854:	ea5e 0e43 	orrs.w	lr, lr, r3, lsl #1
  407858:	bf08      	it	eq
  40785a:	ea20 70d3 	biceq.w	r0, r0, r3, lsr #31
  40785e:	bd70      	pop	{r4, r5, r6, pc}
  407860:	f094 0f00 	teq	r4, #0
  407864:	d10f      	bne.n	407886 <__aeabi_dmul+0x1c2>
  407866:	f001 4600 	and.w	r6, r1, #2147483648	; 0x80000000
  40786a:	0040      	lsls	r0, r0, #1
  40786c:	eb41 0101 	adc.w	r1, r1, r1
  407870:	f411 1f80 	tst.w	r1, #1048576	; 0x100000
  407874:	bf08      	it	eq
  407876:	3c01      	subeq	r4, #1
  407878:	d0f7      	beq.n	40786a <__aeabi_dmul+0x1a6>
  40787a:	ea41 0106 	orr.w	r1, r1, r6
  40787e:	f095 0f00 	teq	r5, #0
  407882:	bf18      	it	ne
  407884:	4770      	bxne	lr
  407886:	f003 4600 	and.w	r6, r3, #2147483648	; 0x80000000
  40788a:	0052      	lsls	r2, r2, #1
  40788c:	eb43 0303 	adc.w	r3, r3, r3
  407890:	f413 1f80 	tst.w	r3, #1048576	; 0x100000
  407894:	bf08      	it	eq
  407896:	3d01      	subeq	r5, #1
  407898:	d0f7      	beq.n	40788a <__aeabi_dmul+0x1c6>
  40789a:	ea43 0306 	orr.w	r3, r3, r6
  40789e:	4770      	bx	lr
  4078a0:	ea94 0f0c 	teq	r4, ip
  4078a4:	ea0c 5513 	and.w	r5, ip, r3, lsr #20
  4078a8:	bf18      	it	ne
  4078aa:	ea95 0f0c 	teqne	r5, ip
  4078ae:	d00c      	beq.n	4078ca <__aeabi_dmul+0x206>
  4078b0:	ea50 0641 	orrs.w	r6, r0, r1, lsl #1
  4078b4:	bf18      	it	ne
  4078b6:	ea52 0643 	orrsne.w	r6, r2, r3, lsl #1
  4078ba:	d1d1      	bne.n	407860 <__aeabi_dmul+0x19c>
  4078bc:	ea81 0103 	eor.w	r1, r1, r3
  4078c0:	f001 4100 	and.w	r1, r1, #2147483648	; 0x80000000
  4078c4:	f04f 0000 	mov.w	r0, #0
  4078c8:	bd70      	pop	{r4, r5, r6, pc}
  4078ca:	ea50 0641 	orrs.w	r6, r0, r1, lsl #1
  4078ce:	bf06      	itte	eq
  4078d0:	4610      	moveq	r0, r2
  4078d2:	4619      	moveq	r1, r3
  4078d4:	ea52 0643 	orrsne.w	r6, r2, r3, lsl #1
  4078d8:	d019      	beq.n	40790e <__aeabi_dmul+0x24a>
  4078da:	ea94 0f0c 	teq	r4, ip
  4078de:	d102      	bne.n	4078e6 <__aeabi_dmul+0x222>
  4078e0:	ea50 3601 	orrs.w	r6, r0, r1, lsl #12
  4078e4:	d113      	bne.n	40790e <__aeabi_dmul+0x24a>
  4078e6:	ea95 0f0c 	teq	r5, ip
  4078ea:	d105      	bne.n	4078f8 <__aeabi_dmul+0x234>
  4078ec:	ea52 3603 	orrs.w	r6, r2, r3, lsl #12
  4078f0:	bf1c      	itt	ne
  4078f2:	4610      	movne	r0, r2
  4078f4:	4619      	movne	r1, r3
  4078f6:	d10a      	bne.n	40790e <__aeabi_dmul+0x24a>
  4078f8:	ea81 0103 	eor.w	r1, r1, r3
  4078fc:	f001 4100 	and.w	r1, r1, #2147483648	; 0x80000000
  407900:	f041 41fe 	orr.w	r1, r1, #2130706432	; 0x7f000000
  407904:	f441 0170 	orr.w	r1, r1, #15728640	; 0xf00000
  407908:	f04f 0000 	mov.w	r0, #0
  40790c:	bd70      	pop	{r4, r5, r6, pc}
  40790e:	f041 41fe 	orr.w	r1, r1, #2130706432	; 0x7f000000
  407912:	f441 0178 	orr.w	r1, r1, #16252928	; 0xf80000
  407916:	bd70      	pop	{r4, r5, r6, pc}

00407918 <__aeabi_ddiv>:
  407918:	b570      	push	{r4, r5, r6, lr}
  40791a:	f04f 0cff 	mov.w	ip, #255	; 0xff
  40791e:	f44c 6ce0 	orr.w	ip, ip, #1792	; 0x700
  407922:	ea1c 5411 	ands.w	r4, ip, r1, lsr #20
  407926:	bf1d      	ittte	ne
  407928:	ea1c 5513 	andsne.w	r5, ip, r3, lsr #20
  40792c:	ea94 0f0c 	teqne	r4, ip
  407930:	ea95 0f0c 	teqne	r5, ip
  407934:	f000 f8a7 	bleq	407a86 <__aeabi_ddiv+0x16e>
  407938:	eba4 0405 	sub.w	r4, r4, r5
  40793c:	ea81 0e03 	eor.w	lr, r1, r3
  407940:	ea52 3503 	orrs.w	r5, r2, r3, lsl #12
  407944:	ea4f 3101 	mov.w	r1, r1, lsl #12
  407948:	f000 8088 	beq.w	407a5c <__aeabi_ddiv+0x144>
  40794c:	ea4f 3303 	mov.w	r3, r3, lsl #12
  407950:	f04f 5580 	mov.w	r5, #268435456	; 0x10000000
  407954:	ea45 1313 	orr.w	r3, r5, r3, lsr #4
  407958:	ea43 6312 	orr.w	r3, r3, r2, lsr #24
  40795c:	ea4f 2202 	mov.w	r2, r2, lsl #8
  407960:	ea45 1511 	orr.w	r5, r5, r1, lsr #4
  407964:	ea45 6510 	orr.w	r5, r5, r0, lsr #24
  407968:	ea4f 2600 	mov.w	r6, r0, lsl #8
  40796c:	f00e 4100 	and.w	r1, lr, #2147483648	; 0x80000000
  407970:	429d      	cmp	r5, r3
  407972:	bf08      	it	eq
  407974:	4296      	cmpeq	r6, r2
  407976:	f144 04fd 	adc.w	r4, r4, #253	; 0xfd
  40797a:	f504 7440 	add.w	r4, r4, #768	; 0x300
  40797e:	d202      	bcs.n	407986 <__aeabi_ddiv+0x6e>
  407980:	085b      	lsrs	r3, r3, #1
  407982:	ea4f 0232 	mov.w	r2, r2, rrx
  407986:	1ab6      	subs	r6, r6, r2
  407988:	eb65 0503 	sbc.w	r5, r5, r3
  40798c:	085b      	lsrs	r3, r3, #1
  40798e:	ea4f 0232 	mov.w	r2, r2, rrx
  407992:	f44f 1080 	mov.w	r0, #1048576	; 0x100000
  407996:	f44f 2c00 	mov.w	ip, #524288	; 0x80000
  40799a:	ebb6 0e02 	subs.w	lr, r6, r2
  40799e:	eb75 0e03 	sbcs.w	lr, r5, r3
  4079a2:	bf22      	ittt	cs
  4079a4:	1ab6      	subcs	r6, r6, r2
  4079a6:	4675      	movcs	r5, lr
  4079a8:	ea40 000c 	orrcs.w	r0, r0, ip
  4079ac:	085b      	lsrs	r3, r3, #1
  4079ae:	ea4f 0232 	mov.w	r2, r2, rrx
  4079b2:	ebb6 0e02 	subs.w	lr, r6, r2
  4079b6:	eb75 0e03 	sbcs.w	lr, r5, r3
  4079ba:	bf22      	ittt	cs
  4079bc:	1ab6      	subcs	r6, r6, r2
  4079be:	4675      	movcs	r5, lr
  4079c0:	ea40 005c 	orrcs.w	r0, r0, ip, lsr #1
  4079c4:	085b      	lsrs	r3, r3, #1
  4079c6:	ea4f 0232 	mov.w	r2, r2, rrx
  4079ca:	ebb6 0e02 	subs.w	lr, r6, r2
  4079ce:	eb75 0e03 	sbcs.w	lr, r5, r3
  4079d2:	bf22      	ittt	cs
  4079d4:	1ab6      	subcs	r6, r6, r2
  4079d6:	4675      	movcs	r5, lr
  4079d8:	ea40 009c 	orrcs.w	r0, r0, ip, lsr #2
  4079dc:	085b      	lsrs	r3, r3, #1
  4079de:	ea4f 0232 	mov.w	r2, r2, rrx
  4079e2:	ebb6 0e02 	subs.w	lr, r6, r2
  4079e6:	eb75 0e03 	sbcs.w	lr, r5, r3
  4079ea:	bf22      	ittt	cs
  4079ec:	1ab6      	subcs	r6, r6, r2
  4079ee:	4675      	movcs	r5, lr
  4079f0:	ea40 00dc 	orrcs.w	r0, r0, ip, lsr #3
  4079f4:	ea55 0e06 	orrs.w	lr, r5, r6
  4079f8:	d018      	beq.n	407a2c <__aeabi_ddiv+0x114>
  4079fa:	ea4f 1505 	mov.w	r5, r5, lsl #4
  4079fe:	ea45 7516 	orr.w	r5, r5, r6, lsr #28
  407a02:	ea4f 1606 	mov.w	r6, r6, lsl #4
  407a06:	ea4f 03c3 	mov.w	r3, r3, lsl #3
  407a0a:	ea43 7352 	orr.w	r3, r3, r2, lsr #29
  407a0e:	ea4f 02c2 	mov.w	r2, r2, lsl #3
  407a12:	ea5f 1c1c 	movs.w	ip, ip, lsr #4
  407a16:	d1c0      	bne.n	40799a <__aeabi_ddiv+0x82>
  407a18:	f411 1f80 	tst.w	r1, #1048576	; 0x100000
  407a1c:	d10b      	bne.n	407a36 <__aeabi_ddiv+0x11e>
  407a1e:	ea41 0100 	orr.w	r1, r1, r0
  407a22:	f04f 0000 	mov.w	r0, #0
  407a26:	f04f 4c00 	mov.w	ip, #2147483648	; 0x80000000
  407a2a:	e7b6      	b.n	40799a <__aeabi_ddiv+0x82>
  407a2c:	f411 1f80 	tst.w	r1, #1048576	; 0x100000
  407a30:	bf04      	itt	eq
  407a32:	4301      	orreq	r1, r0
  407a34:	2000      	moveq	r0, #0
  407a36:	f1b4 0cfd 	subs.w	ip, r4, #253	; 0xfd
  407a3a:	bf88      	it	hi
  407a3c:	f5bc 6fe0 	cmphi.w	ip, #1792	; 0x700
  407a40:	f63f aeaf 	bhi.w	4077a2 <__aeabi_dmul+0xde>
  407a44:	ebb5 0c03 	subs.w	ip, r5, r3
  407a48:	bf04      	itt	eq
  407a4a:	ebb6 0c02 	subseq.w	ip, r6, r2
  407a4e:	ea5f 0c50 	movseq.w	ip, r0, lsr #1
  407a52:	f150 0000 	adcs.w	r0, r0, #0
  407a56:	eb41 5104 	adc.w	r1, r1, r4, lsl #20
  407a5a:	bd70      	pop	{r4, r5, r6, pc}
  407a5c:	f00e 4e00 	and.w	lr, lr, #2147483648	; 0x80000000
  407a60:	ea4e 3111 	orr.w	r1, lr, r1, lsr #12
  407a64:	eb14 045c 	adds.w	r4, r4, ip, lsr #1
  407a68:	bfc2      	ittt	gt
  407a6a:	ebd4 050c 	rsbsgt	r5, r4, ip
  407a6e:	ea41 5104 	orrgt.w	r1, r1, r4, lsl #20
  407a72:	bd70      	popgt	{r4, r5, r6, pc}
  407a74:	f441 1180 	orr.w	r1, r1, #1048576	; 0x100000
  407a78:	f04f 0e00 	mov.w	lr, #0
  407a7c:	3c01      	subs	r4, #1
  407a7e:	e690      	b.n	4077a2 <__aeabi_dmul+0xde>
  407a80:	ea45 0e06 	orr.w	lr, r5, r6
  407a84:	e68d      	b.n	4077a2 <__aeabi_dmul+0xde>
  407a86:	ea0c 5513 	and.w	r5, ip, r3, lsr #20
  407a8a:	ea94 0f0c 	teq	r4, ip
  407a8e:	bf08      	it	eq
  407a90:	ea95 0f0c 	teqeq	r5, ip
  407a94:	f43f af3b 	beq.w	40790e <__aeabi_dmul+0x24a>
  407a98:	ea94 0f0c 	teq	r4, ip
  407a9c:	d10a      	bne.n	407ab4 <__aeabi_ddiv+0x19c>
  407a9e:	ea50 3401 	orrs.w	r4, r0, r1, lsl #12
  407aa2:	f47f af34 	bne.w	40790e <__aeabi_dmul+0x24a>
  407aa6:	ea95 0f0c 	teq	r5, ip
  407aaa:	f47f af25 	bne.w	4078f8 <__aeabi_dmul+0x234>
  407aae:	4610      	mov	r0, r2
  407ab0:	4619      	mov	r1, r3
  407ab2:	e72c      	b.n	40790e <__aeabi_dmul+0x24a>
  407ab4:	ea95 0f0c 	teq	r5, ip
  407ab8:	d106      	bne.n	407ac8 <__aeabi_ddiv+0x1b0>
  407aba:	ea52 3503 	orrs.w	r5, r2, r3, lsl #12
  407abe:	f43f aefd 	beq.w	4078bc <__aeabi_dmul+0x1f8>
  407ac2:	4610      	mov	r0, r2
  407ac4:	4619      	mov	r1, r3
  407ac6:	e722      	b.n	40790e <__aeabi_dmul+0x24a>
  407ac8:	ea50 0641 	orrs.w	r6, r0, r1, lsl #1
  407acc:	bf18      	it	ne
  407ace:	ea52 0643 	orrsne.w	r6, r2, r3, lsl #1
  407ad2:	f47f aec5 	bne.w	407860 <__aeabi_dmul+0x19c>
  407ad6:	ea50 0441 	orrs.w	r4, r0, r1, lsl #1
  407ada:	f47f af0d 	bne.w	4078f8 <__aeabi_dmul+0x234>
  407ade:	ea52 0543 	orrs.w	r5, r2, r3, lsl #1
  407ae2:	f47f aeeb 	bne.w	4078bc <__aeabi_dmul+0x1f8>
  407ae6:	e712      	b.n	40790e <__aeabi_dmul+0x24a>

00407ae8 <__gedf2>:
  407ae8:	f04f 3cff 	mov.w	ip, #4294967295
  407aec:	e006      	b.n	407afc <__cmpdf2+0x4>
  407aee:	bf00      	nop

00407af0 <__ledf2>:
  407af0:	f04f 0c01 	mov.w	ip, #1
  407af4:	e002      	b.n	407afc <__cmpdf2+0x4>
  407af6:	bf00      	nop

00407af8 <__cmpdf2>:
  407af8:	f04f 0c01 	mov.w	ip, #1
  407afc:	f84d cd04 	str.w	ip, [sp, #-4]!
  407b00:	ea4f 0c41 	mov.w	ip, r1, lsl #1
  407b04:	ea7f 5c6c 	mvns.w	ip, ip, asr #21
  407b08:	ea4f 0c43 	mov.w	ip, r3, lsl #1
  407b0c:	bf18      	it	ne
  407b0e:	ea7f 5c6c 	mvnsne.w	ip, ip, asr #21
  407b12:	d01b      	beq.n	407b4c <__cmpdf2+0x54>
  407b14:	b001      	add	sp, #4
  407b16:	ea50 0c41 	orrs.w	ip, r0, r1, lsl #1
  407b1a:	bf0c      	ite	eq
  407b1c:	ea52 0c43 	orrseq.w	ip, r2, r3, lsl #1
  407b20:	ea91 0f03 	teqne	r1, r3
  407b24:	bf02      	ittt	eq
  407b26:	ea90 0f02 	teqeq	r0, r2
  407b2a:	2000      	moveq	r0, #0
  407b2c:	4770      	bxeq	lr
  407b2e:	f110 0f00 	cmn.w	r0, #0
  407b32:	ea91 0f03 	teq	r1, r3
  407b36:	bf58      	it	pl
  407b38:	4299      	cmppl	r1, r3
  407b3a:	bf08      	it	eq
  407b3c:	4290      	cmpeq	r0, r2
  407b3e:	bf2c      	ite	cs
  407b40:	17d8      	asrcs	r0, r3, #31
  407b42:	ea6f 70e3 	mvncc.w	r0, r3, asr #31
  407b46:	f040 0001 	orr.w	r0, r0, #1
  407b4a:	4770      	bx	lr
  407b4c:	ea4f 0c41 	mov.w	ip, r1, lsl #1
  407b50:	ea7f 5c6c 	mvns.w	ip, ip, asr #21
  407b54:	d102      	bne.n	407b5c <__cmpdf2+0x64>
  407b56:	ea50 3c01 	orrs.w	ip, r0, r1, lsl #12
  407b5a:	d107      	bne.n	407b6c <__cmpdf2+0x74>
  407b5c:	ea4f 0c43 	mov.w	ip, r3, lsl #1
  407b60:	ea7f 5c6c 	mvns.w	ip, ip, asr #21
  407b64:	d1d6      	bne.n	407b14 <__cmpdf2+0x1c>
  407b66:	ea52 3c03 	orrs.w	ip, r2, r3, lsl #12
  407b6a:	d0d3      	beq.n	407b14 <__cmpdf2+0x1c>
  407b6c:	f85d 0b04 	ldr.w	r0, [sp], #4
  407b70:	4770      	bx	lr
  407b72:	bf00      	nop

00407b74 <__aeabi_cdrcmple>:
  407b74:	4684      	mov	ip, r0
  407b76:	4610      	mov	r0, r2
  407b78:	4662      	mov	r2, ip
  407b7a:	468c      	mov	ip, r1
  407b7c:	4619      	mov	r1, r3
  407b7e:	4663      	mov	r3, ip
  407b80:	e000      	b.n	407b84 <__aeabi_cdcmpeq>
  407b82:	bf00      	nop

00407b84 <__aeabi_cdcmpeq>:
  407b84:	b501      	push	{r0, lr}
  407b86:	f7ff ffb7 	bl	407af8 <__cmpdf2>
  407b8a:	2800      	cmp	r0, #0
  407b8c:	bf48      	it	mi
  407b8e:	f110 0f00 	cmnmi.w	r0, #0
  407b92:	bd01      	pop	{r0, pc}

00407b94 <__aeabi_dcmpeq>:
  407b94:	f84d ed08 	str.w	lr, [sp, #-8]!
  407b98:	f7ff fff4 	bl	407b84 <__aeabi_cdcmpeq>
  407b9c:	bf0c      	ite	eq
  407b9e:	2001      	moveq	r0, #1
  407ba0:	2000      	movne	r0, #0
  407ba2:	f85d fb08 	ldr.w	pc, [sp], #8
  407ba6:	bf00      	nop

00407ba8 <__aeabi_dcmplt>:
  407ba8:	f84d ed08 	str.w	lr, [sp, #-8]!
  407bac:	f7ff ffea 	bl	407b84 <__aeabi_cdcmpeq>
  407bb0:	bf34      	ite	cc
  407bb2:	2001      	movcc	r0, #1
  407bb4:	2000      	movcs	r0, #0
  407bb6:	f85d fb08 	ldr.w	pc, [sp], #8
  407bba:	bf00      	nop

00407bbc <__aeabi_dcmple>:
  407bbc:	f84d ed08 	str.w	lr, [sp, #-8]!
  407bc0:	f7ff ffe0 	bl	407b84 <__aeabi_cdcmpeq>
  407bc4:	bf94      	ite	ls
  407bc6:	2001      	movls	r0, #1
  407bc8:	2000      	movhi	r0, #0
  407bca:	f85d fb08 	ldr.w	pc, [sp], #8
  407bce:	bf00      	nop

00407bd0 <__aeabi_dcmpge>:
  407bd0:	f84d ed08 	str.w	lr, [sp, #-8]!
  407bd4:	f7ff ffce 	bl	407b74 <__aeabi_cdrcmple>
  407bd8:	bf94      	ite	ls
  407bda:	2001      	movls	r0, #1
  407bdc:	2000      	movhi	r0, #0
  407bde:	f85d fb08 	ldr.w	pc, [sp], #8
  407be2:	bf00      	nop

00407be4 <__aeabi_dcmpgt>:
  407be4:	f84d ed08 	str.w	lr, [sp, #-8]!
  407be8:	f7ff ffc4 	bl	407b74 <__aeabi_cdrcmple>
  407bec:	bf34      	ite	cc
  407bee:	2001      	movcc	r0, #1
  407bf0:	2000      	movcs	r0, #0
  407bf2:	f85d fb08 	ldr.w	pc, [sp], #8
  407bf6:	bf00      	nop

00407bf8 <__aeabi_dcmpun>:
  407bf8:	ea4f 0c41 	mov.w	ip, r1, lsl #1
  407bfc:	ea7f 5c6c 	mvns.w	ip, ip, asr #21
  407c00:	d102      	bne.n	407c08 <__aeabi_dcmpun+0x10>
  407c02:	ea50 3c01 	orrs.w	ip, r0, r1, lsl #12
  407c06:	d10a      	bne.n	407c1e <__aeabi_dcmpun+0x26>
  407c08:	ea4f 0c43 	mov.w	ip, r3, lsl #1
  407c0c:	ea7f 5c6c 	mvns.w	ip, ip, asr #21
  407c10:	d102      	bne.n	407c18 <__aeabi_dcmpun+0x20>
  407c12:	ea52 3c03 	orrs.w	ip, r2, r3, lsl #12
  407c16:	d102      	bne.n	407c1e <__aeabi_dcmpun+0x26>
  407c18:	f04f 0000 	mov.w	r0, #0
  407c1c:	4770      	bx	lr
  407c1e:	f04f 0001 	mov.w	r0, #1
  407c22:	4770      	bx	lr

00407c24 <__aeabi_d2iz>:
  407c24:	ea4f 0241 	mov.w	r2, r1, lsl #1
  407c28:	f512 1200 	adds.w	r2, r2, #2097152	; 0x200000
  407c2c:	d215      	bcs.n	407c5a <__aeabi_d2iz+0x36>
  407c2e:	d511      	bpl.n	407c54 <__aeabi_d2iz+0x30>
  407c30:	f46f 7378 	mvn.w	r3, #992	; 0x3e0
  407c34:	ebb3 5262 	subs.w	r2, r3, r2, asr #21
  407c38:	d912      	bls.n	407c60 <__aeabi_d2iz+0x3c>
  407c3a:	ea4f 23c1 	mov.w	r3, r1, lsl #11
  407c3e:	f043 4300 	orr.w	r3, r3, #2147483648	; 0x80000000
  407c42:	ea43 5350 	orr.w	r3, r3, r0, lsr #21
  407c46:	f011 4f00 	tst.w	r1, #2147483648	; 0x80000000
  407c4a:	fa23 f002 	lsr.w	r0, r3, r2
  407c4e:	bf18      	it	ne
  407c50:	4240      	negne	r0, r0
  407c52:	4770      	bx	lr
  407c54:	f04f 0000 	mov.w	r0, #0
  407c58:	4770      	bx	lr
  407c5a:	ea50 3001 	orrs.w	r0, r0, r1, lsl #12
  407c5e:	d105      	bne.n	407c6c <__aeabi_d2iz+0x48>
  407c60:	f011 4000 	ands.w	r0, r1, #2147483648	; 0x80000000
  407c64:	bf08      	it	eq
  407c66:	f06f 4000 	mvneq.w	r0, #2147483648	; 0x80000000
  407c6a:	4770      	bx	lr
  407c6c:	f04f 0000 	mov.w	r0, #0
  407c70:	4770      	bx	lr
  407c72:	bf00      	nop

00407c74 <__aeabi_uldivmod>:
  407c74:	b953      	cbnz	r3, 407c8c <__aeabi_uldivmod+0x18>
  407c76:	b94a      	cbnz	r2, 407c8c <__aeabi_uldivmod+0x18>
  407c78:	2900      	cmp	r1, #0
  407c7a:	bf08      	it	eq
  407c7c:	2800      	cmpeq	r0, #0
  407c7e:	bf1c      	itt	ne
  407c80:	f04f 31ff 	movne.w	r1, #4294967295
  407c84:	f04f 30ff 	movne.w	r0, #4294967295
  407c88:	f000 b97a 	b.w	407f80 <__aeabi_idiv0>
  407c8c:	f1ad 0c08 	sub.w	ip, sp, #8
  407c90:	e96d ce04 	strd	ip, lr, [sp, #-16]!
  407c94:	f000 f806 	bl	407ca4 <__udivmoddi4>
  407c98:	f8dd e004 	ldr.w	lr, [sp, #4]
  407c9c:	e9dd 2302 	ldrd	r2, r3, [sp, #8]
  407ca0:	b004      	add	sp, #16
  407ca2:	4770      	bx	lr

00407ca4 <__udivmoddi4>:
  407ca4:	e92d 47f0 	stmdb	sp!, {r4, r5, r6, r7, r8, r9, sl, lr}
  407ca8:	468c      	mov	ip, r1
  407caa:	460d      	mov	r5, r1
  407cac:	4604      	mov	r4, r0
  407cae:	9e08      	ldr	r6, [sp, #32]
  407cb0:	2b00      	cmp	r3, #0
  407cb2:	d151      	bne.n	407d58 <__udivmoddi4+0xb4>
  407cb4:	428a      	cmp	r2, r1
  407cb6:	4617      	mov	r7, r2
  407cb8:	d96d      	bls.n	407d96 <__udivmoddi4+0xf2>
  407cba:	fab2 fe82 	clz	lr, r2
  407cbe:	f1be 0f00 	cmp.w	lr, #0
  407cc2:	d00b      	beq.n	407cdc <__udivmoddi4+0x38>
  407cc4:	f1ce 0c20 	rsb	ip, lr, #32
  407cc8:	fa01 f50e 	lsl.w	r5, r1, lr
  407ccc:	fa20 fc0c 	lsr.w	ip, r0, ip
  407cd0:	fa02 f70e 	lsl.w	r7, r2, lr
  407cd4:	ea4c 0c05 	orr.w	ip, ip, r5
  407cd8:	fa00 f40e 	lsl.w	r4, r0, lr
  407cdc:	ea4f 4a17 	mov.w	sl, r7, lsr #16
  407ce0:	0c25      	lsrs	r5, r4, #16
  407ce2:	fbbc f8fa 	udiv	r8, ip, sl
  407ce6:	fa1f f987 	uxth.w	r9, r7
  407cea:	fb0a cc18 	mls	ip, sl, r8, ip
  407cee:	ea45 450c 	orr.w	r5, r5, ip, lsl #16
  407cf2:	fb08 f309 	mul.w	r3, r8, r9
  407cf6:	42ab      	cmp	r3, r5
  407cf8:	d90a      	bls.n	407d10 <__udivmoddi4+0x6c>
  407cfa:	19ed      	adds	r5, r5, r7
  407cfc:	f108 32ff 	add.w	r2, r8, #4294967295
  407d00:	f080 8123 	bcs.w	407f4a <__udivmoddi4+0x2a6>
  407d04:	42ab      	cmp	r3, r5
  407d06:	f240 8120 	bls.w	407f4a <__udivmoddi4+0x2a6>
  407d0a:	f1a8 0802 	sub.w	r8, r8, #2
  407d0e:	443d      	add	r5, r7
  407d10:	1aed      	subs	r5, r5, r3
  407d12:	b2a4      	uxth	r4, r4
  407d14:	fbb5 f0fa 	udiv	r0, r5, sl
  407d18:	fb0a 5510 	mls	r5, sl, r0, r5
  407d1c:	ea44 4405 	orr.w	r4, r4, r5, lsl #16
  407d20:	fb00 f909 	mul.w	r9, r0, r9
  407d24:	45a1      	cmp	r9, r4
  407d26:	d909      	bls.n	407d3c <__udivmoddi4+0x98>
  407d28:	19e4      	adds	r4, r4, r7
  407d2a:	f100 33ff 	add.w	r3, r0, #4294967295
  407d2e:	f080 810a 	bcs.w	407f46 <__udivmoddi4+0x2a2>
  407d32:	45a1      	cmp	r9, r4
  407d34:	f240 8107 	bls.w	407f46 <__udivmoddi4+0x2a2>
  407d38:	3802      	subs	r0, #2
  407d3a:	443c      	add	r4, r7
  407d3c:	eba4 0409 	sub.w	r4, r4, r9
  407d40:	ea40 4008 	orr.w	r0, r0, r8, lsl #16
  407d44:	2100      	movs	r1, #0
  407d46:	2e00      	cmp	r6, #0
  407d48:	d061      	beq.n	407e0e <__udivmoddi4+0x16a>
  407d4a:	fa24 f40e 	lsr.w	r4, r4, lr
  407d4e:	2300      	movs	r3, #0
  407d50:	6034      	str	r4, [r6, #0]
  407d52:	6073      	str	r3, [r6, #4]
  407d54:	e8bd 87f0 	ldmia.w	sp!, {r4, r5, r6, r7, r8, r9, sl, pc}
  407d58:	428b      	cmp	r3, r1
  407d5a:	d907      	bls.n	407d6c <__udivmoddi4+0xc8>
  407d5c:	2e00      	cmp	r6, #0
  407d5e:	d054      	beq.n	407e0a <__udivmoddi4+0x166>
  407d60:	2100      	movs	r1, #0
  407d62:	e886 0021 	stmia.w	r6, {r0, r5}
  407d66:	4608      	mov	r0, r1
  407d68:	e8bd 87f0 	ldmia.w	sp!, {r4, r5, r6, r7, r8, r9, sl, pc}
  407d6c:	fab3 f183 	clz	r1, r3
  407d70:	2900      	cmp	r1, #0
  407d72:	f040 808e 	bne.w	407e92 <__udivmoddi4+0x1ee>
  407d76:	42ab      	cmp	r3, r5
  407d78:	d302      	bcc.n	407d80 <__udivmoddi4+0xdc>
  407d7a:	4282      	cmp	r2, r0
  407d7c:	f200 80fa 	bhi.w	407f74 <__udivmoddi4+0x2d0>
  407d80:	1a84      	subs	r4, r0, r2
  407d82:	eb65 0503 	sbc.w	r5, r5, r3
  407d86:	2001      	movs	r0, #1
  407d88:	46ac      	mov	ip, r5
  407d8a:	2e00      	cmp	r6, #0
  407d8c:	d03f      	beq.n	407e0e <__udivmoddi4+0x16a>
  407d8e:	e886 1010 	stmia.w	r6, {r4, ip}
  407d92:	e8bd 87f0 	ldmia.w	sp!, {r4, r5, r6, r7, r8, r9, sl, pc}
  407d96:	b912      	cbnz	r2, 407d9e <__udivmoddi4+0xfa>
  407d98:	2701      	movs	r7, #1
  407d9a:	fbb7 f7f2 	udiv	r7, r7, r2
  407d9e:	fab7 fe87 	clz	lr, r7
  407da2:	f1be 0f00 	cmp.w	lr, #0
  407da6:	d134      	bne.n	407e12 <__udivmoddi4+0x16e>
  407da8:	1beb      	subs	r3, r5, r7
  407daa:	0c3a      	lsrs	r2, r7, #16
  407dac:	fa1f fc87 	uxth.w	ip, r7
  407db0:	2101      	movs	r1, #1
  407db2:	fbb3 f8f2 	udiv	r8, r3, r2
  407db6:	0c25      	lsrs	r5, r4, #16
  407db8:	fb02 3318 	mls	r3, r2, r8, r3
  407dbc:	ea45 4503 	orr.w	r5, r5, r3, lsl #16
  407dc0:	fb0c f308 	mul.w	r3, ip, r8
  407dc4:	42ab      	cmp	r3, r5
  407dc6:	d907      	bls.n	407dd8 <__udivmoddi4+0x134>
  407dc8:	19ed      	adds	r5, r5, r7
  407dca:	f108 30ff 	add.w	r0, r8, #4294967295
  407dce:	d202      	bcs.n	407dd6 <__udivmoddi4+0x132>
  407dd0:	42ab      	cmp	r3, r5
  407dd2:	f200 80d1 	bhi.w	407f78 <__udivmoddi4+0x2d4>
  407dd6:	4680      	mov	r8, r0
  407dd8:	1aed      	subs	r5, r5, r3
  407dda:	b2a3      	uxth	r3, r4
  407ddc:	fbb5 f0f2 	udiv	r0, r5, r2
  407de0:	fb02 5510 	mls	r5, r2, r0, r5
  407de4:	ea43 4405 	orr.w	r4, r3, r5, lsl #16
  407de8:	fb0c fc00 	mul.w	ip, ip, r0
  407dec:	45a4      	cmp	ip, r4
  407dee:	d907      	bls.n	407e00 <__udivmoddi4+0x15c>
  407df0:	19e4      	adds	r4, r4, r7
  407df2:	f100 33ff 	add.w	r3, r0, #4294967295
  407df6:	d202      	bcs.n	407dfe <__udivmoddi4+0x15a>
  407df8:	45a4      	cmp	ip, r4
  407dfa:	f200 80b8 	bhi.w	407f6e <__udivmoddi4+0x2ca>
  407dfe:	4618      	mov	r0, r3
  407e00:	eba4 040c 	sub.w	r4, r4, ip
  407e04:	ea40 4008 	orr.w	r0, r0, r8, lsl #16
  407e08:	e79d      	b.n	407d46 <__udivmoddi4+0xa2>
  407e0a:	4631      	mov	r1, r6
  407e0c:	4630      	mov	r0, r6
  407e0e:	e8bd 87f0 	ldmia.w	sp!, {r4, r5, r6, r7, r8, r9, sl, pc}
  407e12:	f1ce 0420 	rsb	r4, lr, #32
  407e16:	fa05 f30e 	lsl.w	r3, r5, lr
  407e1a:	fa07 f70e 	lsl.w	r7, r7, lr
  407e1e:	fa20 f804 	lsr.w	r8, r0, r4
  407e22:	0c3a      	lsrs	r2, r7, #16
  407e24:	fa25 f404 	lsr.w	r4, r5, r4
  407e28:	ea48 0803 	orr.w	r8, r8, r3
  407e2c:	fbb4 f1f2 	udiv	r1, r4, r2
  407e30:	ea4f 4518 	mov.w	r5, r8, lsr #16
  407e34:	fb02 4411 	mls	r4, r2, r1, r4
  407e38:	fa1f fc87 	uxth.w	ip, r7
  407e3c:	ea45 4504 	orr.w	r5, r5, r4, lsl #16
  407e40:	fb01 f30c 	mul.w	r3, r1, ip
  407e44:	42ab      	cmp	r3, r5
  407e46:	fa00 f40e 	lsl.w	r4, r0, lr
  407e4a:	d909      	bls.n	407e60 <__udivmoddi4+0x1bc>
  407e4c:	19ed      	adds	r5, r5, r7
  407e4e:	f101 30ff 	add.w	r0, r1, #4294967295
  407e52:	f080 808a 	bcs.w	407f6a <__udivmoddi4+0x2c6>
  407e56:	42ab      	cmp	r3, r5
  407e58:	f240 8087 	bls.w	407f6a <__udivmoddi4+0x2c6>
  407e5c:	3902      	subs	r1, #2
  407e5e:	443d      	add	r5, r7
  407e60:	1aeb      	subs	r3, r5, r3
  407e62:	fa1f f588 	uxth.w	r5, r8
  407e66:	fbb3 f0f2 	udiv	r0, r3, r2
  407e6a:	fb02 3310 	mls	r3, r2, r0, r3
  407e6e:	ea45 4503 	orr.w	r5, r5, r3, lsl #16
  407e72:	fb00 f30c 	mul.w	r3, r0, ip
  407e76:	42ab      	cmp	r3, r5
  407e78:	d907      	bls.n	407e8a <__udivmoddi4+0x1e6>
  407e7a:	19ed      	adds	r5, r5, r7
  407e7c:	f100 38ff 	add.w	r8, r0, #4294967295
  407e80:	d26f      	bcs.n	407f62 <__udivmoddi4+0x2be>
  407e82:	42ab      	cmp	r3, r5
  407e84:	d96d      	bls.n	407f62 <__udivmoddi4+0x2be>
  407e86:	3802      	subs	r0, #2
  407e88:	443d      	add	r5, r7
  407e8a:	1aeb      	subs	r3, r5, r3
  407e8c:	ea40 4101 	orr.w	r1, r0, r1, lsl #16
  407e90:	e78f      	b.n	407db2 <__udivmoddi4+0x10e>
  407e92:	f1c1 0720 	rsb	r7, r1, #32
  407e96:	fa22 f807 	lsr.w	r8, r2, r7
  407e9a:	408b      	lsls	r3, r1
  407e9c:	fa05 f401 	lsl.w	r4, r5, r1
  407ea0:	ea48 0303 	orr.w	r3, r8, r3
  407ea4:	fa20 fe07 	lsr.w	lr, r0, r7
  407ea8:	ea4f 4c13 	mov.w	ip, r3, lsr #16
  407eac:	40fd      	lsrs	r5, r7
  407eae:	ea4e 0e04 	orr.w	lr, lr, r4
  407eb2:	fbb5 f9fc 	udiv	r9, r5, ip
  407eb6:	ea4f 441e 	mov.w	r4, lr, lsr #16
  407eba:	fb0c 5519 	mls	r5, ip, r9, r5
  407ebe:	fa1f f883 	uxth.w	r8, r3
  407ec2:	ea44 4505 	orr.w	r5, r4, r5, lsl #16
  407ec6:	fb09 f408 	mul.w	r4, r9, r8
  407eca:	42ac      	cmp	r4, r5
  407ecc:	fa02 f201 	lsl.w	r2, r2, r1
  407ed0:	fa00 fa01 	lsl.w	sl, r0, r1
  407ed4:	d908      	bls.n	407ee8 <__udivmoddi4+0x244>
  407ed6:	18ed      	adds	r5, r5, r3
  407ed8:	f109 30ff 	add.w	r0, r9, #4294967295
  407edc:	d243      	bcs.n	407f66 <__udivmoddi4+0x2c2>
  407ede:	42ac      	cmp	r4, r5
  407ee0:	d941      	bls.n	407f66 <__udivmoddi4+0x2c2>
  407ee2:	f1a9 0902 	sub.w	r9, r9, #2
  407ee6:	441d      	add	r5, r3
  407ee8:	1b2d      	subs	r5, r5, r4
  407eea:	fa1f fe8e 	uxth.w	lr, lr
  407eee:	fbb5 f0fc 	udiv	r0, r5, ip
  407ef2:	fb0c 5510 	mls	r5, ip, r0, r5
  407ef6:	ea4e 4405 	orr.w	r4, lr, r5, lsl #16
  407efa:	fb00 f808 	mul.w	r8, r0, r8
  407efe:	45a0      	cmp	r8, r4
  407f00:	d907      	bls.n	407f12 <__udivmoddi4+0x26e>
  407f02:	18e4      	adds	r4, r4, r3
  407f04:	f100 35ff 	add.w	r5, r0, #4294967295
  407f08:	d229      	bcs.n	407f5e <__udivmoddi4+0x2ba>
  407f0a:	45a0      	cmp	r8, r4
  407f0c:	d927      	bls.n	407f5e <__udivmoddi4+0x2ba>
  407f0e:	3802      	subs	r0, #2
  407f10:	441c      	add	r4, r3
  407f12:	ea40 4009 	orr.w	r0, r0, r9, lsl #16
  407f16:	eba4 0408 	sub.w	r4, r4, r8
  407f1a:	fba0 8902 	umull	r8, r9, r0, r2
  407f1e:	454c      	cmp	r4, r9
  407f20:	46c6      	mov	lr, r8
  407f22:	464d      	mov	r5, r9
  407f24:	d315      	bcc.n	407f52 <__udivmoddi4+0x2ae>
  407f26:	d012      	beq.n	407f4e <__udivmoddi4+0x2aa>
  407f28:	b156      	cbz	r6, 407f40 <__udivmoddi4+0x29c>
  407f2a:	ebba 030e 	subs.w	r3, sl, lr
  407f2e:	eb64 0405 	sbc.w	r4, r4, r5
  407f32:	fa04 f707 	lsl.w	r7, r4, r7
  407f36:	40cb      	lsrs	r3, r1
  407f38:	431f      	orrs	r7, r3
  407f3a:	40cc      	lsrs	r4, r1
  407f3c:	6037      	str	r7, [r6, #0]
  407f3e:	6074      	str	r4, [r6, #4]
  407f40:	2100      	movs	r1, #0
  407f42:	e8bd 87f0 	ldmia.w	sp!, {r4, r5, r6, r7, r8, r9, sl, pc}
  407f46:	4618      	mov	r0, r3
  407f48:	e6f8      	b.n	407d3c <__udivmoddi4+0x98>
  407f4a:	4690      	mov	r8, r2
  407f4c:	e6e0      	b.n	407d10 <__udivmoddi4+0x6c>
  407f4e:	45c2      	cmp	sl, r8
  407f50:	d2ea      	bcs.n	407f28 <__udivmoddi4+0x284>
  407f52:	ebb8 0e02 	subs.w	lr, r8, r2
  407f56:	eb69 0503 	sbc.w	r5, r9, r3
  407f5a:	3801      	subs	r0, #1
  407f5c:	e7e4      	b.n	407f28 <__udivmoddi4+0x284>
  407f5e:	4628      	mov	r0, r5
  407f60:	e7d7      	b.n	407f12 <__udivmoddi4+0x26e>
  407f62:	4640      	mov	r0, r8
  407f64:	e791      	b.n	407e8a <__udivmoddi4+0x1e6>
  407f66:	4681      	mov	r9, r0
  407f68:	e7be      	b.n	407ee8 <__udivmoddi4+0x244>
  407f6a:	4601      	mov	r1, r0
  407f6c:	e778      	b.n	407e60 <__udivmoddi4+0x1bc>
  407f6e:	3802      	subs	r0, #2
  407f70:	443c      	add	r4, r7
  407f72:	e745      	b.n	407e00 <__udivmoddi4+0x15c>
  407f74:	4608      	mov	r0, r1
  407f76:	e708      	b.n	407d8a <__udivmoddi4+0xe6>
  407f78:	f1a8 0802 	sub.w	r8, r8, #2
  407f7c:	443d      	add	r5, r7
  407f7e:	e72b      	b.n	407dd8 <__udivmoddi4+0x134>

00407f80 <__aeabi_idiv0>:
  407f80:	4770      	bx	lr
  407f82:	bf00      	nop

00407f84 <p_uc_charset10x14>:
	...
  407fa0:	ccff ccff 0000 0000 0000 0000 0000 0000     ................
  407fb0:	00f0 00f0 0000 0000 00f0 00f0 0000 0000     ................
  407fc0:	c00c c00c fcff fcff c00c c00c fcff fcff     ................
  407fd0:	c00c c00c 600c 701e 303f 3033 fcff fcff     .....`.p?030....
  407fe0:	3033 f033 e039 c018 0060 0cf0 3cf0 f060     303.9...`....<`.
  407ff0:	c003 000f 183c 3cf0 3cc0 1800 f03c f87f     ....<..<.<..<...
  408000:	1cc3 8cc7 cccf ecdc 7878 3030 fc00 cc00     ........xx00....
  408010:	0000 0000 0000 0044 00ec 00f8 0070 0000     ......D.....p...
	...
  408028:	c00f f03f 7878 1860 0cc0 0cc0 0000 0000     ..?.xx`.........
  408038:	0000 0000 0cc0 0cc0 1860 7878 f03f c00f     ........`.xx?...
  408048:	0000 0000 600c e00e c007 8003 f83f f83f     .....`......?.?.
  408058:	8003 c007 e00e 600c 0003 0003 0003 0003     .......`........
  408068:	f03f f03f 0003 0003 0003 0003 4400 ec00     ?.?..........D..
  408078:	f800 7000 0000 0000 0000 0000 0000 0000     ...p............
  408088:	0003 0003 0003 0003 0003 0003 0003 0003     ................
  408098:	0003 0003 1800 3c00 3c00 1800 0000 0000     .......<.<......
	...
  4080b0:	0000 0c00 3c00 f000 c003 000f 003c 00f0     .....<......<...
  4080c0:	00c0 0000 f03f f87f fce0 ccc1 8cc3 0cc7     ....?...........
  4080d0:	0cce 1cfc f87f f03f 0000 0000 0c30 0c70     ......?.....0.p.
  4080e0:	fcff fcff 0c00 0c00 0000 0000 0c30 1c70     ............0.p.
  4080f0:	3ce0 7cc0 ecc0 ccc1 8cc3 0ce7 0c7e 0c3c     .<.|........~.<.
  408100:	3030 3870 1ce0 0cc0 0cc0 0cc3 0cc3 1ce3     00p8............
  408110:	f87f f03c c003 c007 c00e c01c c038 c070     ..<.........8.p.
  408120:	fcff fcff c000 c000 30fc 38fc 1ccc 0ccc     .........0.8....
  408130:	0ccc 0ccc 0ccc 1cce f8c7 f0c3 f03f f87f     ............?...
  408140:	1ce3 0cc3 0cc3 0cc3 0cc3 9ce3 f871 f030     ............q.0.
  408150:	00c0 00c0 00c0 00c0 fcc3 fcc7 00ce 00dc     ................
  408160:	00f8 00f0 f03c f87f 9ce7 0cc3 0cc3 0cc3     ....<...........
  408170:	0cc3 9ce7 f87f f03c 003c 007e 0ce7 0cc3     ......<.<.~.....
  408180:	1cc3 38c3 70c3 e0e7 c07f 803f 0000 0000     ...8.p....?.....
  408190:	0000 6018 f03c f03c 6018 0000 0000 0000     ...`<.<..`......
  4081a0:	0000 0000 0000 4418 ec3c f83c 7018 0000     .......D<.<..p..
  4081b0:	0000 0000 0000 0003 8007 c00f e01c 7038     ..............8p
  4081c0:	3870 1ce0 0cc0 0000 c00c c00c c00c c00c     p8..............
  4081d0:	c00c c00c c00c c00c c00c c00c 0000 0cc0     ................
  4081e0:	1ce0 3870 7038 e01c c00f 8007 0003 0000     ..p88p..........
  4081f0:	0030 0070 00e0 00c0 ecc1 ecc3 00c3 00e6     0.p.............
  408200:	007e 003c f030 f871 9ce3 0cc3 fcc3 fcc3     ~.<.0.q.........
  408210:	0cc0 1ce0 f87f f03f fc3f fc7f c0e0 c0c0     ......?.?.......
  408220:	c0c0 c0c0 c0c0 c0e0 fc7f fc3f fcff fcff     ..........?.....
  408230:	0cc3 0cc3 0cc3 0cc3 0cc3 9ce7 f87f f03c     ..............<.
  408240:	f03f f87f 1ce0 0cc0 0cc0 0cc0 0cc0 1ce0     ?...............
  408250:	3870 3030 fcff fcff 0cc0 0cc0 0cc0 0cc0     p800............
  408260:	0cc0 1ce0 f87f f03f fcff fcff 0cc3 0cc3     ......?.........
  408270:	0cc3 0cc3 0cc3 0cc3 0cc0 0cc0 fcff fcff     ................
  408280:	00c3 00c3 00c3 00c3 00c3 00c3 00c0 00c0     ................
  408290:	f03f f87f 1ce0 0cc0 0cc0 0cc3 0cc3 1ce3     ?...............
  4082a0:	f873 f033 fcff fcff 0003 0003 0003 0003     s.3.............
  4082b0:	0003 0003 fcff fcff 0000 0000 0cc0 0cc0     ................
  4082c0:	fcff fcff 0cc0 0cc0 0000 0000 3000 3800     .............0.8
  4082d0:	1cc0 0cc0 0cc0 1cc0 f8ff f0ff 00c0 00c0     ................
  4082e0:	fcff fcff 8007 8007 c00f e01c 7038 3870     ............8pp8
  4082f0:	1ce0 0cc0 fcff fcff 0c00 0c00 0c00 0c00     ................
  408300:	0c00 0c00 0c00 0c00 fcff fcff 0070 0038     ............p.8.
  408310:	001f 001f 0038 0070 fcff fcff fcff fcff     ....8.p.........
  408320:	001c 000e 0007 8003 c001 e000 fcff fcff     ................
  408330:	f03f f87f 1ce0 0cc0 0cc0 0cc0 0cc0 1ce0     ?...............
  408340:	f87f f03f fcff fcff 00c3 00c3 00c3 00c3     ..?.............
  408350:	00c3 00e7 007e 003c f03f f87f 1ce0 0cc0     ....~.<.?.......
  408360:	ccc0 ecc0 7cc0 38e0 fc7f ec3f fcff fcff     .....|.8..?.....
  408370:	00c3 80c3 80c3 c0c3 c0c3 70e7 3c7e 1c3c     ...........p~<<.
  408380:	183c 1c7e 0ce7 0cc3 0cc3 0cc3 0cc3 9cc3     <.~.............
  408390:	f8e1 f060 00c0 00c0 00c0 00c0 fcff fcff     ..`.............
  4083a0:	00c0 00c0 00c0 00c0 f0ff f8ff 1c00 0c00     ................
  4083b0:	0c00 0c00 0c00 1c00 f8ff f0ff c0ff e0ff     ................
  4083c0:	7000 3800 1c00 1c00 3800 7000 e0ff c0ff     .p.8.....8.p....
  4083d0:	f0ff f8ff 1c00 3c00 f800 f800 3c00 1c00     .......<.....<..
  4083e0:	f8ff f0ff 3cf0 7cf8 e01c c00f 8007 8007     .....<.|........
  4083f0:	c00f e01c 7cf8 3cf0 00fc 00fe 0007 8003     .....|.<........
  408400:	fc01 fc01 8003 0007 00fe 00fc 3cc0 7cc0     .............<.|
  408410:	ecc0 ccc1 8cc3 0cc7 0cce 0cdc 0cf8 0cf0     ................
  408420:	0000 0000 fcff fcff 0cc0 0cc0 0cc0 0000     ................
  408430:	0000 0000 0030 0030 000c 000c 0003 0003     ....0.0.........
  408440:	c000 c000 3000 3000 0000 0000 0cc0 0cc0     .....0.0........
  408450:	0cc0 fcff fcff 0000 0000 0000 000c 001c     ................
  408460:	0038 0070 00e0 00e0 0070 0038 001c 000c     8.p.....p.8.....
  408470:	0c00 0c00 0c00 0c00 0c00 0c00 0c00 0c00     ................
  408480:	0c00 0c00 0000 0000 00c0 00e0 0070 0038     ............p.8.
  408490:	0018 0000 0000 0000 3000 7806 fc0e cc0c     .........0.x....
  4084a0:	cc0c cc0c cc0c cc0e fc07 f803 fcff fcff     ................
  4084b0:	0c03 0c03 0c03 0c03 0c03 9c03 f801 f000     ................
  4084c0:	f003 f807 1c0e 0c0c 0c0c 0c0c 0c0c 1c0e     ................
  4084d0:	3807 3003 f000 f801 9c03 0c03 0c03 0c03     .8.0............
  4084e0:	0c03 0c03 fcff fcff f003 f807 dc0e cc0c     ................
  4084f0:	cc0c cc0c cc0c dc0e d807 9003 0000 0003     ................
  408500:	fc3f fc7f 00e3 00e3 0070 0030 0000 0000     ?.......p.0.....
  408510:	1803 9c07 cc0f cc0c cc0c cc0c cc0c dc0c     ................
  408520:	f80f f007 fcff fcff 0003 0003 0003 0003     ................
  408530:	8003 fc01 fc00 0000 0000 0000 0000 0000     ................
  408540:	fc1b fc1b 0000 0000 0000 0000 0000 3000     ...............0
  408550:	3800 1c00 0c00 0c00 1c00 f8cf f0cf 0000     .8..............
  408560:	0000 fcff fcff e000 e001 f003 3807 1c0e     .............8..
  408570:	0c0c 0000 0000 0000 0cc0 0cc0 fcff fcff     ................
  408580:	0c00 0c00 0000 0000 fc0f fc0f 000e 0007     ................
  408590:	c003 c003 0007 000e fc0f fc0f fc0f fc0f     ................
  4085a0:	0003 0007 000e 000c 000c 000e fc07 fc03     ................
  4085b0:	f003 f807 1c0e 0c0c 0c0c 0c0c 0c0c 1c0e     ................
  4085c0:	f807 f003 fc0f fc0f c00c c00c c00c c00c     ................
  4085d0:	c00c c00f 8007 0003 0003 8007 c00f c00c     ................
  4085e0:	c00c c00c c00c c00c fc0f fc0f fc0f fc0f     ................
  4085f0:	8003 0007 000e 000c 000c 000e 0007 0003     ................
  408600:	1803 9c07 cc0f cc0c cc0c cc0c cc0c fc0c     ................
  408610:	780e 3006 0000 000c 000c f0ff f8ff 1c0c     .x.0............
  408620:	1c0c 380c 300c 0000 f00f f80f 1c00 0c00     ...8.0..........
  408630:	0c00 0c00 0c00 1c00 f80f f00f c00f e00f     ................
  408640:	7000 3800 1c00 1c00 3800 7000 e00f c00f     .p.8.....8.p....
  408650:	f00f f80f 1c00 1c00 f800 f800 1c00 1c00     ................
  408660:	f80f f00f 0c0c 1c0e 3807 f003 e001 e001     .........8......
  408670:	f003 3807 1c0e 0c0c 000c 000e 0c07 9c03     ...8............
  408680:	f801 f001 8003 0007 000e 000c 0c0c 1c0c     ................
  408690:	3c0c 7c0c ec0c cc0d 8c0f 0c0f 0c0e 0c0c     .<.|............
  4086a0:	0000 0003 8007 f03f f87c 1ce0 0cc0 0cc0     ......?.|.......
  4086b0:	0cc0 0000 0c03 0c03 fc3f fc7f 0ce3 0cc3     ........?.......
  4086c0:	0cc0 0ce0 0c70 0c30 0000 0cc0 0cc0 0cc0     ....p.0.........
  4086d0:	1ce0 f87c f03f 8007 0003 0000 00c0 00c0     ..|.?...........
  4086e0:	00c0 00c0 00c0 00c0 00c0 00c0 00c0 00c0     ................
  4086f0:	fcff fcff fcff fcff fcff fcff fcff fcff     ................
  408700:	fcff fcff                                   ....

00408704 <image_data_andamento_diario>:
	...
  408758:	0000 8000 8080 8080 8080 8080 8080 8080     ................
  408768:	8080 8080 8080 8080 0000 0000 0000 0000     ................
	...
  408818:	0000 8000 8080 8080 8080 8080 8080 8080     ................
  408828:	8080 8080 8080 8080 8080 8080 8080 0000     ................
	...
  4088d8:	0000 8000 8080 8080 8080 8080 8080 8080     ................
  4088e8:	8080 8080 8080 8080 8080 8080 8080 8080     ................
  4088f8:	0080 0000 0000 0000 0000 0000 0000 0000     ................
	...
  40899c:	0000 8080 8080 8080 8080 0080 0000 0000     ................
  4089ac:	0000 0000 0000 8000 8080 8080 8080 8080     ................
  4089bc:	8080 0080 0000 0000 0000 0000 0000 0000     ................
	...
  408a60:	8000 8080 8080 8080 8080 0000 0000 0000     ................
	...
  408a78:	8000 8080 8080 8080 8080 0000 0000 0000     ................
	...
  408b24:	8080 8080 8080 8080 0080 0000 0000 0000     ................
	...
  408b3c:	8080 8080 8080 8080 0080 0000 0000 0000     ................
	...
  408bfc:	8080 8080 8080 8080 8080 8080 0000 0000     ................
	...
  408cbc:	8080 8080 8080 8080 8080 8080 0000 0000     ................
	...
  408d78:	8000 8080 8080 8080 8080 8080 8080 8080     ................
  408d88:	8080 0080 0000 0000 0000 0000 0000 0000     ................
	...
  408e3c:	8080 8080 8080 8080 8080 8080 8080 0080     ................
	...
  408ed8:	8080 8080 8080 8080 8080 8080 8080 8080     ................
  408ee8:	8080 0000 0000 0000 0000 0000 0000 0000     ................
  408ef8:	8000 8080 8080 8080 8080 8080 8080 8080     ................
  408f08:	8080 8080 8080 0000 0000 0000 0000 0000     ................
  408f18:	0000 8080 8080 8080 8080 8080 8080 8080     ................
  408f28:	8080 8080 0000 0000 0000 0000 0000 0000     ................
	...
  408f8c:	8080 8080 8080 8080 8080 8080 8080 8080     ................
  408f9c:	8080 8080 8080 8080 8080 8080 8080 8080     ................
  408fac:	8080 8080 8080 8080 8080 8080 8080 8080     ................
  408fbc:	8080 8080 8080 8080 8080 8080 8080 8080     ................
  408fcc:	8080 8080 8080 8080 8080 8080 8080 8080     ................
  408fdc:	8080 8080 8080 8080 8080 8080 8080 8080     ................
  408fec:	8080 8080 8080 8080 8080 8080 8080 8080     ................
  408ffc:	8080 0000 0000 0000 0000 0000 0000 0000     ................
	...
  409044:	0000 8080 8080 8080 8080 8080 8080 8080     ................
  409054:	8080 8080 8080 8080 8080 8080 8080 8080     ................
  409064:	8080 8080 8080 8080 8080 8080 8080 8080     ................
  409074:	8080 8080 8080 8080 8080 8080 8080 8080     ................
  409084:	8080 8080 8080 8080 8080 8080 8080 8080     ................
  409094:	8080 8080 8080 8080 8080 8080 8080 8080     ................
  4090a4:	8080 8080 8080 8080 8080 8080 8080 8080     ................
  4090b4:	8080 8080 8080 8080 8080 8080 8080 8080     ................
  4090c4:	8080 8080 8080 0000 0000 0000 0000 0000     ................
	...
  409104:	0000 8080 8080 8080 8080 8080 8080 8080     ................
  409114:	8080 8080 8080 8080 8080 8080 8080 8080     ................
  409124:	8080 0080 0000 0000 8000 8080 8080 8080     ................
  409134:	8080 8080 8080 8080 8080 8080 8080 8080     ................
  409144:	0080 0000 0000 0000 0000 0000 8000 8080     ................
  409154:	8080 8080 8080 8080 8080 8080 8080 8080     ................
  409164:	8080 8080 8080 8080 0000 0000 0000 8080     ................
  409174:	8080 8080 8080 8080 8080 8080 8080 8080     ................
  409184:	8080 8080 8080 8080 8080 8080 0000 0000     ................
	...
  4091c4:	0000 8080 8080 8080 8080 8080 8080 8080     ................
  4091d4:	8080 8080 0000 0000 0000 0000 0000 0000     ................
	...
  4091f0:	8080 8080 8080 8080 8080 8080 0000 0000     ................
	...
  409220:	8080 8080 8080 8080 8080 8080 8080 0080     ................
	...
  409244:	8080 8080 8080 8080 8080 8080 8080 8080     ................
  409254:	8080 0000 0000 0000 0000 0000 0000 0000     ................
	...
  409284:	0000 8080 8080 8080 8080 8080 8080 8080     ................
  409294:	0080 0000 0000 0000 0000 0000 0000 0000     ................
	...
  4092b0:	0000 8000 8080 8080 8080 8080 8080 8080     ................
  4092c0:	8080 0000 0000 0000 0000 0000 0000 0000     ................
	...
  4092e0:	0000 8000 8080 8080 8080 8080 8080 0080     ................
	...
  40930c:	8000 8080 8080 8080 8080 8080 8080 8080     ................
	...
  409344:	0000 8080 8080 8080 8080 8080 8080 8080     ................
  409354:	0080 0000 0000 0000 0000 0000 0000 0000     ................
	...
  409378:	8000 8080 8080 8080 8080 8080 8080 8080     ................
	...
  4093a0:	0000 8000 8080 8080 8080 8080 8080 0080     ................
	...
  4093d0:	0000 8000 8080 8080 8080 8080 8080 8080     ................
  4093e0:	8080 0000 0000 0000 0000 0000 0000 0000     ................
	...
  409404:	0000 8080 8080 8080 8080 8080 8080 8080     ................
  409414:	0080 0000 0000 0000 0000 0000 0000 0000     ................
	...
  40943c:	0000 8000 8080 8080 8080 8080 8080 8080     ................
  40944c:	8080 8080 0080 0000 0000 0000 0000 0000     ................
  40945c:	8000 8080 8080 8080 8080 8080 8080 8080     ................
  40946c:	8080 8080 8080 0000 0000 0000 0000 0000     ................
	...
  409498:	8000 8080 8080 8080 8080 8080 8080 8080     ................
	...
  4094c4:	0000 8080 8080 8080 8080 8080 8080 8080     ................
  4094d4:	0080 0000 0000 0000 0000 0000 0000 0000     ................
	...
  409504:	8000 8080 8080 8080 8080 8080 8080 8080     ................
  409514:	8080 8080 8080 8080 8080 8080 8080 8080     ................
  409524:	8080 8080 8080 8080 8080 8080 8080 0000     ................
	...
  40955c:	0000 8000 8080 8080 8080 8080 8080 8080     ................
  40956c:	8080 0000 0000 0000 0000 0000 0000 0000     ................
	...
  409584:	0000 8080 8080 8080 8080 8080 8080 8080     ................
  409594:	0080 0000 0000 0000 0000 0000 0000 0000     ................
	...
  4095c8:	0000 8000 8080 8080 8080 8080 8080 8080     ................
  4095d8:	8080 8080 8080 8080 8080 8080 8080 8080     ................
  4095e8:	8080 8080 8080 0080 0000 0000 0000 0000     ................
	...
  409624:	8000 8080 8080 8080 8080 8080 8080 8080     ................
	...
  409644:	0000 8080 8080 8080 8080 8080 8080 8080     ................
  409654:	0080 0000 0000 0000 0000 0000 0000 0000     ................
	...
  409694:	0000 8000 8080 8080 8080 8080 8080 8080     ................
  4096a4:	8080 8080 8080 8080 0000 0000 0000 0000     ................
	...
  4096e8:	0000 8000 8080 8080 8080 8080 8080 8080     ................
  4096f8:	8080 0000 0000 0000 0000 0000 0000 8080     ................
  409708:	8080 8080 8080 8080 8080 8080 0080 0000     ................
	...
  4097b0:	8000 8080 8080 8080 8080 8080 8080 8080     ................
  4097c0:	0000 0000 0000 8080 8080 8080 8080 8080     ................
  4097d0:	8080 8080 0080 0000 0000 0000 0000 0000     ................
	...
  409874:	0000 8000 8080 8080 8080 8080 8080 8080     ................
  409884:	8080 0000 8000 8080 8080 8080 8080 8080     ................
  409894:	0080 0000 0000 0000 0000 0000 0000 0000     ................
	...
  409918:	8000 8080 0000 0000 0000 0000 0000 0000     ................
	...
  40993c:	8000 8080 8080 8080 8080 8080 8080 8080     ................
  40994c:	8080 8080 8080 8080 8080 8080 8080 0080     ................
	...
  409978:	8000 8080 8080 8080 8080 0000 0000 0000     ................
	...
  4099d8:	8000 8080 8080 8080 8080 0000 0000 0000     ................
	...
  409a00:	8080 8080 8080 8080 8080 8080 0000 0000     ................
  409a10:	0000 8080 8080 8080 8080 8080 8080 8080     ................
  409a20:	0080 0000 0000 0000 0000 0000 0000 0000     ................
	...
  409a38:	8000 8080 8080 8080 8080 8080 0080 0000     ................
	...
  409a98:	8000 8080 8080 8080 8080 8080 8080 8080     ................
	...
  409ac0:	8080 8080 8080 8080 8080 8080 8080 0080     ................
	...
  409ad8:	8080 8080 8080 8080 8080 8080 8080 0080     ................
	...
  409af8:	8000 8080 8080 8080 8080 8080 0080 0000     ................
	...
  409b5c:	0000 8000 8080 8080 8080 8080 8080 8080     ................
  409b6c:	8080 0000 0000 0000 0000 0000 0000 0000     ................
  409b7c:	0000 0000 8080 8080 8080 8080 8080 8080     ................
  409b8c:	8080 0080 0000 0000 0000 0000 0000 0000     ................
  409b9c:	0000 8080 8080 8080 8080 8080 8080 8080     ................
  409bac:	0080 0000 0000 0000 0000 0000 8000 8080     ................
  409bbc:	8080 8080 8080 8080 0080 0000 0000 0000     ................
	...
  409c24:	8000 8080 8080 8080 8080 8080 8080 8080     ................
	...
  409c40:	8080 8080 8080 8080 8080 8080 8080 0080     ................
	...
  409c64:	8080 8080 8080 8080 8080 8080 8080 0080     ................
  409c74:	0000 0000 8000 8080 8080 8080 8080 8080     ................
  409c84:	0080 0000 0000 0000 0000 0000 0000 0000     ................
	...
  409ce8:	0000 8000 8080 8080 8080 8080 8080 8080     ................
  409cf8:	8080 0000 0000 0000 8080 8080 8080 8080     ................
  409d08:	8080 8080 8080 0080 0000 0000 0000 0000     ................
	...
  409d28:	0000 8080 8080 8080 8080 8080 8080 8080     ................
  409d38:	8080 8080 8080 8080 8080 8080 8080 8080     ................
	...
  409dac:	0000 8080 8080 8080 8080 8080 8080 8080     ................
  409dbc:	8080 8080 8080 8080 8080 8080 8080 8080     ................
  409dcc:	8080 0080 0000 0000 0000 0000 0000 0000     ................
	...
  409df0:	8080 8080 8080 8080 8080 8080 8080 8080     ................
  409e00:	8080 8080 8080 8080 8080 0080 0000 0000     ................
	...
  409e70:	8000 8080 8080 8080 8080 8080 8080 8080     ................
  409e80:	8080 8080 8080 8080 8080 8080 8080 0080     ................
	...
  409eb4:	0000 8080 8080 8080 8080 8080 8080 8080     ................
  409ec4:	8080 8080 8080 8080 8080 0000 0000 0000     ................
	...
  409f34:	8080 8080 8080 8080 8080 8080 8080 8080     ................
  409f44:	8080 8080 8080 8080 8080 0080 0000 0000     ................
	...
  409f7c:	8080 8080 8080 8080 0080 0000 8080 8080     ................
  409f8c:	8080 8080 0080 0000 0000 0000 0000 0000     ................
	...
  409ff4:	0000 8000 8080 8080 8080 8080 0000 8000     ................
  40a004:	8080 8080 8080 8080 8080 0080 0000 0000     ................
	...
  40a048:	0000 8000 8080 8080 8080 8080 0000 0000     ................
	...
  40a0b8:	0000 8080 8080 8080 8080 0080 0000 0000     ................
	...
  40a10c:	0000 8080 8080 8080 8080 0080 0000 0000     ................
	...
  40a17c:	8000 8080 8080 8080 8080 0000 0000 0000     ................
	...
  40a1d0:	8000 8080 8080 8080 8080 0000 0000 0000     ................
	...
  40a240:	8080 8080 8080 8080 0080 0000 0000 0000     ................
	...
  40a294:	8080 8080 8080 8080 0080 0000 0000 0000     ................
	...
  40a300:	0000 8000 8080 8080 8080 8080 0000 0000     ................
	...
  40a338:	8000 8080 8080 8080 8080 8080 8080 8080     ................
  40a348:	8080 8080 8080 8080 8080 8080 8080 8080     ................
  40a358:	8080 8080 8080 8080 8080 8080 8080 8080     ................
  40a368:	8080 8080 8080 8080 8080 8080 8080 8080     ................
  40a378:	8080 8080 8080 8080 8080 8080 8080 8080     ................
  40a388:	8080 8080 8080 8080 8080 0080 0000 0000     ................
	...
  40a3c4:	0000 8080 8080 8080 8080 0080 0000 0000     ................
	...
  40a3f8:	8000 8080 8080 8080 8080 8080 8080 8080     ................
  40a408:	8080 8080 8080 8080 8080 8080 8080 8080     ................
  40a418:	8080 8080 8080 8080 8080 8080 8080 8080     ................
  40a428:	8080 8080 8080 8080 8080 8080 8080 8080     ................
  40a438:	8080 8080 8080 8080 8080 8080 8080 8080     ................
  40a448:	8080 8080 8080 8080 8080 8080 8080 8080     ................
  40a458:	0080 0000 0000 0000 0000 0000 0000 0000     ................
	...
  40a488:	8000 8080 8080 8080 8080 0000 0000 0000     ................
	...
  40a4b8:	8000 8080 8080 8080 8080 8080 8080 8080     ................
  40a4c8:	8080 8080 8080 8080 8080 8080 8080 8080     ................
  40a4d8:	8080 8080 8080 8080 8080 8080 8080 8080     ................
  40a4e8:	8080 8080 8080 8080 8080 8080 8080 8080     ................
  40a4f8:	8080 8080 8080 8080 8080 8080 8080 8080     ................
  40a508:	8080 8080 8080 8080 8080 8080 8080 8080     ................
  40a518:	8080 8080 0000 0000 0000 0000 0000 0000     ................
	...
  40a54c:	8080 8080 8080 8080 0080 0000 0000 0000     ................
	...
  40a57c:	8080 8080 8080 8080 8080 8080 0000 0000     ................
	...
  40a5d4:	0000 8080 8080 8080 8080 8080 8080 0000     ................
	...
  40a60c:	0000 8000 8080 8080 8080 8080 0000 0000     ................
	...
  40a63c:	0000 8000 8080 8080 8080 8080 0000 8000     ................
  40a64c:	8080 8080 8080 8080 8080 8080 8080 8080     ................
  40a65c:	8080 8080 8080 8080 8080 8080 8080 8080     ................
  40a66c:	8080 8080 8080 8080 8080 8080 8080 8080     ................
  40a67c:	8080 8080 8080 8080 8080 8080 8080 8080     ................
  40a68c:	8080 8080 8080 8080 8080 8080 8080 8080     ................
  40a69c:	8080 8080 8080 8080 0080 0000 0000 0000     ................
	...
  40a6d0:	0000 8080 8080 8080 8080 0080 0000 0000     ................
	...
  40a700:	0000 8080 8080 8080 8080 0080 0000 8080     ................
  40a710:	8080 8080 8080 8080 8080 8080 8080 8080     ................
  40a720:	8080 8080 8080 8080 8080 8080 8080 8080     ................
  40a730:	8080 8080 8080 8080 8080 8080 8080 8080     ................
  40a740:	8080 8080 8080 8080 8080 8080 8080 8080     ................
  40a750:	8080 8080 8080 8080 8080 8080 0000 8000     ................
  40a760:	8080 8080 8080 8080 0000 0000 0000 0000     ................
	...
  40a794:	8000 8080 8080 8080 8080 0000 0000 0000     ................
	...
  40a7c4:	8000 8080 8080 8080 8080 0000 8000 8080     ................
  40a7d4:	8080 8080 8080 8080 8080 8080 8080 8080     ................
  40a7e4:	8080 8080 8080 8080 8080 8080 8080 8080     ................
  40a7f4:	8080 8080 8080 8080 8080 8080 8080 8080     ................
  40a804:	8080 8080 8080 8080 8080 8080 8080 8080     ................
  40a814:	8080 8080 8080 8080 8080 8080 8080 8080     ................
  40a824:	8080 8080 8080 0080 0000 0000 0000 0000     ................
	...
  40a858:	8080 8080 8080 8080 0080 0000 0000 0000     ................
	...
  40a888:	8080 8080 8080 8080 8080 8080 8080 0080     ................
	...
  40a8dc:	0000 8000 8080 8080 8080 8080 8080 0080     ................
	...
  40a918:	0000 8000 8080 8080 8080 8080 0000 0000     ................
	...
  40a94c:	0000 8080 8080 8080 8080 8080 8080 8080     ................
  40a95c:	8080 8080 8080 8080 8080 8080 8080 8080     ................
  40a96c:	8080 8080 8080 8080 8080 8080 8080 8080     ................
  40a97c:	8080 8080 8080 8080 8080 8080 8080 8080     ................
  40a98c:	8080 8080 8080 8080 8080 8080 8080 8080     ................
  40a99c:	8080 8080 8080 8080 8080 8080 8080 8080     ................
  40a9ac:	8080 0000 0000 0000 0000 0000 0000 0000     ................
	...
  40a9dc:	0000 8080 8080 8080 8080 0080 0000 0000     ................
	...
  40aa10:	8000 8080 8080 8080 8080 8080 8080 8080     ................
  40aa20:	8080 8080 8080 8080 8080 8080 8080 8080     ................
  40aa30:	8080 8080 8080 8080 8080 8080 8080 8080     ................
  40aa40:	8080 8080 8080 8080 8080 8080 8080 8080     ................
  40aa50:	8080 8080 8080 8080 8080 8080 8080 8080     ................
  40aa60:	8080 8080 8080 8080 8080 8080 8080 0000     ................
	...
  40aaa0:	8000 8080 8080 8080 8080 0000 0000 0000     ................
	...
  40aad0:	8000 8080 8080 8080 8080 8080 8080 8080     ................
  40aae0:	8080 8080 8080 8080 8080 8080 8080 8080     ................
  40aaf0:	8080 8080 8080 8080 8080 8080 8080 8080     ................
  40ab00:	8080 8080 8080 8080 8080 8080 8080 8080     ................
  40ab10:	8080 8080 8080 8080 8080 8080 8080 8080     ................
  40ab20:	8080 8080 8080 8080 8080 8080 8080 8080     ................
  40ab30:	8080 8080 0000 0000 0000 0000 0000 0000     ................
	...
  40ab64:	8080 8080 8080 8080 0080 0000 0000 0000     ................
	...
  40ab94:	8080 8080 8080 8080 8080 8080 0000 0000     ................
	...
  40abec:	0000 8080 8080 8080 8080 8080 8080 0000     ................
	...
  40ac24:	0000 8000 8080 8080 8080 8080 0000 0000     ................
	...
  40ac54:	0000 8000 8080 8080 8080 8080 0000 8000     ................
  40ac64:	8080 8080 8080 8080 8080 8080 8080 8080     ................
  40ac74:	8080 8080 8080 8080 8080 8080 8080 8080     ................
  40ac84:	8080 8080 8080 8080 8080 8080 8080 8080     ................
  40ac94:	8080 8080 8080 8080 8080 8080 8080 8080     ................
  40aca4:	8080 8080 8080 8080 8080 0000 8000 8080     ................
  40acb4:	8080 8080 8080 8080 0080 0000 0000 0000     ................
	...
  40ace8:	0000 8080 8080 8080 8080 0080 0000 0000     ................
	...
  40ad18:	0000 8080 8080 8080 8080 0080 0000 8080     ................
  40ad28:	8080 8080 8080 8080 8080 8080 8080 8080     ................
  40ad38:	8080 8080 8080 8080 8080 8080 8080 8080     ................
  40ad48:	8080 8080 8080 8080 8080 8080 8080 8080     ................
  40ad58:	8080 8080 8080 8080 8080 8080 8080 8080     ................
  40ad68:	8080 8080 8080 8080 0080 0000 0000 8000     ................
  40ad78:	8080 8080 8080 8080 0000 0000 0000 0000     ................
	...
  40adac:	8000 8080 8080 8080 8080 0000 0000 0000     ................
	...
  40addc:	8000 8080 8080 8080 8080 0000 8000 8080     ................
  40adec:	8080 8080 8080 8080 8080 8080 8080 8080     ................
  40adfc:	8080 8080 8080 8080 8080 8080 8080 8080     ................
  40ae0c:	8080 8080 8080 8080 8080 8080 8080 8080     ................
  40ae1c:	8080 8080 8080 8080 8080 8080 8080 8080     ................
  40ae2c:	8080 8080 8080 8080 0000 8000 8080 8080     ................
  40ae3c:	8080 8080 8080 0080 0000 0000 0000 0000     ................
	...
  40ae70:	8080 8080 8080 8080 0080 0000 0000 0000     ................
	...
  40aea0:	8080 8080 8080 8080 8080 8080 0000 0000     ................
	...
  40aef4:	0000 8000 8080 8080 8080 8080 8080 0080     ................
	...
  40af30:	0000 8000 8080 8080 8080 8080 0000 0000     ................
	...
  40af64:	0000 8080 8080 8080 8080 8080 8080 8080     ................
  40af74:	8080 8080 8080 8080 8080 8080 8080 8080     ................
  40af84:	8080 8080 8080 8080 8080 8080 8080 8080     ................
  40af94:	8080 8080 8080 8080 8080 8080 8080 8080     ................
  40afa4:	8080 8080 8080 8080 8080 8080 8080 8080     ................
  40afb4:	8080 8080 8080 8080 8080 8080 8080 8080     ................
  40afc4:	8080 0000 0000 0000 0000 0000 0000 0000     ................
	...
  40afdc:	0000 8080 8080 8080 8080 8080 8080 8080     ................
  40afec:	8080 8080 8080 8080 8080 8080 8080 8080     ................
  40affc:	8080 0080 0000 0000 0000 0000 0000 0000     ................
	...
  40b028:	8000 8080 8080 8080 8080 8080 8080 8080     ................
  40b038:	8080 8080 8080 8080 8080 8080 8080 8080     ................
  40b048:	8080 8080 8080 8080 8080 8080 8080 8080     ................
  40b058:	8080 8080 8080 8080 8080 8080 8080 8080     ................
  40b068:	8080 8080 8080 8080 8080 8080 8080 8080     ................
  40b078:	8080 8080 8080 8080 8080 8080 8080 0000     ................
	...
  40b0a0:	8000 8080 8080 8080 8080 8080 8080 8080     ................
  40b0b0:	8080 8080 8080 8080 8080 8080 8080 8080     ................
  40b0c0:	8080 0000 0000 0000 0000 0000 0000 0000     ................
	...
  40b0ec:	8080 8080 8080 8080 8080 8080 8080 8080     ................
  40b0fc:	8080 8080 8080 8080 8080 8080 8080 8080     ................
  40b10c:	8080 8080 8080 8080 8080 8080 8080 8080     ................
  40b11c:	8080 8080 8080 8080 8080 8080 8080 8080     ................
  40b12c:	8080 8080 8080 8080 8080 8080 8080 8080     ................
  40b13c:	8080 8080 8080 8080 8080 8080 8080 8080     ................
	...
  40b164:	8080 8080 8080 8080 8080 8080 8080 8080     ................
  40b174:	8080 8080 8080 8080 8080 8080 8080 8080     ................
  40b184:	0080 0000 0000 0000 0000 0000 0000 0000     ................
	...
  40b1ac:	8080 8080 8080 8080 8080 8080 0000 0000     ................
	...
  40b200:	0000 8000 8080 8080 8080 8080 8080 0080     ................
	...
  40b224:	0000 8000 8080 8080 8080 8080 0000 0000     ................
  40b234:	0000 8080 8080 8080 8080 8080 8080 8080     ................
  40b244:	0080 0000 0000 0000 0000 0000 0000 0000     ................
	...
  40b26c:	0000 8000 8080 8080 8080 8080 0000 8000     ................
  40b27c:	8080 8080 8080 8080 8080 8080 8080 8080     ................
  40b28c:	8080 8080 8080 8080 8080 8080 8080 8080     ................
  40b29c:	8080 8080 8080 8080 8080 8080 8080 8080     ................
  40b2ac:	8080 8080 8080 8080 8080 8080 8080 8080     ................
  40b2bc:	8080 8080 8080 8080 8080 0000 8000 8080     ................
  40b2cc:	8080 8080 8080 8080 0080 0000 0000 0000     ................
	...
  40b2e8:	0000 8080 8080 8080 8080 0080 0000 8080     ................
  40b2f8:	8080 8080 8080 8080 8080 8080 0080 0000     ................
	...
  40b330:	0000 8080 8080 8080 8080 0080 0000 8080     ................
  40b340:	8080 8080 8080 8080 8080 8080 8080 8080     ................
  40b350:	8080 8080 8080 8080 8080 8080 8080 8080     ................
  40b360:	8080 8080 8080 8080 8080 8080 8080 8080     ................
  40b370:	8080 8080 8080 8080 8080 8080 8080 8080     ................
  40b380:	8080 8080 8080 8080 0080 0000 0000 8000     ................
  40b390:	8080 8080 8080 8080 0000 0000 0000 0000     ................
	...
  40b3ac:	8000 8080 8080 8080 8080 8080 8080 8080     ................
  40b3bc:	8080 8080 8080 8080 0080 0000 0000 0000     ................
	...
  40b3f4:	8000 8080 8080 8080 8080 0000 8000 8080     ................
  40b404:	8080 8080 8080 8080 8080 8080 8080 8080     ................
  40b414:	8080 8080 8080 8080 8080 8080 8080 8080     ................
  40b424:	8080 8080 8080 8080 8080 8080 8080 8080     ................
  40b434:	8080 8080 8080 8080 8080 8080 8080 8080     ................
  40b444:	8080 8080 8080 8080 0000 8000 8080 8080     ................
  40b454:	8080 8080 8080 0080 0000 0000 0000 0000     ................
	...
  40b470:	8080 8080 8080 8080 8080 8080 8080 8080     ................
  40b480:	8080 8080 0080 0000 0000 0000 0000 0000     ................
	...
  40b4b8:	8080 8080 8080 8080 8080 8080 0000 0000     ................
	...
  40b510:	0000 8080 8080 8080 8080 0080 0000 0000     ................
	...
  40b530:	0000 8000 8080 8080 8080 8080 8080 8080     ................
  40b540:	8080 8080 0080 0000 0000 0000 0000 0000     ................
	...
  40b578:	0000 8000 8080 8080 8080 8080 8080 8080     ................
  40b588:	8080 8080 8080 8080 8080 8080 8080 8080     ................
  40b598:	8080 8080 8080 8080 8080 8080 8080 8080     ................
  40b5a8:	8080 8080 8080 8080 8080 8080 8080 8080     ................
  40b5b8:	8080 8080 8080 8080 8080 8080 8080 8080     ................
  40b5c8:	8080 8080 8080 8080 8080 8080 8080 8080     ................
  40b5d8:	8080 8080 8080 8080 8080 8080 8080 8080     ................
  40b5e8:	8080 8080 8080 8080 8080 8080 8080 8080     ................
  40b5f8:	8080 8080 8080 8080 8080 8080 0080 0000     ................
	...
  40b640:	8000 8080 8080 8080 8080 8080 8080 8080     ................
  40b650:	8080 8080 8080 8080 8080 8080 8080 8080     ................
  40b660:	8080 8080 8080 8080 8080 8080 8080 8080     ................
  40b670:	8080 8080 8080 8080 8080 8080 8080 8080     ................
  40b680:	8080 8080 8080 8080 8080 8080 8080 8080     ................
  40b690:	8080 8080 8080 8080 8080 8080 8080 8080     ................
  40b6a0:	8080 8080 8080 8080 8080 8080 8080 8080     ................
  40b6b0:	8080 8080 8080 8080 8080 8080 8080 8080     ................
  40b6c0:	8080 8080 0080 0000 0000 0000 0000 0000     ................
	...
  40b704:	0000 8000 8080 8080 8080 8080 8080 8080     ................
  40b714:	8080 8080 8080 8080 8080 8080 8080 8080     ................
  40b724:	8080 8080 8080 8080 8080 8080 8080 8080     ................
  40b734:	8080 8080 8080 8080 8080 8080 8080 8080     ................
  40b744:	8080 8080 8080 8080 8080 8080 8080 8080     ................
  40b754:	8080 8080 8080 8080 8080 8080 8080 8080     ................
  40b764:	8080 8080 8080 8080 8080 8080 8080 8080     ................
  40b774:	8080 8080 8080 8080 8080 8080 8080 8080     ................
  40b784:	0080 0000 0000 0000 0000 0000 0000 0000     ................
	...
  40bfa4:	0000 8000 8080 8080 8080 8080 0000 0000     ................
	...
  40c064:	0000 8000 8080 8080 8080 8080 8080 0080     ................
	...
  40c128:	0000 8080 8080 8080 8080 0080 0000 0000     ................
	...
  40c1bc:	8000 8080 8080 8080 8080 8080 8080 8080     ................
  40c1cc:	8080 8080 8080 0000 0000 0000 8080 8080     ................
  40c1dc:	8080 8080 8080 8080 0000 0000 0000 0000     ................
  40c1ec:	8000 8080 8080 8080 8080 8080 0080 0000     ................
  40c1fc:	0000 8000 8080 8080 8080 8080 8080 8080     ................
  40c20c:	8080 8080 8080 8080 0000 0000 0000 8080     ................
  40c21c:	8080 8080 8080 8080 8080 0000 0000 0000     ................
  40c22c:	8080 8080 8080 8080 8080 8080 8080 8080     ................
  40c23c:	8080 0000 0000 0000 0000 0000 0000 0000     ................
	...
  40c280:	8080 8080 8080 8080 8080 8080 8080 8080     ................
  40c290:	8080 8080 8080 8080 0000 8000 8080 8080     ................
  40c2a0:	8080 8080 8080 0080 0000 0000 8000 8080     ................
  40c2b0:	8080 8080 8080 8080 8080 8080 0000 0000     ................
  40c2c0:	0000 8080 8080 8080 8080 8080 8080 8080     ................
  40c2d0:	8080 8080 8080 8080 8080 0000 8000 8080     ................
  40c2e0:	8080 8080 8080 8080 0080 0000 8080 8080     ................
  40c2f0:	8080 8080 8080 8080 8080 8080 8080 8080     ................
  40c300:	8080 8080 0000 0000 0000 0000 0000 0000     ................
	...
  40c340:	0000 8000 8080 8080 8080 8080 8080 8080     ................
  40c350:	8080 8080 8080 8080 8080 0080 0000 8080     ................
  40c360:	8080 8080 8080 8080 8080 0000 0000 0000     ................
  40c370:	8080 8080 8080 8080 8080 8080 8080 0080     ................
  40c380:	0000 0000 8000 8080 8080 8080 8080 8080     ................
  40c390:	8080 8080 8080 8080 8080 8080 0080 0000     ................
  40c3a0:	8080 8080 8080 8080 8080 8080 0000 8000     ................
  40c3b0:	8080 8080 8080 8080 8080 8080 8080 8080     ................
  40c3c0:	8080 8080 8080 0080 0000 0000 0000 0000     ................
	...
  40c404:	0000 8080 8080 8080 8080 0080 0000 0000     ................
  40c414:	8000 8080 8080 8080 8080 0000 8000 8080     ................
  40c424:	8080 8080 8080 8080 0080 0000 0000 8000     ................
  40c434:	8080 8080 8080 8080 8080 8080 8080 0000     ................
  40c444:	0000 0000 8080 8080 8080 8080 8080 8080     ................
  40c454:	0000 8000 8080 8080 8080 8080 0000 8000     ................
  40c464:	8080 8080 8080 8080 8080 0080 0000 8080     ................
  40c474:	8080 8080 8080 0080 0000 0000 8000 8080     ................
  40c484:	8080 8080 8080 0000 0000 0000 0000 0000     ................
	...
  40c4c8:	8000 8080 8080 8080 8080 0000 0000 0000     ................
  40c4d8:	8080 8080 8080 8080 0080 0000 8080 8080     ................
  40c4e8:	8080 8080 8080 8080 0000 0000 0000 8080     ................
  40c4f8:	8080 8080 8080 8080 8080 8080 0080 0000     ................
  40c508:	0000 8000 8080 8080 8080 8080 8080 0080     ................
  40c518:	0000 8080 8080 8080 8080 0080 0000 8080     ................
  40c528:	8080 8080 8080 8080 8080 0000 8000 8080     ................
  40c538:	8080 8080 8080 0000 0000 0000 8080 8080     ................
  40c548:	8080 8080 0080 0000 0000 0000 0000 0000     ................
	...
  40c58c:	8080 8080 8080 8080 0080 0000 0000 8000     ................
  40c59c:	8080 8080 8080 8080 0000 8000 8080 8080     ................
  40c5ac:	8080 8080 8080 0080 0000 0000 8000 8080     ................
  40c5bc:	8080 8080 8080 8080 8080 8080 0000 0000     ................
  40c5cc:	0000 8080 8080 8080 8080 8080 8080 0000     ................
  40c5dc:	8000 8080 8080 8080 8080 0000 8000 8080     ................
  40c5ec:	8080 8080 8080 8080 0080 0000 8080 8080     ................
  40c5fc:	8080 8080 0080 0000 0000 8000 8080 8080     ................
  40c60c:	8080 8080 0000 0000 0000 0000 0000 0000     ................
	...
  40c64c:	0000 8000 8080 8080 8080 8080 0000 0000     ................
  40c65c:	0000 8080 8080 8080 8080 0080 0000 8080     ................
  40c66c:	8080 8080 8080 8080 8080 0000 0000 0000     ................
  40c67c:	8080 8080 8080 8080 8080 8080 8080 8080     ................
  40c68c:	8080 0000 8000 8080 8080 8080 8080 8080     ................
  40c69c:	8080 8080 8080 8080 8080 8080 0080 0000     ................
  40c6ac:	8080 8080 8080 8080 8080 8080 0000 8000     ................
  40c6bc:	8080 8080 8080 8080 0000 0000 0000 8080     ................
  40c6cc:	8080 8080 8080 0080 0000 0000 0000 0000     ................
	...
  40c710:	0000 8080 8080 8080 8080 0080 0000 0000     ................
  40c720:	8000 8080 8080 8080 8080 0000 8000 8080     ................
  40c730:	8080 8080 8080 8080 0080 0000 8080 8080     ................
  40c740:	8080 8080 8080 8080 8080 8080 8080 8080     ................
  40c750:	0080 0000 8080 8080 8080 8080 8080 8080     ................
  40c760:	8080 8080 8080 8080 8080 8080 0000 8000     ................
  40c770:	8080 8080 8080 8080 8080 0080 0000 8080     ................
  40c780:	8080 8080 8080 0080 0000 0000 8000 8080     ................
  40c790:	8080 8080 8080 0000 0000 0000 0000 0000     ................
	...
  40c7d4:	8000 8080 8080 8080 8080 0000 0000 0000     ................
  40c7e4:	8080 8080 8080 8080 0080 0000 8080 8080     ................
  40c7f4:	8080 8080 8080 8080 0000 8000 8080 8080     ................
  40c804:	8080 8080 0000 8000 8080 8080 8080 8080     ................
  40c814:	0000 8000 8080 8080 8080 8080 8080 8080     ................
  40c824:	8080 8080 8080 8080 0000 0000 0000 8080     ................
  40c834:	8080 8080 8080 8080 8080 0000 8000 8080     ................
  40c844:	8080 8080 8080 0000 0000 0000 8080 8080     ................
  40c854:	8080 8080 0080 0000 0000 0000 0000 0000     ................
	...
  40c898:	8080 8080 8080 8080 0080 0000 0000 8000     ................
  40c8a8:	8080 8080 8080 8080 0000 8000 8080 8080     ................
  40c8b8:	8080 8080 8080 0080 0000 8080 8080 8080     ................
  40c8c8:	8080 8080 8080 8080 8080 8080 8080 0080     ................
  40c8d8:	0000 8080 8080 8080 8080 8080 8080 8080     ................
  40c8e8:	8080 8080 8080 0080 0000 0000 8000 8080     ................
  40c8f8:	8080 8080 8080 8080 0080 0000 8080 8080     ................
  40c908:	8080 8080 0080 0000 0000 8000 8080 8080     ................
  40c918:	8080 8080 0000 0000 0000 0000 0000 0000     ................
	...
  40c958:	0000 8000 8080 8080 8080 8080 0000 0000     ................
  40c968:	0000 8080 8080 8080 8080 0080 0000 8080     ................
  40c978:	8080 8080 8080 8080 8080 0000 8000 8080     ................
  40c988:	8080 8080 8080 8080 8080 8080 8080 8080     ................
  40c998:	8080 0000 8000 8080 8080 8080 8080 8080     ................
  40c9a8:	8080 8080 8080 8080 8080 8080 0080 0000     ................
  40c9b8:	8080 8080 8080 8080 8080 8080 0000 8000     ................
  40c9c8:	8080 8080 8080 8080 0000 0000 0000 8080     ................
  40c9d8:	8080 8080 8080 0080 0000 0000 0000 0000     ................
	...
  40ca1c:	0000 8080 8080 8080 8080 0080 0000 0000     ................
  40ca2c:	8000 8080 8080 8080 8080 0000 8000 8080     ................
  40ca3c:	8080 8080 8080 8080 0080 0000 8080 8080     ................
  40ca4c:	8080 8080 8080 8080 8080 8080 8080 8080     ................
  40ca5c:	0080 0000 8080 8080 8080 8080 8080 8080     ................
  40ca6c:	8080 8080 8080 8080 8080 8080 0000 8000     ................
  40ca7c:	8080 8080 8080 8080 8080 0080 0000 8080     ................
  40ca8c:	8080 8080 8080 0080 0000 0000 8000 8080     ................
  40ca9c:	8080 8080 8080 0000 0000 0000 0000 0000     ................
	...
  40cae0:	8000 8080 8080 8080 8080 0000 8000 8080     ................
  40caf0:	8080 8080 8080 8080 0080 0000 8080 8080     ................
  40cb00:	8080 8080 8080 8080 8080 8080 8080 8080     ................
  40cb10:	8080 8080 0000 8000 8080 8080 8080 8080     ................
  40cb20:	8080 8080 8080 8080 8080 8080 8080 0080     ................
  40cb30:	0000 8080 8080 8080 8080 0080 0000 8080     ................
  40cb40:	8080 8080 8080 8080 8080 0000 8000 8080     ................
  40cb50:	8080 8080 8080 0000 8000 8080 8080 8080     ................
  40cb60:	8080 8080 0080 0000 0000 0000 0000 0000     ................
	...
  40cba4:	8080 8080 8080 8080 8080 8080 8080 8080     ................
  40cbb4:	8080 8080 8080 8080 0000 8000 8080 8080     ................
  40cbc4:	8080 8080 8080 8080 8080 8080 8080 8080     ................
  40cbd4:	8080 0080 0000 8080 8080 8080 8080 8080     ................
  40cbe4:	8080 8080 8080 8080 8080 8080 8080 0000     ................
  40cbf4:	8000 8080 8080 8080 8080 0000 8000 8080     ................
  40cc04:	8080 8080 8080 8080 0080 0000 8080 8080     ................
  40cc14:	8080 8080 8080 8080 8080 8080 8080 8080     ................
  40cc24:	8080 8080 0000 0000 0000 0000 0000 0000     ................
	...
  40cc64:	0000 8000 8080 8080 8080 8080 8080 8080     ................
  40cc74:	8080 8080 8080 8080 0000 0000 0000 8080     ................
  40cc84:	8080 8080 8080 8080 8080 8080 8080 8080     ................
  40cc94:	8080 8080 8080 0000 0000 0000 8080 8080     ................
  40cca4:	8080 8080 8080 8080 8080 8080 8080 8080     ................
  40ccb4:	0080 0000 8080 8080 8080 8080 8080 8080     ................
  40ccc4:	8080 8080 8080 8080 8080 8080 0000 8000     ................
  40ccd4:	8080 8080 8080 8080 8080 8080 8080 8080     ................
  40cce4:	8080 8080 0000 0000 0000 0000 0000 0000     ................
	...
  40cd28:	0000 8080 8080 8080 8080 8080 8080 8080     ................
  40cd38:	8080 8080 0000 0000 0000 0000 8000 8080     ................
  40cd48:	8080 8080 8080 8080 8080 8080 8080 8080     ................
  40cd58:	8080 0000 0000 0000 0000 8000 8080 8080     ................
  40cd68:	8080 8080 8080 8080 8080 8080 8080 8080     ................
  40cd78:	0000 8000 8080 8080 8080 8080 8080 8080     ................
  40cd88:	8080 8080 8080 8080 8080 0080 0000 0000     ................
  40cd98:	0000 0000 8080 8080 8080 8080 8080 8080     ................
	...

0040cddc <image_data_icone_emergencia>:
	...
  40cf50:	00f7 f727 2700 00f7 f727 2700 0000 0000     ..'..'..'..'....
	...
  40d134:	0000 00f7 f727 2700 00f7 f727 2700 00f7     ....'..'..'..'..
  40d144:	0027 0000 0000 0000 0000 0000 0000 0000     '...............
	...
  40d318:	f700 2700 00f7 f727 2700 00f7 f727 2700     ...'..'..'..'..'
  40d328:	00f7 0027 0000 0000 0000 0000 0000 0000     ..'.............
	...
  40d38c:	0000 00f7 f727 2700 00f7 f727 2700 00f7     ....'..'..'..'..
  40d39c:	f727 2700 00f7 0027 0000 0000 0000 0000     '..'..'.........
  40d3ac:	00f7 f727 2700 00f7 f727 2700 0000 0000     ..'..'..'..'....
  40d3bc:	0000 0000 f700 2700 00f7 f727 2700 00f7     .......'..'..'..
  40d3cc:	f727 2700 00f7 0027 0000 0000 0000 0000     '..'..'.........
  40d3dc:	0000 f700 2700 00f7 f727 2700 00f7 0027     .....'..'..'..'.
	...
  40d3f4:	00f7 f727 2700 00f7 f727 2700 00f7 f727     ..'..'..'..'..'.
  40d404:	2700 00f7 0027 0000 0000 0000 0000 0000     .'..'...........
  40d414:	f700 2700 00f7 f727 2700 00f7 0027 0000     ...'..'..'..'...
	...
  40d434:	0000 00f7 f727 2700 00f7 f727 2700 00f7     ....'..'..'..'..
  40d444:	f727 2700 0000 0000 0000 0000 f700 2700     '..'...........'
  40d454:	00f7 f727 2700 00f7 f727 2700 00f7 f727     ..'..'..'..'..'.
  40d464:	2700 0000 0000 0000 0000 0000 0000 0000     .'..............
  40d474:	f700 2700 00f7 f727 2700 00f7 f727 2700     ...'..'..'..'..'
  40d484:	00f7 f727 2700 0000 f700 2700 00f7 f727     ..'..'.....'..'.
  40d494:	2700 00f7 0027 0000 0000 f700 2700 00f7     .'..'........'..
  40d4a4:	f727 2700 00f7 f727 2700 0000 f700 2700     '..'..'..'.....'
  40d4b4:	00f7 f727 2700 00f7 f727 2700 00f7 f727     ..'..'..'..'..'.
  40d4c4:	2700 0000 f700 2700 00f7 f727 2700 00f7     .'.....'..'..'..
  40d4d4:	f727 2700 00f7 0027 0000 0000 0000 0000     '..'..'.........
  40d4e4:	0000 f700 2700 00f7 f727 2700 00f7 f727     .....'..'..'..'.
  40d4f4:	2700 0000 0000 0000 0000 f700 2700 00f7     .'...........'..
  40d504:	f727 2700 00f7 f727 2700 00f7 f727 2700     '..'..'..'..'..'
  40d514:	0000 f700 2700 00f7 f727 2700 0000 0000     .....'..'..'....
  40d524:	0000 00f7 f727 2700 00f7 0027 0000 0000     ....'..'..'.....
  40d534:	f700 2700 00f7 f727 2700 00f7 f727 2700     ...'..'..'..'..'
  40d544:	00f7 0027 0000 0000 f700 2700 00f7 f727     ..'........'..'.
  40d554:	2700 0000 0000 0000 0000 f700 2700 00f7     .'...........'..
  40d564:	f727 2700 00f7 0027 0000 0000 0000 0000     '..'..'.........
  40d574:	00f7 f727 2700 00f7 f727 2700 00f7 f727     ..'..'..'..'..'.
  40d584:	2700 00f7 f727 2700 0000 0000 0000 00f7     .'..'..'........
  40d594:	f727 2700 00f7 f727 2700 0000 0000 0000     '..'..'..'......
  40d5a4:	0000 f700 2700 00f7 f727 2700 00f7 f727     .....'..'..'..'.
  40d5b4:	2700 00f7 f727 2700 0000 0000 0000 0000     .'..'..'........
  40d5c4:	f700 2700 00f7 f727 2700 00f7 0027 0000     ...'..'..'..'...
  40d5d4:	0000 0000 0000 00f7 f727 2700 00f7 f727     ........'..'..'.
  40d5e4:	2700 00f7 f727 2700 00f7 f727 2700 0000     .'..'..'..'..'..
  40d5f4:	0000 0000 0000 f700 2700 00f7 f727 2700     .........'..'..'
  40d604:	00f7 0027 0000 0000 0000 0000 0000 0000     ..'.............
	...
  40d61c:	00f7 f727 2700 00f7 f727 2700 00f7 f727     ..'..'..'..'..'.
  40d62c:	2700 00f7 0027 0000 0000 f700 2700 00f7     .'..'........'..
  40d63c:	f727 2700 00f7 f727 2700 00f7 f727 2700     '..'..'..'..'..'
	...
  40d658:	0000 f700 2700 00f7 f727 2700 00f7 f727     .....'..'..'..'.
  40d668:	2700 00f7 f727 2700 0000 f700 2700 00f7     .'..'..'.....'..
  40d678:	f727 2700 00f7 0027 0000 0000 f700 2700     '..'..'........'
  40d688:	00f7 f727 2700 00f7 f727 2700 0000 f700     ..'..'..'..'....
  40d698:	2700 00f7 f727 2700 00f7 f727 2700 00f7     .'..'..'..'..'..
  40d6a8:	f727 2700 0000 f700 2700 00f7 f727 2700     '..'.....'..'..'
  40d6b8:	00f7 f727 2700 00f7 f727 2700 0000 0000     ..'..'..'..'....
  40d6c8:	0000 00f7 f727 2700 00f7 f727 2700 00f7     ....'..'..'..'..
  40d6d8:	f727 2700 00f7 0027 0000 0000 f700 2700     '..'..'........'
  40d6e8:	00f7 f727 2700 00f7 f727 2700 00f7 f727     ..'..'..'..'..'.
  40d6f8:	2700 0000 f700 2700 00f7 f727 2700 00f7     .'.....'..'..'..
  40d708:	0027 0000 00f7 f727 2700 00f7 0027 0000     '.....'..'..'...
  40d718:	0000 f700 2700 00f7 f727 2700 00f7 f727     .....'..'..'..'.
  40d728:	2700 00f7 f727 2700 0000 f700 2700 00f7     .'..'..'.....'..
  40d738:	f727 2700 0000 0000 0000 0000 f700 2700     '..'...........'
  40d748:	00f7 f727 2700 00f7 0027 0000 0000 0000     ..'..'..'.......
  40d758:	0000 00f7 f727 2700 00f7 f727 2700 00f7     ....'..'..'..'..
  40d768:	f727 2700 00f7 f727 2700 0000 f700 2700     '..'..'..'.....'
  40d778:	00f7 f727 2700 00f7 f727 2700 0000 0000     ..'..'..'..'....
  40d788:	0000 0000 f700 2700 00f7 f727 2700 00f7     .......'..'..'..
  40d798:	f727 2700 00f7 f727 2700 0000 0000 0000     '..'..'..'......
  40d7a8:	0000 f700 2700 00f7 f727 2700 00f7 f727     .....'..'..'..'.
  40d7b8:	2700 0000 0000 0000 00f7 f727 2700 00f7     .'........'..'..
  40d7c8:	f727 2700 00f7 f727 2700 00f7 f727 2700     '..'..'..'..'..'
	...
  40d7e0:	f700 2700 00f7 f727 2700 00f7 0027 0000     ...'..'..'..'...
	...
  40d800:	0000 00f7 f727 2700 00f7 f727 2700 00f7     ....'..'..'..'..
  40d810:	f727 2700 00f7 f727 2700 0000 f700 2700     '..'..'..'.....'
  40d820:	00f7 f727 2700 00f7 f727 2700 00f7 f727     ..'..'..'..'..'.
  40d830:	2700 0000 0000 0000 0000 0000 0000 0000     .'..............
  40d840:	f700 2700 00f7 f727 2700 00f7 f727 2700     ...'..'..'..'..'
  40d850:	00f7 f727 2700 0000 f700 2700 00f7 f727     ..'..'.....'..'.
  40d860:	2700 00f7 f727 2700 0000 f700 2700 00f7     .'..'..'.....'..
  40d870:	f727 2700 00f7 f727 2700 0000 f700 2700     '..'..'..'.....'
  40d880:	00f7 f727 2700 00f7 f727 2700 00f7 f727     ..'..'..'..'..'.
  40d890:	2700 0000 f700 2700 00f7 f727 2700 00f7     .'.....'..'..'..
  40d8a0:	f727 2700 00f7 f727 2700 00f7 0027 0000     '..'..'..'..'...
  40d8b0:	00f7 f727 2700 00f7 f727 2700 00f7 f727     ..'..'..'..'..'.
  40d8c0:	2700 00f7 f727 2700 0000 f700 2700 00f7     .'..'..'.....'..
  40d8d0:	f727 2700 00f7 f727 2700 00f7 f727 2700     '..'..'..'..'..'
  40d8e0:	0000 f700 2700 00f7 f727 2700 00f7 0027     .....'..'..'..'.
  40d8f0:	0000 00f7 f727 2700 00f7 0027 0000 00f7     ....'..'..'.....
  40d900:	f727 2700 00f7 f727 2700 00f7 f727 2700     '..'..'..'..'..'
  40d910:	00f7 f727 2700 0000 f700 2700 00f7 f727     ..'..'.....'..'.
  40d920:	2700 0000 0000 0000 0000 f700 2700 00f7     .'...........'..
  40d930:	f727 2700 00f7 f727 2700 0000 0000 0000     '..'..'..'......
  40d940:	00f7 f727 2700 00f7 0027 0000 0000 f700     ..'..'..'.......
  40d950:	2700 00f7 f727 2700 0000 f700 2700 00f7     .'..'..'.....'..
  40d960:	f727 2700 00f7 f727 2700 0000 0000 0000     '..'..'..'......
  40d970:	0000 f700 2700 00f7 f727 2700 0000 f700     .....'..'..'....
  40d980:	2700 00f7 f727 2700 00f7 0027 0000 0000     .'..'..'..'.....
  40d990:	f700 2700 00f7 f727 2700 00f7 f727 2700     ...'..'..'..'..'
  40d9a0:	0000 0000 0000 00f7 f727 2700 00f7 f727     ........'..'..'.
  40d9b0:	2700 0000 f700 2700 00f7 f727 2700 0000     .'.....'..'..'..
  40d9c0:	0000 0000 00f7 f727 2700 00f7 f727 2700     ......'..'..'..'
  40d9d0:	00f7 0027 0000 0000 0000 0000 0000 0000     ..'.............
	...
  40d9e8:	00f7 f727 2700 00f7 0027 0000 00f7 f727     ..'..'..'.....'.
  40d9f8:	2700 00f7 f727 2700 0000 f700 2700 00f7     .'..'..'.....'..
  40da08:	f727 2700 0000 0000 0000 0000 0000 0000     '..'............
	...
  40da24:	0000 f700 2700 00f7 f727 2700 0000 0000     .....'..'..'....
	...
  40da3c:	0000 f700 2700 00f7 f727 2700 00f7 f727     .....'..'..'..'.
  40da4c:	2700 0000 f700 2700 00f7 f727 2700 00f7     .'.....'..'..'..
  40da5c:	f727 2700 0000 f700 2700 00f7 f727 2700     '..'.....'..'..'
	...
  40da78:	0000 f700 2700 00f7 f727 2700 0000 f700     .....'..'..'....
  40da88:	2700 00f7 f727 2700 00f7 0027 0000 00f7     .'..'..'..'.....
  40da98:	f727 2700 00f7 0027 0000 00f7 f727 2700     '..'..'.....'..'
  40daa8:	00f7 f727 2700 0000 f700 2700 00f7 f727     ..'..'.....'..'.
  40dab8:	2700 0000 0000 0000 0000 0000 0000 0000     .'..............
  40dac8:	f700 2700 00f7 f727 2700 00f7 0027 0000     ...'..'..'..'...
  40dad8:	00f7 f727 2700 00f7 0027 0000 00f7 f727     ..'..'..'.....'.
  40dae8:	2700 00f7 f727 2700 0000 f700 2700 00f7     .'..'..'.....'..
  40daf8:	f727 2700 0000 f700 2700 00f7 f727 2700     '..'.....'..'..'
	...
  40db10:	f700 2700 00f7 f727 2700 00f7 f727 2700     ...'..'..'..'..'
  40db20:	0000 0000 0000 00f7 f727 2700 00f7 0027     ........'..'..'.
  40db30:	0000 0000 f700 2700 00f7 f727 2700 0000     .......'..'..'..
  40db40:	f700 2700 00f7 f727 2700 00f7 f727 2700     ...'..'..'..'..'
	...
  40db58:	f700 2700 00f7 f727 2700 0000 f700 2700     ...'..'..'.....'
  40db68:	00f7 f727 2700 00f7 0027 0000 0000 f700     ..'..'..'.......
  40db78:	2700 00f7 f727 2700 00f7 f727 2700 0000     .'..'..'..'..'..
  40db88:	0000 0000 00f7 f727 2700 00f7 f727 2700     ......'..'..'..'
  40db98:	0000 f700 2700 00f7 f727 2700 0000 0000     .....'..'..'....
  40dba8:	0000 00f7 f727 2700 00f7 f727 2700 00f7     ....'..'..'..'..
  40dbb8:	f727 2700 0000 0000 0000 0000 0000 0000     '..'............
  40dbc8:	0000 0000 0000 00f7 f727 2700 00f7 0027     ........'..'..'.
  40dbd8:	0000 00f7 f727 2700 00f7 f727 2700 0000     ....'..'..'..'..
  40dbe8:	f700 2700 00f7 f727 2700 0000 0000 0000     ...'..'..'......
	...
  40dc0c:	f700 2700 00f7 f727 2700 0000 0000 0000     ...'..'..'......
	...
  40dc24:	f700 2700 00f7 f727 2700 00f7 f727 2700     ...'..'..'..'..'
  40dc34:	0000 f700 2700 00f7 f727 2700 00f7 f727     .....'..'..'..'.
  40dc44:	2700 0000 f700 2700 00f7 f727 2700 0000     .'.....'..'..'..
	...
  40dc60:	f700 2700 00f7 f727 2700 0000 0000 0000     ...'..'..'......
  40dc70:	00f7 f727 2700 00f7 0027 0000 00f7 f727     ..'..'..'.....'.
  40dc80:	2700 00f7 0027 0000 00f7 f727 2700 00f7     .'..'.....'..'..
  40dc90:	f727 2700 0000 f700 2700 00f7 f727 2700     '..'.....'..'..'
	...
  40dcac:	0000 f700 2700 00f7 f727 2700 00f7 f727     .....'..'..'..'.
  40dcbc:	2700 00f7 f727 2700 00f7 0027 0000 00f7     .'..'..'..'.....
  40dccc:	f727 2700 00f7 0027 0000 0000 f700 2700     '..'..'........'
  40dcdc:	00f7 f727 2700 0000 f700 2700 00f7 f727     ..'..'.....'..'.
  40dcec:	2700 0000 0000 0000 0000 f700 2700 00f7     .'...........'..
  40dcfc:	f727 2700 00f7 f727 2700 0000 0000 0000     '..'..'..'......
  40dd0c:	00f7 f727 2700 00f7 0027 0000 0000 f700     ..'..'..'.......
  40dd1c:	2700 00f7 f727 2700 0000 f700 2700 00f7     .'..'..'.....'..
  40dd2c:	f727 2700 00f7 f727 2700 00f7 0027 0000     '..'..'..'..'...
  40dd3c:	0000 f700 2700 00f7 f727 2700 0000 f700     .....'..'..'....
  40dd4c:	2700 00f7 f727 2700 00f7 0027 0000 00f7     .'..'..'..'.....
  40dd5c:	f727 2700 00f7 f727 2700 00f7 f727 2700     '..'..'..'..'..'
  40dd6c:	0000 0000 0000 00f7 f727 2700 00f7 f727     ........'..'..'.
  40dd7c:	2700 0000 f700 2700 00f7 f727 2700 0000     .'.....'..'..'..
  40dd8c:	0000 0000 00f7 f727 2700 00f7 f727 2700     ......'..'..'..'
  40dd9c:	00f7 f727 2700 0000 0000 0000 0000 0000     ..'..'..........
	...
  40ddb4:	00f7 f727 2700 00f7 0027 0000 00f7 f727     ..'..'..'.....'.
  40ddc4:	2700 00f7 f727 2700 0000 f700 2700 00f7     .'..'..'.....'..
  40ddd4:	f727 2700 0000 0000 0000 0000 0000 0000     '..'............
	...
  40ddf0:	0000 f700 2700 00f7 f727 2700 0000 0000     .....'..'..'....
	...
  40de08:	0000 f700 2700 00f7 f727 2700 00f7 f727     .....'..'..'..'.
  40de18:	2700 00f7 f727 2700 00f7 f727 2700 00f7     .'..'..'..'..'..
  40de28:	f727 2700 0000 f700 2700 00f7 f727 2700     '..'.....'..'..'
	...
  40de44:	0000 f700 2700 00f7 f727 2700 0000 f700     .....'..'..'....
  40de54:	2700 00f7 f727 2700 00f7 0027 0000 00f7     .'..'..'..'.....
  40de64:	f727 2700 00f7 0027 0000 0000 0000 0000     '..'..'.........
	...
  40de7c:	f700 2700 00f7 f727 2700 0000 0000 0000     ...'..'..'......
	...
  40de94:	f700 2700 00f7 f727 2700 00f7 f727 2700     ...'..'..'..'..'
  40dea4:	00f7 f727 2700 00f7 0027 0000 00f7 f727     ..'..'..'.....'.
  40deb4:	2700 00f7 0027 0000 0000 f700 2700 00f7     .'..'........'..
  40dec4:	f727 2700 0000 f700 2700 00f7 f727 2700     '..'.....'..'..'
  40ded4:	0000 0000 0000 00f7 f727 2700 00f7 f727     ........'..'..'.
  40dee4:	2700 00f7 f727 2700 0000 0000 0000 00f7     .'..'..'........
  40def4:	f727 2700 00f7 0027 0000 00f7 f727 2700     '..'..'.....'..'
  40df04:	00f7 f727 2700 0000 f700 2700 00f7 f727     ..'..'.....'..'.
  40df14:	2700 00f7 f727 2700 00f7 0027 0000 0000     .'..'..'..'.....
  40df24:	f700 2700 00f7 f727 2700 00f7 f727 2700     ...'..'..'..'..'
  40df34:	00f7 f727 2700 0000 0000 0000 00f7 f727     ..'..'........'.
  40df44:	2700 00f7 f727 2700 00f7 f727 2700 0000     .'..'..'..'..'..
  40df54:	0000 0000 00f7 f727 2700 00f7 f727 2700     ......'..'..'..'
  40df64:	0000 f700 2700 00f7 f727 2700 0000 0000     .....'..'..'....
  40df74:	0000 00f7 f727 2700 00f7 f727 2700 00f7     ....'..'..'..'..
  40df84:	f727 2700 0000 0000 0000 0000 0000 0000     '..'............
  40df94:	0000 0000 0000 00f7 f727 2700 00f7 0027     ........'..'..'.
  40dfa4:	0000 00f7 f727 2700 00f7 f727 2700 0000     ....'..'..'..'..
  40dfb4:	f700 2700 00f7 f727 2700 00f7 f727 2700     ...'..'..'..'..'
  40dfc4:	00f7 0027 0000 0000 0000 0000 0000 0000     ..'.............
  40dfd4:	0000 0000 f700 2700 00f7 f727 2700 00f7     .......'..'..'..
  40dfe4:	f727 2700 00f7 0027 0000 0000 f700 2700     '..'..'........'
  40dff4:	00f7 f727 2700 00f7 f727 2700 00f7 f727     ..'..'..'..'..'.
  40e004:	2700 00f7 f727 2700 00f7 f727 2700 0000     .'..'..'..'..'..
  40e014:	f700 2700 00f7 f727 2700 00f7 f727 2700     ...'..'..'..'..'
  40e024:	00f7 0027 0000 0000 f700 2700 00f7 f727     ..'........'..'.
  40e034:	2700 00f7 f727 2700 00f7 f727 2700 00f7     .'..'..'..'..'..
  40e044:	0027 0000 00f7 f727 2700 00f7 0027 0000     '.....'..'..'...
	...
  40e060:	0000 f700 2700 00f7 f727 2700 00f7 f727     .....'..'..'..'.
  40e070:	2700 00f7 0027 0000 0000 f700 2700 00f7     .'..'........'..
  40e080:	f727 2700 00f7 f727 2700 00f7 f727 2700     '..'..'..'..'..'
  40e090:	00f7 0027 0000 00f7 f727 2700 00f7 0027     ..'.....'..'..'.
	...
  40e0b0:	f700 2700 00f7 f727 2700 0000 0000 0000     ...'..'..'......
  40e0c0:	00f7 f727 2700 00f7 f727 2700 00f7 f727     ..'..'..'..'..'.
  40e0d0:	2700 0000 0000 0000 00f7 f727 2700 00f7     .'........'..'..
  40e0e0:	f727 2700 00f7 f727 2700 00f7 f727 2700     '..'..'..'..'..'
  40e0f0:	0000 f700 2700 00f7 f727 2700 00f7 f727     .....'..'..'..'.
  40e100:	2700 00f7 0027 0000 0000 f700 2700 00f7     .'..'........'..
  40e110:	f727 2700 00f7 f727 2700 00f7 f727 2700     '..'..'..'..'..'
  40e120:	0000 0000 0000 00f7 f727 2700 00f7 f727     ........'..'..'.
  40e130:	2700 00f7 f727 2700 00f7 0027 0000 00f7     .'..'..'..'.....
  40e140:	f727 2700 00f7 f727 2700 0000 f700 2700     '..'..'..'.....'
  40e150:	00f7 f727 2700 0000 0000 0000 00f7 f727     ..'..'........'.
  40e160:	2700 00f7 f727 2700 00f7 f727 2700 0000     .'..'..'..'..'..
	...
  40e180:	00f7 f727 2700 00f7 0027 0000 00f7 f727     ..'..'..'.....'.
  40e190:	2700 00f7 f727 2700 0000 f700 2700 00f7     .'..'..'.....'..
  40e1a0:	f727 2700 00f7 f727 2700 00f7 0027 0000     '..'..'..'..'...
	...
  40e1bc:	0000 f700 2700 00f7 f727 2700 00f7 f727     .....'..'..'..'.
  40e1cc:	2700 00f7 0027 0000 0000 f700 2700 00f7     .'..'........'..
  40e1dc:	f727 2700 00f7 f727 2700 00f7 f727 2700     '..'..'..'..'..'
  40e1ec:	00f7 f727 2700 00f7 f727 2700 0000 f700     ..'..'..'..'....
  40e1fc:	2700 00f7 f727 2700 00f7 f727 2700 00f7     .'..'..'..'..'..
  40e20c:	0027 0000 0000 f700 2700 00f7 f727 2700     '........'..'..'
  40e21c:	00f7 f727 2700 00f7 f727 2700 0000 0000     ..'..'..'..'....
  40e22c:	0000 00f7 f727 2700 00f7 f727 2700 00f7     ....'..'..'..'..
  40e23c:	f727 2700 00f7 f727 2700 0000 f700 2700     '..'..'..'.....'
  40e24c:	00f7 f727 2700 00f7 f727 2700 00f7 0027     ..'..'..'..'..'.
  40e25c:	0000 0000 f700 2700 00f7 f727 2700 00f7     .......'..'..'..
  40e26c:	f727 2700 00f7 f727 2700 00f7 0027 0000     '..'..'..'..'...
  40e27c:	00f7 f727 2700 00f7 0027 0000 0000 0000     ..'..'..'.......
	...
  40e294:	0000 f700 2700 00f7 f727 2700 0000 0000     .....'..'..'....
  40e2a4:	0000 00f7 f727 2700 00f7 f727 2700 00f7     ....'..'..'..'..
  40e2b4:	f727 2700 00f7 0027 0000 00f7 f727 2700     '..'..'.....'..'
  40e2c4:	00f7 f727 2700 00f7 f727 2700 00f7 0027     ..'..'..'..'..'.
  40e2d4:	0000 00f7 f727 2700 00f7 f727 2700 00f7     ....'..'..'..'..
  40e2e4:	f727 2700 00f7 0027 0000 0000 f700 2700     '..'..'........'
  40e2f4:	00f7 f727 2700 00f7 f727 2700 00f7 f727     ..'..'..'..'..'.
  40e304:	2700 0000 0000 0000 00f7 f727 2700 00f7     .'........'..'..
  40e314:	f727 2700 00f7 f727 2700 00f7 0027 0000     '..'..'..'..'...
  40e324:	00f7 f727 2700 00f7 f727 2700 0000 f700     ..'..'..'..'....
  40e334:	2700 00f7 f727 2700 0000 0000 0000 00f7     .'..'..'........
  40e344:	f727 2700 00f7 f727 2700 00f7 f727 2700     '..'..'..'..'..'
	...
  40e364:	0000 00f7 f727 2700 00f7 0027 0000 00f7     ....'..'..'.....
  40e374:	f727 2700 00f7 f727 2700 0000 f700 2700     '..'..'..'.....'
  40e384:	00f7 f727 2700 00f7 f727 2700 00f7 0027     ..'..'..'..'..'.
	...
  40e3a4:	f700 2700 00f7 f727 2700 00f7 f727 2700     ...'..'..'..'..'
  40e3b4:	00f7 0027 0000 0000 f700 2700 00f7 f727     ..'........'..'.
  40e3c4:	2700 00f7 f727 2700 00f7 f727 2700 00f7     .'..'..'..'..'..
  40e3d4:	f727 2700 00f7 f727 2700 0000 f700 2700     '..'..'..'.....'
  40e3e4:	00f7 f727 2700 00f7 f727 2700 00f7 0027     ..'..'..'..'..'.
  40e3f4:	0000 0000 f700 2700 00f7 f727 2700 00f7     .......'..'..'..
  40e404:	f727 2700 00f7 f727 2700 0000 0000 0000     '..'..'..'......
  40e414:	00f7 f727 2700 00f7 f727 2700 00f7 f727     ..'..'..'..'..'.
  40e424:	2700 00f7 f727 2700 0000 f700 2700 00f7     .'..'..'.....'..
  40e434:	f727 2700 00f7 f727 2700 00f7 0027 0000     '..'..'..'..'...
  40e444:	0000 f700 2700 00f7 f727 2700 00f7 f727     .....'..'..'..'.
  40e454:	2700 00f7 f727 2700 00f7 0027 0000 00f7     .'..'..'..'.....
  40e464:	f727 2700 00f7 0027 0000 0000 0000 0000     '..'..'.........
	...
  40e47c:	f700 2700 00f7 f727 2700 0000 0000 0000     ...'..'..'......
  40e48c:	00f7 f727 2700 00f7 f727 2700 00f7 f727     ..'..'..'..'..'.
  40e49c:	2700 00f7 0027 0000 00f7 f727 2700 00f7     .'..'.....'..'..
  40e4ac:	f727 2700 00f7 0027 0000 0000 0000 0000     '..'..'.........
  40e4bc:	00f7 f727 2700 00f7 f727 2700 00f7 f727     ..'..'..'..'..'.
  40e4cc:	2700 00f7 0027 0000 0000 f700 2700 00f7     .'..'........'..
  40e4dc:	f727 2700 00f7 f727 2700 00f7 0027 0000     '..'..'..'..'...
  40e4ec:	0000 0000 0000 00f7 f727 2700 00f7 f727     ........'..'..'.
  40e4fc:	2700 00f7 f727 2700 00f7 0027 0000 00f7     .'..'..'..'.....
  40e50c:	f727 2700 00f7 f727 2700 0000 f700 2700     '..'..'..'.....'
  40e51c:	00f7 f727 2700 0000 f700 2700 00f7 f727     ..'..'.....'..'.
  40e52c:	2700 00f7 f727 2700 00f7 f727 2700 00f7     .'..'..'..'..'..
  40e53c:	0027 0000 0000 0000 0000 0000 0000 0000     '...............
  40e54c:	00f7 f727 2700 00f7 0027 0000 00f7 f727     ..'..'..'.....'.
  40e55c:	2700 00f7 f727 2700 0000 f700 2700 00f7     .'..'..'.....'..
  40e56c:	f727 2700 0000 0000 0000 0000 0000 0000     '..'............
	...
  40e588:	0000 f700 2700 00f7 f727 2700 0000 0000     .....'..'..'....
	...
  40e5a0:	0000 f700 2700 00f7 f727 2700 00f7 f727     .....'..'..'..'.
  40e5b0:	2700 00f7 f727 2700 00f7 f727 2700 00f7     .'..'..'..'..'..
  40e5c0:	f727 2700 0000 f700 2700 00f7 f727 2700     '..'.....'..'..'
	...
  40e5dc:	0000 f700 2700 00f7 f727 2700 00f7 f727     .....'..'..'..'.
  40e5ec:	2700 00f7 f727 2700 0000 0000 0000 00f7     .'..'..'........
  40e5fc:	f727 2700 00f7 f727 2700 00f7 f727 2700     '..'..'..'..'..'
  40e60c:	00f7 f727 2700 0000 f700 2700 00f7 f727     ..'..'.....'..'.
  40e61c:	2700 0000 0000 0000 0000 0000 0000 0000     .'..............
  40e62c:	f700 2700 00f7 f727 2700 00f7 f727 2700     ...'..'..'..'..'
  40e63c:	00f7 f727 2700 00f7 0027 0000 00f7 f727     ..'..'..'.....'.
  40e64c:	2700 00f7 0027 0000 0000 f700 2700 0000     .'..'........'..
  40e65c:	0000 0000 0000 f700 2700 00f7 f727 2700     .........'..'..'
  40e66c:	0000 0000 0000 00f7 f727 2700 00f7 f727     ........'..'..'.
  40e67c:	2700 00f7 f727 2700 00f7 0027 0000 00f7     .'..'..'..'.....
  40e68c:	f727 2700 00f7 0027 0000 0000 0000 0000     '..'..'.........
  40e69c:	0000 0000 0000 00f7 f727 2700 00f7 f727     ........'..'..'.
  40e6ac:	2700 00f7 f727 2700 00f7 f727 2700 0000     .'..'..'..'..'..
  40e6bc:	f700 2700 00f7 f727 2700 00f7 f727 2700     ...'..'..'..'..'
  40e6cc:	00f7 f727 2700 0000 0000 0000 00f7 f727     ..'..'........'.
  40e6dc:	2700 00f7 f727 2700 00f7 f727 2700 00f7     .'..'..'..'..'..
  40e6ec:	0027 0000 00f7 f727 2700 00f7 f727 2700     '.....'..'..'..'
  40e6fc:	0000 f700 2700 00f7 f727 2700 0000 f700     .....'..'..'....
  40e70c:	2700 00f7 f727 2700 00f7 f727 2700 00f7     .'..'..'..'..'..
  40e71c:	f727 2700 00f7 0027 0000 0000 0000 0000     '..'..'.........
  40e72c:	0000 0000 0000 00f7 f727 2700 00f7 0027     ........'..'..'.
  40e73c:	0000 00f7 f727 2700 00f7 f727 2700 0000     ....'..'..'..'..
  40e74c:	f700 2700 00f7 f727 2700 0000 0000 0000     ...'..'..'......
	...
  40e770:	f700 2700 00f7 f727 2700 0000 0000 0000     ...'..'..'......
	...
  40e788:	f700 2700 00f7 f727 2700 00f7 f727 2700     ...'..'..'..'..'
  40e798:	00f7 f727 2700 00f7 f727 2700 00f7 f727     ..'..'..'..'..'.
  40e7a8:	2700 0000 f700 2700 00f7 f727 2700 0000     .'.....'..'..'..
	...
  40e7c4:	f700 2700 00f7 f727 2700 00f7 f727 2700     ...'..'..'..'..'
  40e7d4:	00f7 f727 2700 0000 0000 0000 00f7 f727     ..'..'........'.
  40e7e4:	2700 00f7 0027 0000 00f7 f727 2700 00f7     .'..'.....'..'..
  40e7f4:	f727 2700 0000 f700 2700 00f7 f727 2700     '..'.....'..'..'
	...
  40e810:	0000 f700 2700 00f7 f727 2700 00f7 f727     .....'..'..'..'.
  40e820:	2700 00f7 f727 2700 00f7 0027 0000 00f7     .'..'..'..'.....
  40e830:	f727 2700 00f7 0027 0000 0000 f700 2700     '..'..'........'
  40e840:	00f7 f727 2700 0000 f700 2700 00f7 f727     ..'..'.....'..'.
  40e850:	2700 0000 0000 0000 00f7 f727 2700 00f7     .'........'..'..
  40e860:	f727 2700 00f7 f727 2700 00f7 0027 0000     '..'..'..'..'...
  40e870:	00f7 f727 2700 00f7 0027 0000 0000 0000     ..'..'..'.......
	...
  40e888:	00f7 f727 2700 00f7 f727 2700 00f7 f727     ..'..'..'..'..'.
  40e898:	2700 00f7 f727 2700 0000 f700 2700 00f7     .'..'..'.....'..
  40e8a8:	f727 2700 00f7 f727 2700 00f7 f727 2700     '..'..'..'..'..'
  40e8b8:	0000 f700 2700 00f7 f727 2700 00f7 f727     .....'..'..'..'.
  40e8c8:	2700 00f7 f727 2700 00f7 0027 0000 00f7     .'..'..'..'.....
  40e8d8:	f727 2700 00f7 f727 2700 0000 f700 2700     '..'..'..'.....'
  40e8e8:	00f7 f727 2700 0000 f700 2700 00f7 f727     ..'..'.....'..'.
  40e8f8:	2700 00f7 f727 2700 00f7 f727 2700 00f7     .'..'..'..'..'..
  40e908:	0027 0000 0000 0000 0000 0000 0000 0000     '...............
  40e918:	00f7 f727 2700 00f7 0027 0000 00f7 f727     ..'..'..'.....'.
  40e928:	2700 00f7 f727 2700 0000 f700 2700 00f7     .'..'..'.....'..
  40e938:	f727 2700 0000 0000 0000 0000 0000 0000     '..'............
	...
  40e954:	0000 f700 2700 00f7 f727 2700 0000 0000     .....'..'..'....
	...
  40e96c:	0000 f700 2700 00f7 f727 2700 0000 f700     .....'..'..'....
  40e97c:	2700 00f7 f727 2700 00f7 f727 2700 00f7     .'..'..'..'..'..
  40e98c:	f727 2700 0000 f700 2700 00f7 f727 2700     '..'.....'..'..'
	...
  40e9a8:	0000 f700 2700 00f7 f727 2700 0000 f700     .....'..'..'....
  40e9b8:	2700 00f7 f727 2700 0000 0000 0000 00f7     .'..'..'........
  40e9c8:	f727 2700 00f7 0027 0000 00f7 f727 2700     '..'..'.....'..'
  40e9d8:	00f7 f727 2700 0000 f700 2700 00f7 f727     ..'..'.....'..'.
  40e9e8:	2700 0000 0000 0000 0000 0000 0000 0000     .'..............
  40e9f8:	f700 2700 00f7 f727 2700 0000 f700 2700     ...'..'..'.....'
  40ea08:	00f7 f727 2700 00f7 0027 0000 00f7 f727     ..'..'..'.....'.
  40ea18:	2700 00f7 0027 0000 0000 f700 2700 00f7     .'..'........'..
  40ea28:	f727 2700 0000 f700 2700 00f7 f727 2700     '..'.....'..'..'
  40ea38:	0000 f700 2700 00f7 f727 2700 00f7 f727     .....'..'..'..'.
  40ea48:	2700 00f7 f727 2700 00f7 0027 0000 00f7     .'..'..'..'.....
  40ea58:	f727 2700 00f7 0027 0000 0000 0000 0000     '..'..'.........
  40ea68:	0000 0000 0000 00f7 f727 2700 00f7 0027     ........'..'..'.
  40ea78:	0000 0000 f700 2700 00f7 f727 2700 0000     .......'..'..'..
  40ea88:	f700 2700 00f7 f727 2700 0000 f700 2700     ...'..'..'.....'
  40ea98:	00f7 f727 2700 0000 f700 2700 00f7 f727     ..'..'.....'..'.
  40eaa8:	2700 00f7 0027 0000 00f7 f727 2700 00f7     .'..'.....'..'..
  40eab8:	0027 0000 00f7 f727 2700 00f7 f727 2700     '.....'..'..'..'
  40eac8:	00f7 f727 2700 00f7 f727 2700 0000 f700     ..'..'..'..'....
  40ead8:	2700 00f7 f727 2700 0000 0000 0000 00f7     .'..'..'........
  40eae8:	f727 2700 00f7 0027 0000 0000 0000 0000     '..'..'.........
  40eaf8:	0000 0000 0000 00f7 f727 2700 00f7 0027     ........'..'..'.
  40eb08:	0000 00f7 f727 2700 00f7 f727 2700 0000     ....'..'..'..'..
  40eb18:	f700 2700 00f7 f727 2700 0000 0000 0000     ...'..'..'......
	...
  40eb3c:	f700 2700 00f7 f727 2700 0000 0000 0000     ...'..'..'......
	...
  40eb54:	f700 2700 00f7 f727 2700 0000 f700 2700     ...'..'..'.....'
  40eb64:	00f7 f727 2700 00f7 f727 2700 00f7 f727     ..'..'..'..'..'.
  40eb74:	2700 0000 f700 2700 00f7 f727 2700 0000     .'.....'..'..'..
	...
  40eb90:	f700 2700 00f7 f727 2700 0000 f700 2700     ...'..'..'.....'
  40eba0:	00f7 f727 2700 00f7 0027 0000 00f7 f727     ..'..'..'.....'.
  40ebb0:	2700 00f7 0027 0000 00f7 f727 2700 00f7     .'..'.....'..'..
  40ebc0:	f727 2700 0000 f700 2700 00f7 f727 2700     '..'.....'..'..'
	...
  40ebdc:	0000 f700 2700 00f7 f727 2700 0000 f700     .....'..'..'....
  40ebec:	2700 00f7 f727 2700 00f7 0027 0000 00f7     .'..'..'..'.....
  40ebfc:	f727 2700 00f7 f727 2700 0000 f700 2700     '..'..'..'.....'
  40ec0c:	00f7 f727 2700 0000 f700 2700 00f7 f727     ..'..'.....'..'.
  40ec1c:	2700 0000 f700 2700 00f7 f727 2700 00f7     .'.....'..'..'..
  40ec2c:	0027 0000 00f7 f727 2700 00f7 0027 0000     '.....'..'..'...
  40ec3c:	00f7 f727 2700 00f7 0027 0000 0000 0000     ..'..'..'.......
	...
  40ec54:	00f7 f727 2700 00f7 0027 0000 0000 f700     ..'..'..'.......
  40ec64:	2700 00f7 f727 2700 0000 f700 2700 00f7     .'..'..'.....'..
  40ec74:	f727 2700 0000 f700 2700 00f7 f727 2700     '..'.....'..'..'
  40ec84:	00f7 f727 2700 00f7 f727 2700 0000 0000     ..'..'..'..'....
  40ec94:	0000 00f7 f727 2700 00f7 f727 2700 00f7     ....'..'..'..'..
  40eca4:	f727 2700 00f7 f727 2700 00f7 f727 2700     '..'..'..'..'..'
  40ecb4:	00f7 f727 2700 0000 f700 2700 00f7 f727     ..'..'.....'..'.
  40ecc4:	2700 0000 0000 0000 00f7 f727 2700 00f7     .'........'..'..
  40ecd4:	0027 0000 0000 0000 0000 0000 0000 0000     '...............
  40ece4:	00f7 f727 2700 00f7 f727 2700 00f7 f727     ..'..'..'..'..'.
  40ecf4:	2700 00f7 0027 0000 0000 f700 2700 00f7     .'..'........'..
  40ed04:	f727 2700 00f7 f727 2700 00f7 f727 2700     '..'..'..'..'..'
	...
  40ed20:	0000 f700 2700 00f7 f727 2700 00f7 f727     .....'..'..'..'.
  40ed30:	2700 00f7 f727 2700 0000 f700 2700 00f7     .'..'..'.....'..
  40ed40:	f727 2700 0000 f700 2700 00f7 0027 0000     '..'.....'..'...
  40ed50:	00f7 f727 2700 00f7 f727 2700 0000 f700     ..'..'..'..'....
  40ed60:	2700 00f7 f727 2700 00f7 f727 2700 00f7     .'..'..'..'..'..
  40ed70:	f727 2700 0000 f700 2700 00f7 f727 2700     '..'.....'..'..'
  40ed80:	0000 f700 2700 00f7 f727 2700 00f7 0027     .....'..'..'..'.
  40ed90:	0000 00f7 f727 2700 00f7 f727 2700 00f7     ....'..'..'..'..
  40eda0:	f727 2700 00f7 0027 0000 0000 f700 2700     '..'..'........'
  40edb0:	00f7 f727 2700 00f7 f727 2700 00f7 f727     ..'..'..'..'..'.
  40edc0:	2700 0000 f700 2700 00f7 f727 2700 0000     .'.....'..'..'..
  40edd0:	f700 2700 00f7 f727 2700 00f7 0027 0000     ...'..'..'..'...
  40ede0:	00f7 f727 2700 00f7 f727 2700 00f7 f727     ..'..'..'..'..'.
  40edf0:	2700 00f7 f727 2700 0000 f700 2700 00f7     .'..'..'.....'..
  40ee00:	f727 2700 0000 f700 2700 00f7 f727 2700     '..'.....'..'..'
  40ee10:	0000 0000 0000 00f7 f727 2700 00f7 f727     ........'..'..'.
  40ee20:	2700 00f7 f727 2700 00f7 0027 0000 0000     .'..'..'..'.....
  40ee30:	0000 0000 0000 f700 2700 00f7 f727 2700     .........'..'..'
  40ee40:	00f7 0027 0000 0000 f700 2700 00f7 f727     ..'........'..'.
  40ee50:	2700 0000 f700 2700 00f7 f727 2700 0000     .'.....'..'..'..
  40ee60:	f700 2700 00f7 f727 2700 00f7 f727 2700     ...'..'..'..'..'
  40ee70:	00f7 f727 2700 0000 0000 0000 00f7 f727     ..'..'........'.
  40ee80:	2700 00f7 f727 2700 00f7 f727 2700 00f7     .'..'..'..'..'..
  40ee90:	f727 2700 00f7 f727 2700 00f7 0027 0000     '..'..'..'..'...
  40eea0:	0000 f700 2700 00f7 f727 2700 0000 0000     .....'..'..'....
  40eeb0:	0000 00f7 f727 2700 00f7 0027 0000 0000     ....'..'..'.....
	...
  40eec8:	0000 00f7 f727 2700 00f7 f727 2700 00f7     ....'..'..'..'..
  40eed8:	f727 2700 00f7 0027 0000 0000 f700 2700     '..'..'........'
  40eee8:	00f7 f727 2700 00f7 f727 2700 00f7 f727     ..'..'..'..'..'.
  40eef8:	2700 0000 0000 0000 0000 0000 0000 0000     .'..............
  40ef08:	f700 2700 00f7 f727 2700 00f7 f727 2700     ...'..'..'..'..'
  40ef18:	00f7 f727 2700 0000 f700 2700 00f7 f727     ..'..'.....'..'.
  40ef28:	2700 0000 0000 0000 0000 0000 0000 00f7     .'..............
  40ef38:	f727 2700 00f7 f727 2700 0000 f700 2700     '..'..'..'.....'
  40ef48:	00f7 f727 2700 00f7 f727 2700 00f7 f727     ..'..'..'..'..'.
  40ef58:	2700 0000 f700 2700 00f7 f727 2700 0000     .'.....'..'..'..
  40ef68:	0000 0000 00f7 f727 2700 00f7 0027 0000     ......'..'..'...
  40ef78:	00f7 f727 2700 00f7 f727 2700 00f7 f727     ..'..'..'..'..'.
  40ef88:	2700 00f7 0027 0000 0000 f700 2700 00f7     .'..'........'..
  40ef98:	f727 2700 00f7 f727 2700 00f7 f727 2700     '..'..'..'..'..'
  40efa8:	0000 f700 2700 00f7 f727 2700 0000 0000     .....'..'..'....
  40efb8:	0000 00f7 f727 2700 00f7 0027 0000 0000     ....'..'..'.....
  40efc8:	f700 2700 00f7 f727 2700 00f7 f727 2700     ...'..'..'..'..'
  40efd8:	00f7 f727 2700 0000 f700 2700 00f7 f727     ..'..'.....'..'.
  40efe8:	2700 0000 f700 2700 00f7 f727 2700 0000     .'.....'..'..'..
  40eff8:	0000 0000 00f7 f727 2700 00f7 f727 2700     ......'..'..'..'
  40f008:	00f7 f727 2700 00f7 0027 0000 0000 0000     ..'..'..'.......
  40f018:	0000 0000 f700 2700 00f7 f727 2700 00f7     .......'..'..'..
  40f028:	0027 0000 0000 f700 2700 00f7 f727 2700     '........'..'..'
  40f038:	0000 f700 2700 00f7 f727 2700 0000 0000     .....'..'..'....
  40f048:	0000 00f7 f727 2700 00f7 f727 2700 00f7     ....'..'..'..'..
  40f058:	f727 2700 0000 0000 0000 00f7 f727 2700     '..'........'..'
  40f068:	00f7 f727 2700 00f7 f727 2700 00f7 f727     ..'..'..'..'..'.
  40f078:	2700 00f7 f727 2700 0000 0000 0000 00f7     .'..'..'........
  40f088:	f727 2700 00f7 f727 2700 0000 0000 0000     '..'..'..'......
  40f098:	00f7 f727 2700 00f7 0027 0000 0000 0000     ..'..'..'.......
	...
  40f0b0:	00f7 f727 2700 00f7 f727 2700 00f7 0027     ..'..'..'..'..'.
	...
  40f0c8:	0000 f700 2700 00f7 f727 2700 00f7 f727     .....'..'..'..'.
  40f0d8:	2700 00f7 f727 2700 0000 0000 0000 0000     .'..'..'........
  40f0e8:	0000 0000 0000 f700 2700 00f7 f727 2700     .........'..'..'
  40f0f8:	00f7 f727 2700 00f7 f727 2700 0000 f700     ..'..'..'..'....
  40f108:	2700 00f7 f727 2700 0000 0000 0000 0000     .'..'..'........
  40f118:	0000 0000 00f7 f727 2700 00f7 f727 2700     ......'..'..'..'
  40f128:	0000 f700 2700 00f7 f727 2700 00f7 f727     .....'..'..'..'.
  40f138:	2700 00f7 f727 2700 0000 f700 2700 00f7     .'..'..'.....'..
  40f148:	f727 2700 0000 0000 0000 00f7 f727 2700     '..'........'..'
  40f158:	00f7 0027 0000 0000 f700 2700 00f7 f727     ..'........'..'.
  40f168:	2700 00f7 f727 2700 0000 0000 0000 0000     .'..'..'........
  40f178:	f700 2700 00f7 f727 2700 00f7 f727 2700     ...'..'..'..'..'
  40f188:	00f7 f727 2700 0000 f700 2700 00f7 f727     ..'..'.....'..'.
  40f198:	2700 0000 0000 0000 00f7 f727 2700 00f7     .'........'..'..
  40f1a8:	0027 0000 0000 0000 0000 00f7 f727 2700     '...........'..'
  40f1b8:	00f7 f727 2700 0000 0000 0000 0000 f700     ..'..'..........
  40f1c8:	2700 00f7 f727 2700 0000 f700 2700 00f7     .'..'..'.....'..
  40f1d8:	f727 2700 0000 0000 0000 00f7 f727 2700     '..'........'..'
  40f1e8:	00f7 f727 2700 0000                         ..'..'..

0040f1f0 <image_data_icone_travar>:
	...
  40f1fc:	4d4d 4d4d 4d4d 4d4d 4d4d 4d4d 4d4d 4d4d     MMMMMMMMMMMMMMMM
  40f20c:	4d4d 4d4d 4d4d 4d4d 0000 0000 0000 0000     MMMMMMMM........
	...
  40f22c:	4d4d 4d4d 4d4d 4d4d 4d4d 4d4d 4d4d 4d4d     MMMMMMMMMMMMMMMM
  40f23c:	4d4d 4d4d 4d4d 4d4d 4d4d 4d4d 4d4d 0000     MMMMMMMMMMMMMM..
	...
  40f25c:	4d4d 4d4d 4d4d 4d4d 4d4d 4d4d 4d4d 4d4d     MMMMMMMMMMMMMMMM
  40f26c:	4d4d 4d4d 4d4d 4d4d 4d4d 4d4d 4d4d 4d4d     MMMMMMMMMMMMMMMM
  40f27c:	4d4d 4d4d 0000 0000 0000 0000 0000 0000     MMMM............
  40f28c:	0000 4d00 4d4d 4d4d 4d4d 4d4d 4d4d 4d4d     ...MMMMMMMMMMMMM
  40f29c:	4d4d 4d4d 004d 0000 4d4d 4d4d 4d4d 4d4d     MMMMM...MMMMMMMM
  40f2ac:	4d4d 4d4d 4d4d 4d4d 4d4d 0000 0000 0000     MMMMMMMMMM......
  40f2bc:	0000 0000 0000 4d4d 4d4d 4d4d 4d4d 4d4d     ......MMMMMMMMMM
  40f2cc:	4d4d 0000 0000 0000 0000 0000 0000 0000     MM..............
  40f2dc:	4d00 4d4d 4d4d 4d4d 4d4d 4d4d 004d 0000     .MMMMMMMMMMMM...
  40f2ec:	0000 0000 0000 4d4d 4d4d 4d4d 4d4d 4d4d     ......MMMMMMMMMM
  40f2fc:	4d4d 0000 0000 0000 0000 0000 0000 0000     MM..............
  40f30c:	0000 0000 4d4d 4d4d 4d4d 4d4d 4d4d 4d4d     ....MMMMMMMMMMMM
	...
  40f324:	4d00 4d4d 4d4d 4d4d 4d4d 4d4d 004d 0000     .MMMMMMMMMMMM...
	...
  40f340:	0000 4d00 4d4d 4d4d 4d4d 4d4d 4d4d 004d     ...MMMMMMMMMMMM.
	...
  40f358:	4d4d 4d4d 4d4d 4d4d 4d4d 4d4d 0000 0000     MMMMMMMMMMMM....
	...
  40f378:	4d00 4d4d 4d4d 4d4d 4d4d 0000 0000 0000     .MMMMMMMMM......
  40f388:	0000 4d00 4d4d 4d4d 4d4d 4d4d 4d4d 004d     ...MMMMMMMMMMMM.
	...
  40f3bc:	0000 4d4d 4d4d 4d4d 4d4d 4d4d 4d4d 0000     ..MMMMMMMMMMMM..
	...
  40f3f0:	4d00 4d4d 4d4d 4d4d 4d4d 4d4d 004d 0000     .MMMMMMMMMMMM...
	...
  40f420:	4d00 4d4d 4d4d 4d4d 4d4d 4d4d 4d4d 4d4d     .MMMMMMMMMMMMMMM
  40f430:	4d4d 4d4d 4d4d 4d4d 4d4d 4d4d 4d4d 4d4d     MMMMMMMMMMMMMMMM
  40f440:	4d4d 4d4d 4d4d 4d4d 4d4d 4d4d 4d4d 4d4d     MMMMMMMMMMMMMMMM
  40f450:	4d4d 4d4d 4d4d 4d4d 4d4d 4d4d 4d4d 4d4d     MMMMMMMMMMMMMMMM
  40f460:	4d4d 4d4d 4d4d 4d4d 4d4d 4d4d 4d4d 4d4d     MMMMMMMMMMMMMMMM
  40f470:	4d4d 4d4d 4d4d 4d4d 4d4d 4d4d 4d4d 4d4d     MMMMMMMMMMMMMMMM
  40f480:	4d4d 4d4d 4d4d 4d4d 4d4d 4d4d 4d4d 4d4d     MMMMMMMMMMMMMMMM
  40f490:	4d4d 4d4d 4d4d 4d4d 4d4d 4d4d 4d4d 4d4d     MMMMMMMMMMMMMMMM
  40f4a0:	4d4d 4d4d 4d4d 4d4d 4d4d 4d4d 4d4d 4d4d     MMMMMMMMMMMMMMMM
  40f4b0:	4d4d 4d4d 4d4d 4d4d 4d4d 4d4d 4d4d 4d4d     MMMMMMMMMMMMMMMM
  40f4c0:	4d4d 4d4d 4d4d 4d4d 4d4d 4d4d 4d4d 4d4d     MMMMMMMMMMMMMMMM
  40f4d0:	4d4d 4d4d 4d4d 4d4d 4d4d 4d4d 4d4d 4d4d     MMMMMMMMMMMMMMMM
  40f4e0:	4d4d 4d4d 4d4d 4d4d 4d4d 4d4d 4d4d 4d4d     MMMMMMMMMMMMMMMM
  40f4f0:	4d4d 4d4d 4d4d 4d4d 4d4d 4d4d 4d4d 4d4d     MMMMMMMMMMMMMMMM
  40f500:	4d4d 4d4d 4d4d 4d4d 4d4d 4d4d 4d4d 4d4d     MMMMMMMMMMMMMMMM
  40f510:	4d4d 4d4d 4d4d 4d4d 4d4d 4d4d 4d4d 4d4d     MMMMMMMMMMMMMMMM
  40f520:	4d4d 4d4d 4d4d 4d4d 4d4d 4d4d 4d4d 4d4d     MMMMMMMMMMMMMMMM
  40f530:	4d4d 4d4d 4d4d 4d4d 4d4d 4d4d 4d4d 4d4d     MMMMMMMMMMMMMMMM
  40f540:	4d4d 4d4d 4d4d 4d4d 4d4d 4d4d 4d4d 4d4d     MMMMMMMMMMMMMMMM
  40f550:	4d4d 4d4d 4d4d 4d4d 4d4d 4d4d 4d4d 4d4d     MMMMMMMMMMMMMMMM
  40f560:	4d4d 4d4d 4d4d 4d4d 4d4d 4d4d 4d4d 4d4d     MMMMMMMMMMMMMMMM
  40f570:	4d4d 4d4d 4d4d 4d4d 4d4d 4d4d 4d4d 4d4d     MMMMMMMMMMMMMMMM
  40f580:	4d4d 4d4d 4d4d 4d4d 4d4d 4d4d 4d4d 4d4d     MMMMMMMMMMMMMMMM
  40f590:	4d4d 4d4d 4d4d 4d4d 4d4d 4d4d 4d4d 4d4d     MMMMMMMMMMMMMMMM
  40f5a0:	4d4d 4d4d 4d4d 4d4d 4d4d 4d4d 4d4d 4d4d     MMMMMMMMMMMMMMMM
  40f5b0:	4d4d 4d4d 4d4d 4d4d 4d4d 4d4d 4d4d 4d4d     MMMMMMMMMMMMMMMM
  40f5c0:	4d4d 4d4d 4d4d 4d4d 4d4d 4d4d 4d4d 4d4d     MMMMMMMMMMMMMMMM
  40f5d0:	4d4d 4d4d 4d4d 4d4d 4d4d 4d4d 4d4d 4d4d     MMMMMMMMMMMMMMMM
  40f5e0:	4d4d 4d4d 4d4d 4d4d 4d4d 4d4d 4d4d 4d4d     MMMMMMMMMMMMMMMM
  40f5f0:	4d4d 4d4d 4d4d 4d4d 4d4d 4d4d 4d4d 4d4d     MMMMMMMMMMMMMMMM
  40f600:	4d4d 4d4d 4d4d 4d4d 4d4d 4d4d 4d4d 4d4d     MMMMMMMMMMMMMMMM
  40f610:	4d4d 4d4d 4d4d 4d4d 4d4d 4d4d 4d4d 4d4d     MMMMMMMMMMMMMMMM
  40f620:	4d4d 4d4d 4d4d 4d4d 4d4d 4d4d 4d4d 4d4d     MMMMMMMMMMMMMMMM
  40f630:	4d4d 4d4d 4d4d 4d4d 4d4d 4d4d 4d4d 4d4d     MMMMMMMMMMMMMMMM
  40f640:	4d4d 4d4d 4d4d 4d4d 4d4d 4d4d 4d4d 4d4d     MMMMMMMMMMMMMMMM
  40f650:	4d4d 4d4d 4d4d 4d4d 4d4d 4d4d 4d4d 4d4d     MMMMMMMMMMMMMMMM
  40f660:	4d4d 4d4d 4d4d 4d4d 4d4d 4d4d 4d4d 4d4d     MMMMMMMMMMMMMMMM
  40f670:	4d4d 4d4d 4d4d 4d4d 4d4d 4d4d 4d4d 4d4d     MMMMMMMMMMMMMMMM
  40f680:	4d4d 0000 0000 0000                         MM......

0040f688 <image_data_titulo_andamento>:
  40f688:	ffff ffff ffff ffff ffff ffff ffff ffff     ................
  40f698:	ffff ffff 00ff 0000 ffff ffff ffff ffff     ................
  40f6a8:	ffff ffff 0000 0000 0000 ffff ffff ffff     ................
  40f6b8:	ffff ffff ffff 0000 0000 0000 0000 0000     ................
	...
  40f6d0:	0000 ff00 ffff ffff ffff ffff ffff 00ff     ................
	...
  40f6e8:	ffff ffff ffff ffff ffff ffff 0000 ff00     ................
  40f6f8:	ffff ffff ffff ffff 0000 0000 0000 ffff     ................
  40f708:	ffff ffff ffff ffff ffff ffff ffff ffff     ................
	...
  40f724:	ffff ffff ffff ffff ffff ffff 0000 0000     ................
  40f734:	0000 0000 ff00 ffff ffff ffff ffff ffff     ................
  40f744:	00ff 0000 0000 0000 0000 ffff ffff ffff     ................
  40f754:	ffff ffff ffff 0000 ff00 ffff ffff ffff     ................
  40f764:	ffff ffff ffff ffff ffff ffff ffff ffff     ................
  40f774:	ffff ffff ffff ffff ffff ffff 00ff 0000     ................
  40f784:	0000 ff00 ffff ffff ffff ffff ffff ffff     ................
  40f794:	ffff ffff ffff ffff ffff ffff ffff ffff     ................
  40f7a4:	ffff ffff 0000 ff00 ffff ffff ffff ffff     ................
  40f7b4:	ffff ffff ffff ffff 00ff 0000 ffff ffff     ................
  40f7c4:	ffff ffff ffff ffff ffff ffff ffff ffff     ................
  40f7d4:	00ff 0000 ffff ffff ffff ffff ffff ffff     ................
  40f7e4:	0000 0000 0000 ffff ffff ffff ffff ffff     ................
  40f7f4:	ffff 0000 0000 0000 0000 0000 0000 0000     ................
  40f804:	0000 0000 0000 ff00 ffff ffff ffff ffff     ................
  40f814:	ffff 00ff 0000 0000 0000 0000 ffff ffff     ................
  40f824:	ffff ffff ffff ffff 0000 ff00 ffff ffff     ................
  40f834:	ffff ffff 0000 0000 0000 ffff ffff ffff     ................
  40f844:	ffff ffff ffff ffff ffff ffff ffff 00ff     ................
	...
  40f85c:	ffff ffff ffff ffff ffff ffff ffff 00ff     ................
  40f86c:	0000 0000 ff00 ffff ffff ffff ffff ffff     ................
  40f87c:	ffff ffff 0000 0000 0000 ffff ffff ffff     ................
  40f88c:	ffff ffff ffff 0000 ff00 ffff ffff ffff     ................
  40f89c:	ffff ffff ffff ffff ffff ffff ffff ffff     ................
  40f8ac:	ffff ffff ffff ffff ffff ffff 00ff 0000     ................
  40f8bc:	0000 ff00 ffff ffff ffff ffff ffff ffff     ................
  40f8cc:	ffff ffff ffff ffff ffff ffff ffff ffff     ................
  40f8dc:	ffff ffff 0000 ff00 ffff ffff ffff ffff     ................
  40f8ec:	ffff ffff ffff ffff ffff ffff ffff ffff     ................
  40f8fc:	ffff ffff ffff ffff ffff ffff ffff ffff     ................
  40f90c:	00ff 0000 ffff ffff ffff ffff ffff ffff     ................
  40f91c:	0000 0000 0000 ffff ffff ffff ffff ffff     ................
  40f92c:	ffff 0000 0000 0000 0000 0000 0000 0000     ................
  40f93c:	0000 0000 0000 ff00 ffff ffff ffff ffff     ................
  40f94c:	ffff 00ff 0000 0000 0000 0000 ffff ffff     ................
  40f95c:	ffff ffff ffff ffff 0000 ff00 ffff ffff     ................
  40f96c:	ffff ffff 0000 0000 0000 ffff ffff ffff     ................
  40f97c:	ffff ffff ffff ffff ffff ffff ffff ffff     ................
  40f98c:	ffff 0000 0000 0000 ffff ffff ffff ffff     ................
  40f99c:	ffff ffff ffff 00ff 0000 0000 ff00 ffff     ................
  40f9ac:	ffff ffff ffff ffff ffff ffff 0000 ff00     ................
  40f9bc:	ffff ffff ffff ffff ffff ffff ffff 0000     ................
  40f9cc:	ff00 ffff ffff ffff ffff ffff ffff ffff     ................
  40f9dc:	ffff ffff ffff ffff ffff ffff ffff ffff     ................
  40f9ec:	ffff ffff ffff ffff 0000 ff00 ffff ffff     ................
  40f9fc:	ffff ffff ffff ffff ffff ffff ffff ffff     ................
  40fa0c:	ffff ffff ffff ffff ffff ffff ffff ffff     ................
  40fa1c:	ffff ffff ffff ffff ffff ffff ffff ffff     ................
  40fa2c:	ffff ffff ffff ffff ffff ffff 00ff 0000     ................
	...
  40fa48:	ffff ffff ffff ffff ffff ffff ffff ffff     ................
  40fa58:	ffff ffff ffff ffff ffff ffff ffff 0000     ................
	...
  40fa78:	0000 ff00 ffff ffff ffff ffff ffff ffff     ................
  40fa88:	ffff 0000 0000 0000 ffff ffff ffff ffff     ................
  40fa98:	ffff ffff ffff ffff ffff ffff ffff ffff     ................
  40faa8:	0000 0000 0000 ffff ffff ffff ffff 00ff     ................
  40fab8:	0000 ffff ffff ffff ffff ffff ffff 0000     ................
  40fac8:	0000 0000 ffff ffff ffff ffff ffff ffff     ................
  40fad8:	ffff 00ff 0000 0000 ff00 ffff ffff ffff     ................
  40fae8:	ffff ffff ffff ffff 0000 ff00 ffff ffff     ................
  40faf8:	ffff ffff ffff ffff ffff 0000 ff00 ffff     ................
  40fb08:	ffff ffff ffff 0000 0000 0000 0000 0000     ................
  40fb18:	0000 0000 ff00 ffff ffff ffff ffff ffff     ................
  40fb28:	ffff ffff 0000 ff00 ffff ffff ffff ffff     ................
  40fb38:	0000 0000 0000 ffff ffff ffff ffff ffff     ................
  40fb48:	ffff 0000 0000 0000 ffff ffff ffff ffff     ................
  40fb58:	ffff ffff 0000 ff00 ffff ffff ffff ffff     ................
  40fb68:	ffff ffff ffff ffff 00ff 0000 0000 0000     ................
	...
  40fb80:	ffff ffff ffff ffff ffff ffff ffff ffff     ................
  40fb90:	ffff ffff ffff ffff ffff ffff ffff 0000     ................
	...
  40fbb0:	ffff ffff ffff ffff ffff ffff ffff ffff     ................
  40fbc0:	ffff 0000 0000 0000 ffff ffff ffff ffff     ................
  40fbd0:	ffff ffff ffff ffff ffff ffff ffff ffff     ................
  40fbe0:	0000 0000 0000 ffff ffff ffff ffff 00ff     ................
  40fbf0:	0000 ffff ffff ffff ffff ffff ffff 0000     ................
  40fc00:	0000 0000 ffff ffff ffff ffff ffff ffff     ................
  40fc10:	ffff 00ff 0000 0000 ff00 ffff ffff ffff     ................
  40fc20:	ffff ffff ffff ffff 0000 ff00 ffff ffff     ................
  40fc30:	ffff ffff ffff ffff ffff 0000 ff00 ffff     ................
  40fc40:	ffff ffff ffff 0000 0000 0000 0000 0000     ................
  40fc50:	0000 0000 ff00 ffff ffff ffff ffff ffff     ................
  40fc60:	ffff ffff 0000 ff00 ffff ffff ffff ffff     ................
  40fc70:	0000 0000 0000 ffff ffff ffff ffff ffff     ................
  40fc80:	ffff 0000 0000 0000 ffff ffff ffff ffff     ................
  40fc90:	00ff 0000 0000 ff00 ffff ffff ffff ffff     ................
  40fca0:	ffff ffff ffff ffff 00ff 0000 0000 0000     ................
	...
  40fcb8:	ffff ffff ffff ffff ffff ffff ffff ffff     ................
  40fcc8:	ffff ffff ffff ffff ffff ffff ffff 0000     ................
	...
  40fce8:	ffff ffff ffff ffff ffff ffff ffff ffff     ................
  40fcf8:	ffff 0000 0000 0000 ffff ffff ffff ffff     ................
  40fd08:	ffff ffff ffff ffff ffff ffff ffff ffff     ................
  40fd18:	0000 0000 0000 ffff ffff ffff ffff 00ff     ................
  40fd28:	0000 ffff ffff ffff ffff ffff ffff 0000     ................
  40fd38:	ff00 ffff ffff ffff ffff ffff ffff ffff     ................
  40fd48:	ffff 00ff 0000 0000 ff00 ffff ffff ffff     ................
  40fd58:	ffff ffff ffff ffff ffff ffff ffff ffff     ................
  40fd68:	ffff ffff ffff ffff ffff 0000 ff00 ffff     ................
  40fd78:	ffff ffff ffff 0000 0000 0000 0000 0000     ................
  40fd88:	0000 0000 ff00 ffff ffff ffff ffff ffff     ................
  40fd98:	ffff ffff ffff ffff ffff ffff ffff ffff     ................
  40fda8:	0000 0000 0000 ffff ffff ffff ffff ffff     ................
  40fdb8:	ffff 0000 0000 0000 ffff ffff ffff ffff     ................
  40fdc8:	00ff 0000 0000 ff00 ffff ffff ffff ffff     ................
  40fdd8:	ffff ffff ffff ffff ffff ffff ffff ffff     ................
  40fde8:	ffff 0000 0000 0000 ffff ffff ffff ffff     ................
  40fdf8:	ffff ffff ffff ffff ffff ffff ffff ffff     ................
  40fe08:	ffff ffff ffff 0000 0000 0000 0000 0000     ................
	...
  40fe20:	ffff ffff ffff ffff ffff ffff ffff ffff     ................
  40fe30:	ffff 0000 0000 0000 ffff ffff ffff ffff     ................
  40fe40:	ffff ffff ffff ffff ffff ffff ffff ffff     ................
  40fe50:	0000 0000 0000 ffff ffff ffff ffff 00ff     ................
  40fe60:	0000 ffff ffff ffff ffff ffff ffff 0000     ................
  40fe70:	ff00 ffff ffff ffff ffff ffff ffff ffff     ................
  40fe80:	ffff 00ff 0000 0000 ff00 ffff ffff ffff     ................
  40fe90:	ffff ffff ffff ffff ffff ffff ffff ffff     ................
  40fea0:	ffff ffff ffff ffff ffff 0000 ff00 ffff     ................
  40feb0:	ffff ffff ffff ffff ffff ffff ffff ffff     ................
  40fec0:	ffff 0000 ff00 ffff ffff ffff ffff ffff     ................
  40fed0:	ffff ffff ffff ffff ffff ffff ffff ffff     ................
  40fee0:	0000 0000 0000 ffff ffff ffff ffff ffff     ................
  40fef0:	ffff 0000 0000 0000 ffff ffff ffff ffff     ................
  40ff00:	00ff 0000 0000 ff00 ffff ffff ffff ffff     ................
  40ff10:	ffff ffff ffff ffff ffff ffff ffff ffff     ................
  40ff20:	ffff 0000 0000 0000 ffff ffff ffff ffff     ................
  40ff30:	ffff ffff ffff ffff ffff ffff ffff ffff     ................
  40ff40:	ffff ffff ffff 0000 0000 0000 0000 0000     ................
	...
  40ff58:	ffff ffff ffff ffff ffff ffff ffff ffff     ................
  40ff68:	ffff 0000 0000 0000 ffff ffff ffff ffff     ................
  40ff78:	ffff ffff ffff ffff ffff ffff ffff ffff     ................
  40ff88:	0000 0000 0000 ffff ffff ffff ffff 00ff     ................
  40ff98:	0000 ffff ffff ffff ffff ffff ffff 0000     ................
  40ffa8:	ff00 ffff ffff ffff ffff ffff ffff ffff     ................
  40ffb8:	ffff ffff ffff 0000 ff00 ffff ffff ffff     ................
  40ffc8:	ffff ffff ffff ffff ffff ffff ffff ffff     ................
  40ffd8:	ffff ffff ffff ffff ffff 0000 ff00 ffff     ................
  40ffe8:	ffff ffff ffff ffff ffff ffff ffff ffff     ................
  40fff8:	ffff 0000 ff00 ffff ffff ffff ffff ffff     ................
  410008:	ffff ffff ffff ffff ffff ffff ffff ffff     ................
  410018:	0000 0000 0000 ffff ffff ffff ffff ffff     ................
  410028:	ffff 0000 0000 0000 ffff ffff ffff ffff     ................
  410038:	00ff 0000 0000 ff00 ffff ffff ffff ffff     ................
  410048:	ffff ffff ffff ffff ffff ffff ffff ffff     ................
  410058:	ffff 0000 0000 0000 ffff ffff ffff ffff     ................
  410068:	ffff ffff ffff ffff ffff ffff ffff ffff     ................
  410078:	ffff ffff ffff 0000 0000 0000 0000 0000     ................
	...
  410090:	ffff ffff ffff ffff ffff ffff ffff ffff     ................
  4100a0:	ffff 0000 0000 0000 ffff ffff ffff ffff     ................
  4100b0:	ffff ffff ffff ffff ffff ffff ffff ffff     ................
  4100c0:	0000 0000 0000 ffff ffff ffff ffff 00ff     ................
  4100d0:	0000 ffff ffff ffff ffff ffff ffff 0000     ................
  4100e0:	ff00 ffff ffff ffff ffff 0000 ff00 ffff     ................
  4100f0:	ffff ffff ffff 0000 ff00 ffff ffff ffff     ................
  410100:	ffff ffff ffff ffff ffff ffff ffff ffff     ................
  410110:	ffff ffff ffff ffff ffff 0000 ff00 ffff     ................
  410120:	ffff ffff ffff ffff ffff ffff ffff ffff     ................
  410130:	ffff 0000 ff00 ffff ffff ffff ffff ffff     ................
  410140:	ffff ffff ffff ffff ffff ffff ffff ffff     ................
  410150:	0000 0000 0000 ffff ffff ffff ffff ffff     ................
  410160:	ffff 0000 0000 0000 ffff ffff ffff ffff     ................
  410170:	00ff 0000 0000 ff00 ffff ffff ffff ffff     ................
  410180:	ffff ffff ffff ffff 00ff 0000 0000 0000     ................
	...
  410198:	ffff ffff ffff ffff ffff ffff ffff ffff     ................
  4101a8:	ffff ffff ffff ffff ffff ffff ffff 0000     ................
	...
  4101c8:	ffff ffff ffff ffff ffff ffff ffff ffff     ................
  4101d8:	ffff ffff 00ff 0000 ffff ffff ffff ffff     ................
  4101e8:	ffff ffff ffff ffff ffff ffff ffff ffff     ................
  4101f8:	0000 0000 0000 ffff ffff ffff ffff 00ff     ................
  410208:	0000 ffff ffff ffff ffff ffff ffff 0000     ................
  410218:	ff00 ffff ffff ffff ffff ffff ffff ffff     ................
  410228:	ffff ffff ffff 0000 ff00 ffff ffff ffff     ................
  410238:	ffff ffff ffff ffff ffff ffff ffff ffff     ................
  410248:	ffff ffff ffff ffff ffff 0000 ff00 ffff     ................
  410258:	ffff ffff ffff 0000 0000 0000 0000 0000     ................
  410268:	0000 0000 ff00 ffff ffff ffff ffff 0000     ................
  410278:	ff00 ffff ffff ffff ffff ffff ffff ffff     ................
  410288:	0000 0000 0000 ffff ffff ffff ffff ffff     ................
  410298:	ffff 0000 0000 0000 ffff ffff ffff ffff     ................
  4102a8:	00ff 0000 0000 ff00 ffff ffff ffff ffff     ................
  4102b8:	ffff ffff ffff ffff 00ff 0000 0000 0000     ................
	...
  4102d0:	ffff ffff ffff ffff ffff ffff ffff ffff     ................
  4102e0:	ffff ffff ffff ffff ffff ffff ffff 0000     ................
	...
  4102fc:	ff00 ffff ffff ffff ffff ffff ffff ffff     ................
  41030c:	ffff ffff ffff ffff 00ff 0000 ffff ffff     ................
  41031c:	ffff ffff 00ff 0000 ffff ffff ffff ffff     ................
  41032c:	ffff ffff 0000 0000 0000 ffff ffff ffff     ................
  41033c:	ffff 00ff 0000 ffff ffff ffff ffff ffff     ................
  41034c:	ffff 0000 ff00 ffff ffff ffff ffff ffff     ................
  41035c:	ffff ffff ffff ffff ffff 0000 ff00 ffff     ................
  41036c:	ffff ffff ffff ffff ffff ffff ffff ffff     ................
  41037c:	ffff 0000 ff00 ffff ffff ffff ffff 0000     ................
  41038c:	ff00 ffff ffff ffff ffff 0000 0000 0000     ................
	...
  4103a4:	ff00 ffff ffff ffff ffff 0000 ff00 ffff     ................
  4103b4:	ffff ffff ffff ffff ffff ffff 0000 0000     ................
  4103c4:	0000 ffff ffff ffff ffff ffff ffff 0000     ................
  4103d4:	0000 0000 ffff ffff ffff ffff 00ff 0000     ................
  4103e4:	0000 ff00 ffff ffff ffff ffff ffff ffff     ................
  4103f4:	ffff ffff 00ff 0000 0000 0000 0000 0000     ................
  410404:	0000 0000 ffff ffff ffff ffff ffff ffff     ................
  410414:	ffff ffff ffff ffff ffff ffff ffff ffff     ................
  410424:	ffff 0000 0000 0000 0000 0000 0000 0000     ................
  410434:	ff00 ffff ffff ffff ffff ffff ffff ffff     ................
  410444:	ffff ffff ffff ffff 00ff 0000 ffff ffff     ................
  410454:	ffff ffff 00ff 0000 ffff ffff ffff ffff     ................
  410464:	ffff ffff 0000 0000 0000 ffff ffff ffff     ................
  410474:	ffff 00ff 0000 ffff ffff ffff ffff ffff     ................
  410484:	ffff ffff ffff ffff ffff ffff ffff ffff     ................
  410494:	ffff ffff ffff ffff ffff 0000 ff00 ffff     ................
  4104a4:	ffff ffff ffff ffff ffff ffff ffff ffff     ................
  4104b4:	ffff 0000 ff00 ffff ffff ffff ffff 0000     ................
  4104c4:	ff00 ffff ffff ffff ffff 0000 0000 0000     ................
	...
  4104dc:	ff00 ffff ffff ffff ffff 0000 ff00 ffff     ................
  4104ec:	ffff ffff ffff ffff ffff ffff 0000 0000     ................
  4104fc:	0000 ffff ffff ffff ffff ffff ffff 0000     ................
  41050c:	0000 0000 ffff ffff ffff ffff 00ff 0000     ................
  41051c:	0000 ff00 ffff ffff ffff ffff ffff ffff     ................
  41052c:	ffff ffff 00ff 0000 0000 0000 0000 0000     ................
  41053c:	0000 0000 ffff ffff ffff ffff 00ff 0000     ................
  41054c:	ffff ffff ffff 0000 ff00 ffff ffff ffff     ................
  41055c:	ffff 0000 0000 0000 0000 0000 0000 0000     ................
  41056c:	ff00 ffff ffff ffff ffff 0000 0000 0000     ................
  41057c:	ffff ffff ffff ffff 00ff 0000 ffff ffff     ................
  41058c:	ffff ffff 00ff 0000 ffff ffff ffff ffff     ................
  41059c:	ffff ffff 0000 0000 0000 ffff ffff ffff     ................
  4105ac:	ffff 00ff 0000 ffff ffff ffff ffff ffff     ................
  4105bc:	ffff ffff ffff ffff ffff ffff ffff 0000     ................
  4105cc:	ff00 ffff ffff ffff ffff 0000 ff00 ffff     ................
  4105dc:	ffff ffff ffff ffff ffff ffff ffff ffff     ................
  4105ec:	ffff 0000 ff00 ffff ffff ffff ffff 0000     ................
  4105fc:	ff00 ffff ffff ffff ffff 0000 0000 0000     ................
	...
  410614:	ff00 ffff ffff ffff ffff 0000 0000 0000     ................
  410624:	ffff ffff ffff ffff ffff ffff 0000 0000     ................
  410634:	0000 ffff ffff ffff ffff ffff ffff 0000     ................
  410644:	0000 0000 ffff ffff ffff ffff ffff ffff     ................
  410654:	0000 ff00 ffff ffff ffff ffff ffff ffff     ................
  410664:	ffff ffff ffff ffff ffff ffff ffff ffff     ................
  410674:	00ff 0000 ffff ffff ffff ffff 00ff 0000     ................
  410684:	ffff ffff ffff 0000 ff00 ffff ffff ffff     ................
  410694:	ffff 0000 0000 0000 0000 0000 0000 0000     ................
  4106a4:	ff00 ffff ffff ffff ffff 0000 0000 0000     ................
  4106b4:	ffff ffff ffff ffff 00ff 0000 ffff ffff     ................
  4106c4:	ffff ffff 00ff 0000 0000 ff00 ffff ffff     ................
  4106d4:	ffff ffff 0000 0000 0000 ffff ffff ffff     ................
  4106e4:	ffff ffff ffff ffff ffff ffff ffff 00ff     ................
  4106f4:	0000 ffff ffff ffff ffff 00ff 0000 0000     ................
  410704:	ff00 ffff ffff ffff ffff ffff ffff ffff     ................
  410714:	ffff ffff ffff ffff ffff ffff ffff ffff     ................
  410724:	ffff 0000 ff00 ffff ffff ffff ffff 0000     ................
  410734:	ff00 ffff ffff ffff ffff ffff ffff ffff     ................
  410744:	ffff ffff ffff ffff ffff ffff ffff ffff     ................
  410754:	ffff 0000 0000 0000 ffff ffff ffff ffff     ................
  410764:	ffff ffff 0000 0000 0000 ffff ffff ffff     ................
  410774:	ffff ffff ffff 0000 0000 0000 ffff ffff     ................
  410784:	ffff ffff ffff ffff ffff ffff ffff ffff     ................
  410794:	ffff ffff ffff ffff ffff ffff ffff ffff     ................
  4107a4:	ffff ffff ffff ffff 00ff 0000 ffff ffff     ................
  4107b4:	ffff ffff 00ff 0000 0000 0000 0000 0000     ................
  4107c4:	ff00 ffff ffff ffff ffff 0000 0000 0000     ................
	...
  4107dc:	ff00 ffff ffff ffff ffff 0000 0000 0000     ................
  4107ec:	ffff ffff ffff ffff 00ff 0000 ffff ffff     ................
  4107fc:	ffff ffff 00ff 0000 0000 ff00 ffff ffff     ................
  41080c:	ffff ffff 0000 0000 0000 ffff ffff ffff     ................
  41081c:	ffff ffff ffff ffff ffff ffff ffff 00ff     ................
  41082c:	0000 ffff ffff ffff ffff 00ff 0000 0000     ................
  41083c:	ff00 ffff ffff ffff ffff ffff ffff ffff     ................
  41084c:	ffff ffff ffff ffff 00ff 0000 0000 0000     ................
  41085c:	0000 0000 ff00 ffff ffff ffff ffff 0000     ................
  41086c:	ff00 ffff ffff ffff ffff ffff ffff ffff     ................
  41087c:	ffff ffff ffff ffff ffff ffff ffff ffff     ................
  41088c:	ffff 0000 0000 0000 ffff ffff ffff ffff     ................
  41089c:	ffff ffff 0000 0000 0000 ffff ffff ffff     ................
  4108ac:	ffff ffff ffff 0000 0000 0000 0000 ff00     ................
  4108bc:	ffff ffff ffff ffff ffff ffff ffff ffff     ................
  4108cc:	ffff ffff ffff ffff ffff ffff ffff ffff     ................
  4108dc:	ffff ffff ffff ffff 00ff 0000 ffff ffff     ................
  4108ec:	ffff ffff 00ff 0000 0000 0000 0000 0000     ................
  4108fc:	ff00 ffff ffff ffff ffff 0000 0000 0000     ................
	...
  410914:	ff00 ffff ffff ffff ffff 0000 0000 0000     ................
  410924:	ffff ffff ffff ffff ffff ffff ffff ffff     ................
  410934:	ffff ffff 00ff 0000 0000 ff00 ffff ffff     ................
  410944:	ffff ffff 0000 0000 0000 ffff ffff ffff     ................
  410954:	ffff ffff ffff ffff 00ff 0000 0000 0000     ................
  410964:	0000 ffff ffff ffff ffff 00ff 0000 0000     ................
  410974:	0000 0000 ffff ffff ffff ffff ffff ffff     ................
  410984:	ffff ffff ffff ffff 00ff 0000 0000 0000     ................
  410994:	0000 0000 ff00 ffff ffff ffff ffff 0000     ................
  4109a4:	ff00 ffff ffff ffff ffff ffff ffff ffff     ................
  4109b4:	ffff ffff ffff ffff ffff ffff ffff ffff     ................
  4109c4:	ffff 0000 0000 0000 ffff ffff ffff ffff     ................
  4109d4:	ffff ffff 0000 0000 0000 ffff ffff ffff     ................
  4109e4:	ffff ffff ffff 0000 0000 0000 0000 0000     ................
  4109f4:	0000 ffff ffff ffff ffff ffff ffff 0000     ................
  410a04:	0000 0000 2d2d 5320 4d41 3745 2030 434c     ....-- SAME70 LC
  410a14:	2044 4544 4f4d 2d20 0d2d 2d0a 202d 4153     D DEMO --..-- SA
  410a24:	454d 3037 582d 4c50 2044 2d2d 0a0d 2d2d     ME70-XPLD --..--
  410a34:	4320 6d6f 6970 656c 3a64 4120 7270 3120      Compiled: Apr 1
  410a44:	2038 3032 3931 3120 3a35 3433 323a 2033     8 2019 15:34:23 
  410a54:	2d2d 0a0d 0000 0000 6425 6d20 6e69 7220     --......%d min r
  410a64:	7365 6174 746e 7365 0000 0000               estantes....

00410a70 <_global_impure_ptr>:
  410a70:	0010 2040 4e49 0046 6e69 0066 414e 004e     ..@ INF.inf.NAN.
  410a80:	616e 006e 3130 3332 3534 3736 3938 4241     nan.0123456789AB
  410a90:	4443 4645 0000 0000 3130 3332 3534 3736     CDEF....01234567
  410aa0:	3938 6261 6463 6665 0000 0000 6e28 6c75     89abcdef....(nul
  410ab0:	296c 0000 0030 0000                         l)..0...

00410ab8 <blanks.7223>:
  410ab8:	2020 2020 2020 2020 2020 2020 2020 2020                     

00410ac8 <zeroes.7224>:
  410ac8:	3030 3030 3030 3030 3030 3030 3030 3030     0000000000000000

00410ad8 <blanks.7217>:
  410ad8:	2020 2020 2020 2020 2020 2020 2020 2020                     

00410ae8 <zeroes.7218>:
  410ae8:	3030 3030 3030 3030 3030 3030 3030 3030     0000000000000000
  410af8:	6e49 6966 696e 7974 0000 0000 614e 004e     Infinity....NaN.
  410b08:	0043 0000 4f50 4953 0058 0000 002e 0000     C...POSIX.......

00410b18 <__mprec_bigtens>:
  410b18:	8000 37e0 c379 4341 6e17 b505 b8b5 4693     ...7y.AC.n.....F
  410b28:	f9f5 e93f 4f03 4d38 1d32 f930 7748 5a82     ..?..O8M2.0.Hw.Z
  410b38:	bf3c 7f73 4fdd 7515                         <.s..O.u

00410b40 <__mprec_tens>:
  410b40:	0000 0000 0000 3ff0 0000 0000 0000 4024     .......?......$@
  410b50:	0000 0000 0000 4059 0000 0000 4000 408f     ......Y@.....@.@
  410b60:	0000 0000 8800 40c3 0000 0000 6a00 40f8     .......@.....j.@
  410b70:	0000 0000 8480 412e 0000 0000 12d0 4163     .......A......cA
  410b80:	0000 0000 d784 4197 0000 0000 cd65 41cd     .......A....e..A
  410b90:	0000 2000 a05f 4202 0000 e800 4876 4237     ... _..B....vH7B
  410ba0:	0000 a200 1a94 426d 0000 e540 309c 42a2     ......mB..@..0.B
  410bb0:	0000 1e90 bcc4 42d6 0000 2634 6bf5 430c     .......B..4&.k.C
  410bc0:	8000 37e0 c379 4341 a000 85d8 3457 4376     ...7y.AC....W4vC
  410bd0:	c800 674e c16d 43ab 3d00 6091 58e4 43e1     ..Ngm..C.=.`.X.C
  410be0:	8c40 78b5 af1d 4415 ef50 d6e2 1ae4 444b     @..x...DP.....KD
  410bf0:	d592 064d f0cf 4480 4af6 c7e1 2d02 44b5     ..M....D.J...-.D
  410c00:	9db4 79d9 7843 44ea                         ...yCx.D

00410c08 <p05.6055>:
  410c08:	0005 0000 0019 0000 007d 0000               ........}...

00410c14 <_ctype_>:
  410c14:	2000 2020 2020 2020 2020 2828 2828 2028     .         ((((( 
  410c24:	2020 2020 2020 2020 2020 2020 2020 2020                     
  410c34:	8820 1010 1010 1010 1010 1010 1010 1010      ...............
  410c44:	0410 0404 0404 0404 0404 1004 1010 1010     ................
  410c54:	1010 4141 4141 4141 0101 0101 0101 0101     ..AAAAAA........
  410c64:	0101 0101 0101 0101 0101 0101 1010 1010     ................
  410c74:	1010 4242 4242 4242 0202 0202 0202 0202     ..BBBBBB........
  410c84:	0202 0202 0202 0202 0202 0202 1010 1010     ................
  410c94:	0020 0000 0000 0000 0000 0000 0000 0000      ...............
	...

00410d18 <_init>:
  410d18:	b5f8      	push	{r3, r4, r5, r6, r7, lr}
  410d1a:	bf00      	nop
  410d1c:	bcf8      	pop	{r3, r4, r5, r6, r7}
  410d1e:	bc08      	pop	{r3}
  410d20:	469e      	mov	lr, r3
  410d22:	4770      	bx	lr

00410d24 <__init_array_start>:
  410d24:	00404251 	.word	0x00404251

00410d28 <__frame_dummy_init_array_entry>:
  410d28:	00400165                                e.@.

00410d2c <_fini>:
  410d2c:	b5f8      	push	{r3, r4, r5, r6, r7, lr}
  410d2e:	bf00      	nop
  410d30:	bcf8      	pop	{r3, r4, r5, r6, r7}
  410d32:	bc08      	pop	{r3}
  410d34:	469e      	mov	lr, r3
  410d36:	4770      	bx	lr

00410d38 <__fini_array_start>:
  410d38:	00400141 	.word	0x00400141
